
sglA26.o:     file format coff-sh


Disassembly of section SLPROG:

00000000 <_slMultiMatrix>:
   0:	c6 07       	mov.l	@(28,gbr),r0
   2:	66 46       	mov.l	@r4+,r6
   4:	67 06       	mov.l	@r0+,r7
   6:	37 6d       	dmuls.l	r6,r7
   8:	61 03       	mov	r0,r1
   a:	71 fc       	add	#-4,r1
   c:	00 4f       	mac.l	@r4+,@r0+
   e:	52 12       	mov.l	@(8,r1),r2
  10:	00 4f       	mac.l	@r4+,@r0+
  12:	70 f8       	add	#-8,r0
  14:	66 46       	mov.l	@r4+,r6
  16:	2f 26       	mov.l	r2,@-r15
  18:	02 0a       	sts	mach,r2
  1a:	03 1a       	sts	macl,r3
  1c:	37 6d       	dmuls.l	r6,r7
  1e:	23 2d       	xtrct	r2,r3
  20:	11 30       	mov.l	r3,@(0,r1)
  22:	00 4f       	mac.l	@r4+,@r0+
  24:	50 11       	mov.l	@(4,r1),r0
  26:	62 f3       	mov	r15,r2
  28:	02 4f       	mac.l	@r4+,@r2+
  2a:	66 46       	mov.l	@r4+,r6
  2c:	2f 06       	mov.l	r0,@-r15
  2e:	02 0a       	sts	mach,r2
  30:	03 1a       	sts	macl,r3
  32:	37 6d       	dmuls.l	r6,r7
  34:	23 2d       	xtrct	r2,r3
  36:	62 f3       	mov	r15,r2
  38:	02 4f       	mac.l	@r4+,@r2+
  3a:	11 31       	mov.l	r3,@(4,r1)
  3c:	02 4f       	mac.l	@r4+,@r2+
  3e:	66 46       	mov.l	@r4+,r6
  40:	02 0a       	sts	mach,r2
  42:	03 1a       	sts	macl,r3
  44:	37 6d       	dmuls.l	r6,r7
  46:	23 2d       	xtrct	r2,r3
  48:	11 32       	mov.l	r3,@(8,r1)
  4a:	0f 4f       	mac.l	@r4+,@r15+
  4c:	55 13       	mov.l	@(12,r1),r5
  4e:	60 13       	mov	r1,r0
  50:	0f 4f       	mac.l	@r4+,@r15+
  52:	74 d0       	add	#-48,r4
  54:	57 14       	mov.l	@(16,r1),r7
  56:	66 46       	mov.l	@r4+,r6
  58:	02 0a       	sts	mach,r2
  5a:	03 1a       	sts	macl,r3
  5c:	37 6d       	dmuls.l	r6,r7
  5e:	70 14       	add	#20,r0
  60:	23 2d       	xtrct	r2,r3
  62:	00 4f       	mac.l	@r4+,@r0+
  64:	33 5c       	add	r5,r3
  66:	11 33       	mov.l	r3,@(12,r1)
  68:	00 4f       	mac.l	@r4+,@r0+
  6a:	52 16       	mov.l	@(24,r1),r2
  6c:	66 46       	mov.l	@r4+,r6
  6e:	2f 26       	mov.l	r2,@-r15
  70:	02 0a       	sts	mach,r2
  72:	03 1a       	sts	macl,r3
  74:	37 6d       	dmuls.l	r6,r7
  76:	23 2d       	xtrct	r2,r3
  78:	70 f8       	add	#-8,r0
  7a:	00 4f       	mac.l	@r4+,@r0+
  7c:	52 15       	mov.l	@(20,r1),r2
  7e:	11 34       	mov.l	r3,@(16,r1)
  80:	00 4f       	mac.l	@r4+,@r0+
  82:	66 46       	mov.l	@r4+,r6
  84:	2f 26       	mov.l	r2,@-r15
  86:	60 f3       	mov	r15,r0
  88:	02 0a       	sts	mach,r2
  8a:	03 1a       	sts	macl,r3
  8c:	37 6d       	dmuls.l	r6,r7
  8e:	23 2d       	xtrct	r2,r3
  90:	11 35       	mov.l	r3,@(20,r1)
  92:	00 4f       	mac.l	@r4+,@r0+
  94:	00 4f       	mac.l	@r4+,@r0+
  96:	66 46       	mov.l	@r4+,r6
  98:	02 0a       	sts	mach,r2
  9a:	03 1a       	sts	macl,r3
  9c:	37 6d       	dmuls.l	r6,r7
  9e:	23 2d       	xtrct	r2,r3
  a0:	11 36       	mov.l	r3,@(24,r1)
  a2:	0f 4f       	mac.l	@r4+,@r15+
  a4:	55 17       	mov.l	@(28,r1),r5
  a6:	0f 4f       	mac.l	@r4+,@r15+
  a8:	74 d0       	add	#-48,r4
  aa:	66 46       	mov.l	@r4+,r6
  ac:	57 18       	mov.l	@(32,r1),r7
  ae:	02 0a       	sts	mach,r2
  b0:	03 1a       	sts	macl,r3
  b2:	37 6d       	dmuls.l	r6,r7
  b4:	60 13       	mov	r1,r0
  b6:	70 24       	add	#36,r0
  b8:	00 4f       	mac.l	@r4+,@r0+
  ba:	23 2d       	xtrct	r2,r3
  bc:	33 5c       	add	r5,r3
  be:	00 4f       	mac.l	@r4+,@r0+
  c0:	11 37       	mov.l	r3,@(28,r1)
  c2:	66 46       	mov.l	@r4+,r6
  c4:	70 f8       	add	#-8,r0
  c6:	02 0a       	sts	mach,r2
  c8:	03 1a       	sts	macl,r3
  ca:	37 6d       	dmuls.l	r6,r7
  cc:	23 2d       	xtrct	r2,r3
  ce:	11 38       	mov.l	r3,@(32,r1)
  d0:	00 4f       	mac.l	@r4+,@r0+
  d2:	52 19       	mov.l	@(36,r1),r2
  d4:	53 1a       	mov.l	@(40,r1),r3
  d6:	00 4f       	mac.l	@r4+,@r0+
  d8:	66 46       	mov.l	@r4+,r6
  da:	2f 36       	mov.l	r3,@-r15
  dc:	2f 26       	mov.l	r2,@-r15
  de:	02 0a       	sts	mach,r2
  e0:	03 1a       	sts	macl,r3
  e2:	37 6d       	dmuls.l	r6,r7
  e4:	60 f3       	mov	r15,r0
  e6:	23 2d       	xtrct	r2,r3
  e8:	00 4f       	mac.l	@r4+,@r0+
  ea:	11 39       	mov.l	r3,@(36,r1)
  ec:	00 4f       	mac.l	@r4+,@r0+
  ee:	66 46       	mov.l	@r4+,r6
  f0:	02 0a       	sts	mach,r2
  f2:	03 1a       	sts	macl,r3
  f4:	37 6d       	dmuls.l	r6,r7
  f6:	23 2d       	xtrct	r2,r3
  f8:	11 3a       	mov.l	r3,@(40,r1)
  fa:	0f 4f       	mac.l	@r4+,@r15+
  fc:	55 1b       	mov.l	@(44,r1),r5
  fe:	0f 4f       	mac.l	@r4+,@r15+
 100:	02 0a       	sts	mach,r2
 102:	03 1a       	sts	macl,r3
 104:	23 2d       	xtrct	r2,r3
 106:	33 5c       	add	r5,r3
 108:	00 0b       	rts	
 10a:	11 3b       	mov.l	r3,@(44,r1)
