
sglA04.o:     file format coff-sh


Disassembly of section SLPROG:

00000000 <_slAtan>:
       0:	44 11       	cmp/pz	r4
       2:	8d 02       	bt.s	a <atn_0>
       4:	e1 00       	mov	#0,r1
       6:	64 4b       	neg	r4,r4
       8:	e1 04       	mov	#4,r1

0000000a <atn_0>:
       a:	45 11       	cmp/pz	r5
       c:	8d 02       	bt.s	14 <atn_1>
       e:	e3 ff       	mov	#-1,r3
      10:	65 5b       	neg	r5,r5
      12:	71 08       	add	#8,r1

00000014 <atn_1>:
      14:	34 53       	cmp/ge	r5,r4
      16:	8d 04       	bt.s	22 <atn_2>
      18:	43 18       	shll8	r3
      1a:	25 4a       	xor	r4,r5
      1c:	24 5a       	xor	r5,r4
      1e:	25 4a       	xor	r4,r5
      20:	71 10       	add	#16,r1

00000022 <atn_2>:
      22:	45 09       	shlr2	r5
      24:	45 01       	shlr	r5
      26:	13 40       	mov.l	r4,@(0,r3)
      28:	64 59       	swap.w	r5,r4
      2a:	64 4f       	exts.w	r4,r4
      2c:	13 44       	mov.l	r4,@(16,r3)
      2e:	45 28       	shll16	r5
      30:	13 55       	mov.l	r5,@(20,r3)
      32:	e4 40       	mov	#64,r4
      34:	44 18       	shll8	r4
      36:	c7 1f       	mova	b4 <_atan_tbl>,r0
      38:	62 03       	mov	r0,r2
      3a:	c7 16       	mova	94 <atn_case_tbl>,r0
      3c:	00 1e       	mov.l	@(r0,r1),r0
      3e:	65 43       	mov	r4,r5
      40:	35 5c       	add	r5,r5
      42:	e1 fe       	mov	#-2,r1
      44:	40 2b       	jmp	@r0
      46:	50 37       	mov.l	@(28,r3),r0

00000048 <atn_Xp_Yp_Xy>:
      48:	20 19       	and	r1,r0
      4a:	00 0b       	rts	
      4c:	00 2d       	mov.w	@(r0,r2),r0

0000004e <atn_Xm_Yp_Xy>:
      4e:	20 19       	and	r1,r0
      50:	00 2d       	mov.w	@(r0,r2),r0
      52:	35 08       	sub	r0,r5
      54:	00 0b       	rts	
      56:	60 53       	mov	r5,r0

00000058 <atn_Xp_Ym_Xy>:
      58:	20 19       	and	r1,r0
      5a:	00 2d       	mov.w	@(r0,r2),r0
      5c:	60 0b       	neg	r0,r0
      5e:	00 0b       	rts	
      60:	60 0d       	extu.w	r0,r0

00000062 <atn_Xm_Ym_Xy>:
      62:	20 19       	and	r1,r0
      64:	00 2d       	mov.w	@(r0,r2),r0
      66:	00 0b       	rts	
      68:	30 5c       	add	r5,r0

0000006a <atn_Xp_Yp_xY>:
      6a:	20 19       	and	r1,r0
      6c:	00 2d       	mov.w	@(r0,r2),r0
      6e:	34 08       	sub	r0,r4
      70:	00 0b       	rts	
      72:	60 43       	mov	r4,r0

00000074 <atn_Xm_Yp_xY>:
      74:	20 19       	and	r1,r0
      76:	00 2d       	mov.w	@(r0,r2),r0
      78:	00 0b       	rts	
      7a:	30 4c       	add	r4,r0

0000007c <atn_Xp_Ym_xY>:
      7c:	20 19       	and	r1,r0
      7e:	00 2d       	mov.w	@(r0,r2),r0
      80:	35 4c       	add	r4,r5
      82:	00 0b       	rts	
      84:	30 5c       	add	r5,r0

00000086 <atn_Xm_Ym_xY>:
      86:	20 19       	and	r1,r0
      88:	00 2d       	mov.w	@(r0,r2),r0
      8a:	35 4c       	add	r4,r5
      8c:	35 08       	sub	r0,r5
      8e:	00 0b       	rts	
      90:	60 53       	mov	r5,r0
	...

00000094 <atn_case_tbl>:
      94:	00 00       	.word 0x0000
      96:	00 48       	clrs	
      98:	00 00       	.word 0x0000
      9a:	00 4e       	mov.l	@(r0,r4),r0
      9c:	00 00       	.word 0x0000
      9e:	00 58       	sets	
      a0:	00 00       	.word 0x0000
      a2:	00 62       	stc	r6_bank,r0
      a4:	00 00       	.word 0x0000
      a6:	00 6a       	sts	fpscr,r0
      a8:	00 00       	.word 0x0000
      aa:	00 74       	mov.b	r7,@(r0,r0)
      ac:	00 00       	.word 0x0000
      ae:	00 7c       	mov.b	@(r0,r7),r0
      b0:	00 00       	.word 0x0000
      b2:	00 86       	mov.l	r8,@(r0,r0)

000000b4 <_atan_tbl>:
      b4:	00 00       	.word 0x0000
      b6:	00 03       	bsrf	r0
      b8:	00 06       	mov.l	r0,@(r0,r0)
      ba:	00 08       	clrt	
      bc:	00 0b       	rts	
      be:	00 0d       	mov.w	@(r0,r0),r0
      c0:	00 10       	.word 0x0010
      c2:	00 12       	stc	gbr,r0
      c4:	00 15       	mov.w	r1,@(r0,r0)
      c6:	00 17       	mul.l	r1,r0
      c8:	00 1a       	sts	macl,r0
      ca:	00 1d       	mov.w	@(r0,r1),r0
      cc:	00 1f       	mac.l	@r1+,@r0+
      ce:	00 22       	stc	vbr,r0
      d0:	00 24       	mov.b	r2,@(r0,r0)
      d2:	00 27       	mul.l	r2,r0
      d4:	00 29       	movt	r0
      d6:	00 2c       	mov.b	@(r0,r2),r0
      d8:	00 2e       	mov.l	@(r0,r2),r0
      da:	00 31       	.word 0x0031
      dc:	00 33       	.word 0x0033
      de:	00 36       	mov.l	r3,@(r0,r0)
      e0:	00 39       	.word 0x0039
      e2:	00 3b       	.word 0x003b
      e4:	00 3e       	mov.l	@(r0,r3),r0
      e6:	00 40       	.word 0x0040
      e8:	00 43       	.word 0x0043
      ea:	00 45       	mov.w	r4,@(r0,r0)
      ec:	00 48       	clrs	
      ee:	00 4a       	.word 0x004a
      f0:	00 4d       	mov.w	@(r0,r4),r0
      f2:	00 4f       	mac.l	@r4+,@r0+
      f4:	00 52       	stc	r5_bank,r0
      f6:	00 55       	mov.w	r5,@(r0,r0)
      f8:	00 57       	mul.l	r5,r0
      fa:	00 5a       	sts	fpul,r0
      fc:	00 5c       	mov.b	@(r0,r5),r0
      fe:	00 5f       	mac.l	@r5+,@r0+
     100:	00 61       	.word 0x0061
     102:	00 64       	mov.b	r6,@(r0,r0)
     104:	00 66       	mov.l	r6,@(r0,r0)
     106:	00 69       	.word 0x0069
     108:	00 6b       	.word 0x006b
     10a:	00 6e       	mov.l	@(r0,r6),r0
     10c:	00 71       	.word 0x0071
     10e:	00 73       	.word 0x0073
     110:	00 76       	mov.l	r7,@(r0,r0)
     112:	00 78       	.word 0x0078
     114:	00 7b       	.word 0x007b
     116:	00 7d       	mov.w	@(r0,r7),r0
     118:	00 80       	.word 0x0080
     11a:	00 82       	stc	r0_bank,r0
     11c:	00 85       	mov.w	r8,@(r0,r0)
     11e:	00 87       	mul.l	r8,r0
     120:	00 8a       	.word 0x008a
     122:	00 8d       	mov.w	@(r0,r8),r0
     124:	00 8f       	mac.l	@r8+,@r0+
     126:	00 92       	stc	r1_bank,r0
     128:	00 94       	mov.b	r9,@(r0,r0)
     12a:	00 97       	mul.l	r9,r0
     12c:	00 99       	.word 0x0099
     12e:	00 9c       	mov.b	@(r0,r9),r0
     130:	00 9e       	mov.l	@(r0,r9),r0
     132:	00 a1       	.word 0x00a1
     134:	00 a3       	ocbp	@r0
     136:	00 a6       	mov.l	r10,@(r0,r0)
     138:	00 a9       	.word 0x00a9
     13a:	00 ab       	.word 0x00ab
     13c:	00 ae       	mov.l	@(r0,r10),r0
     13e:	00 b0       	.word 0x00b0
     140:	00 b3       	ocbwb	@r0
     142:	00 b5       	mov.w	r11,@(r0,r0)
     144:	00 b8       	.word 0x00b8
     146:	00 ba       	.word 0x00ba
     148:	00 bd       	mov.w	@(r0,r11),r0
     14a:	00 bf       	mac.l	@r11+,@r0+
     14c:	00 c2       	stc	r4_bank,r0
     14e:	00 c5       	mov.w	r12,@(r0,r0)
     150:	00 c7       	mul.l	r12,r0
     152:	00 ca       	.word 0x00ca
     154:	00 cc       	mov.b	@(r0,r12),r0
     156:	00 cf       	mac.l	@r12+,@r0+
     158:	00 d1       	.word 0x00d1
     15a:	00 d4       	mov.b	r13,@(r0,r0)
     15c:	00 d6       	mov.l	r13,@(r0,r0)
     15e:	00 d9       	.word 0x00d9
     160:	00 db       	.word 0x00db
     162:	00 de       	mov.l	@(r0,r13),r0
     164:	00 e1       	.word 0x00e1
     166:	00 e3       	.word 0x00e3
     168:	00 e6       	mov.l	r14,@(r0,r0)
     16a:	00 e8       	.word 0x00e8
     16c:	00 eb       	.word 0x00eb
     16e:	00 ed       	mov.w	@(r0,r14),r0
     170:	00 f0       	.word 0x00f0
     172:	00 f2       	stc	r7_bank,r0
     174:	00 f5       	mov.w	r15,@(r0,r0)
     176:	00 f7       	mul.l	r15,r0
     178:	00 fa       	stc	dbr,r0
     17a:	00 fd       	mov.w	@(r0,r15),r0
     17c:	00 ff       	mac.l	@r15+,@r0+
     17e:	01 02       	stc	sr,r1
     180:	01 04       	mov.b	r0,@(r0,r1)
     182:	01 07       	mul.l	r0,r1
     184:	01 09       	.word 0x0109
     186:	01 0c       	mov.b	@(r0,r0),r1
     188:	01 0e       	mov.l	@(r0,r0),r1
     18a:	01 11       	.word 0x0111
     18c:	01 13       	.word 0x0113
     18e:	01 16       	mov.l	r1,@(r0,r1)
     190:	01 19       	.word 0x0119
     192:	01 1b       	.word 0x011b
     194:	01 1e       	mov.l	@(r0,r1),r1
     196:	01 20       	.word 0x0120
     198:	01 23       	braf	r1
     19a:	01 25       	mov.w	r2,@(r0,r1)
     19c:	01 28       	.word 0x0128
     19e:	01 2a       	sts	pr,r1
     1a0:	01 2d       	mov.w	@(r0,r2),r1
     1a2:	01 2f       	mac.l	@r2+,@r1+
     1a4:	01 32       	stc	ssr,r1
     1a6:	01 35       	mov.w	r3,@(r0,r1)
     1a8:	01 37       	mul.l	r3,r1
     1aa:	01 3a       	stc	sgr,r1
     1ac:	01 3c       	mov.b	@(r0,r3),r1
     1ae:	01 3f       	mac.l	@r3+,@r1+
     1b0:	01 41       	.word 0x0141
     1b2:	01 44       	mov.b	r4,@(r0,r1)
     1b4:	01 46       	mov.l	r4,@(r0,r1)
     1b6:	01 49       	.word 0x0149
     1b8:	01 4b       	.word 0x014b
     1ba:	01 4e       	mov.l	@(r0,r4),r1
     1bc:	01 51       	.word 0x0151
     1be:	01 53       	.word 0x0153
     1c0:	01 56       	mov.l	r5,@(r0,r1)
     1c2:	01 58       	.word 0x0158
     1c4:	01 5b       	.word 0x015b
     1c6:	01 5d       	mov.w	@(r0,r5),r1
     1c8:	01 60       	.word 0x0160
     1ca:	01 62       	stc	r6_bank,r1
     1cc:	01 65       	mov.w	r6,@(r0,r1)
     1ce:	01 67       	mul.l	r6,r1
     1d0:	01 6a       	sts	fpscr,r1
     1d2:	01 6c       	mov.b	@(r0,r6),r1
     1d4:	01 6f       	mac.l	@r6+,@r1+
     1d6:	01 72       	stc	r7_bank,r1
     1d8:	01 74       	mov.b	r7,@(r0,r1)
     1da:	01 77       	mul.l	r7,r1
     1dc:	01 79       	.word 0x0179
     1de:	01 7c       	mov.b	@(r0,r7),r1
     1e0:	01 7e       	mov.l	@(r0,r7),r1
     1e2:	01 81       	.word 0x0181
     1e4:	01 83       	pref	@r1
     1e6:	01 86       	mov.l	r8,@(r0,r1)
     1e8:	01 88       	.word 0x0188
     1ea:	01 8b       	.word 0x018b
     1ec:	01 8e       	mov.l	@(r0,r8),r1
     1ee:	01 90       	.word 0x0190
     1f0:	01 93       	ocbi	@r1
     1f2:	01 95       	mov.w	r9,@(r0,r1)
     1f4:	01 98       	.word 0x0198
     1f6:	01 9a       	.word 0x019a
     1f8:	01 9d       	mov.w	@(r0,r9),r1
     1fa:	01 9f       	mac.l	@r9+,@r1+
     1fc:	01 a2       	stc	r2_bank,r1
     1fe:	01 a4       	mov.b	r10,@(r0,r1)
     200:	01 a7       	mul.l	r10,r1
     202:	01 aa       	.word 0x01aa
     204:	01 ac       	mov.b	@(r0,r10),r1
     206:	01 af       	mac.l	@r10+,@r1+
     208:	01 b1       	.word 0x01b1
     20a:	01 b4       	mov.b	r11,@(r0,r1)
     20c:	01 b6       	mov.l	r11,@(r0,r1)
     20e:	01 b9       	.word 0x01b9
     210:	01 bb       	.word 0x01bb
     212:	01 be       	mov.l	@(r0,r11),r1
     214:	01 c0       	.word 0x01c0
     216:	01 c3       	movca.l	r0,@r1
     218:	01 c5       	mov.w	r12,@(r0,r1)
     21a:	01 c8       	.word 0x01c8
     21c:	01 cb       	.word 0x01cb
     21e:	01 cd       	mov.w	@(r0,r12),r1
     220:	01 d0       	.word 0x01d0
     222:	01 d2       	stc	r5_bank,r1
     224:	01 d5       	mov.w	r13,@(r0,r1)
     226:	01 d7       	mul.l	r13,r1
     228:	01 da       	.word 0x01da
     22a:	01 dc       	mov.b	@(r0,r13),r1
     22c:	01 df       	mac.l	@r13+,@r1+
     22e:	01 e1       	.word 0x01e1
     230:	01 e4       	mov.b	r14,@(r0,r1)
     232:	01 e7       	mul.l	r14,r1
     234:	01 e9       	.word 0x01e9
     236:	01 ec       	mov.b	@(r0,r14),r1
     238:	01 ee       	mov.l	@(r0,r14),r1
     23a:	01 f1       	.word 0x01f1
     23c:	01 f3       	.word 0x01f3
     23e:	01 f6       	mov.l	r15,@(r0,r1)
     240:	01 f8       	.word 0x01f8
     242:	01 fb       	.word 0x01fb
     244:	01 fd       	mov.w	@(r0,r15),r1
     246:	02 00       	.word 0x0200
     248:	02 02       	stc	sr,r2
     24a:	02 05       	mov.w	r0,@(r0,r2)
     24c:	02 08       	.word 0x0208
     24e:	02 0a       	sts	mach,r2
     250:	02 0d       	mov.w	@(r0,r0),r2
     252:	02 0f       	mac.l	@r0+,@r2+
     254:	02 12       	stc	gbr,r2
     256:	02 14       	mov.b	r1,@(r0,r2)
     258:	02 17       	mul.l	r1,r2
     25a:	02 19       	.word 0x0219
     25c:	02 1c       	mov.b	@(r0,r1),r2
     25e:	02 1e       	mov.l	@(r0,r1),r2
     260:	02 21       	.word 0x0221
     262:	02 23       	braf	r2
     264:	02 26       	mov.l	r2,@(r0,r2)
     266:	02 29       	movt	r2
     268:	02 2b       	.word 0x022b
     26a:	02 2e       	mov.l	@(r0,r2),r2
     26c:	02 30       	.word 0x0230
     26e:	02 33       	.word 0x0233
     270:	02 35       	mov.w	r3,@(r0,r2)
     272:	02 38       	.word 0x0238
     274:	02 3a       	stc	sgr,r2
     276:	02 3d       	mov.w	@(r0,r3),r2
     278:	02 3f       	mac.l	@r3+,@r2+
     27a:	02 42       	stc	spc,r2
     27c:	02 44       	mov.b	r4,@(r0,r2)
     27e:	02 47       	mul.l	r4,r2
     280:	02 4a       	.word 0x024a
     282:	02 4c       	mov.b	@(r0,r4),r2
     284:	02 4f       	mac.l	@r4+,@r2+
     286:	02 51       	.word 0x0251
     288:	02 54       	mov.b	r5,@(r0,r2)
     28a:	02 56       	mov.l	r5,@(r0,r2)
     28c:	02 59       	.word 0x0259
     28e:	02 5b       	.word 0x025b
     290:	02 5e       	mov.l	@(r0,r5),r2
     292:	02 60       	.word 0x0260
     294:	02 63       	.word 0x0263
     296:	02 65       	mov.w	r6,@(r0,r2)
     298:	02 68       	.word 0x0268
     29a:	02 6b       	.word 0x026b
     29c:	02 6d       	mov.w	@(r0,r6),r2
     29e:	02 70       	.word 0x0270
     2a0:	02 72       	stc	r7_bank,r2
     2a2:	02 75       	mov.w	r7,@(r0,r2)
     2a4:	02 77       	mul.l	r7,r2
     2a6:	02 7a       	.word 0x027a
     2a8:	02 7c       	mov.b	@(r0,r7),r2
     2aa:	02 7f       	mac.l	@r7+,@r2+
     2ac:	02 81       	.word 0x0281
     2ae:	02 84       	mov.b	r8,@(r0,r2)
     2b0:	02 86       	mov.l	r8,@(r0,r2)
     2b2:	02 89       	.word 0x0289
     2b4:	02 8c       	mov.b	@(r0,r8),r2
     2b6:	02 8e       	mov.l	@(r0,r8),r2
     2b8:	02 91       	.word 0x0291
     2ba:	02 93       	ocbi	@r2
     2bc:	02 96       	mov.l	r9,@(r0,r2)
     2be:	02 98       	.word 0x0298
     2c0:	02 9b       	.word 0x029b
     2c2:	02 9d       	mov.w	@(r0,r9),r2
     2c4:	02 a0       	.word 0x02a0
     2c6:	02 a2       	stc	r2_bank,r2
     2c8:	02 a5       	mov.w	r10,@(r0,r2)
     2ca:	02 a7       	mul.l	r10,r2
     2cc:	02 aa       	.word 0x02aa
     2ce:	02 ad       	mov.w	@(r0,r10),r2
     2d0:	02 af       	mac.l	@r10+,@r2+
     2d2:	02 b2       	stc	r3_bank,r2
     2d4:	02 b4       	mov.b	r11,@(r0,r2)
     2d6:	02 b7       	mul.l	r11,r2
     2d8:	02 b9       	.word 0x02b9
     2da:	02 bc       	mov.b	@(r0,r11),r2
     2dc:	02 be       	mov.l	@(r0,r11),r2
     2de:	02 c1       	.word 0x02c1
     2e0:	02 c3       	movca.l	r0,@r2
     2e2:	02 c6       	mov.l	r12,@(r0,r2)
     2e4:	02 c8       	.word 0x02c8
     2e6:	02 cb       	.word 0x02cb
     2e8:	02 cd       	mov.w	@(r0,r12),r2
     2ea:	02 d0       	.word 0x02d0
     2ec:	02 d3       	.word 0x02d3
     2ee:	02 d5       	mov.w	r13,@(r0,r2)
     2f0:	02 d8       	.word 0x02d8
     2f2:	02 da       	.word 0x02da
     2f4:	02 dd       	mov.w	@(r0,r13),r2
     2f6:	02 df       	mac.l	@r13+,@r2+
     2f8:	02 e2       	stc	r6_bank,r2
     2fa:	02 e4       	mov.b	r14,@(r0,r2)
     2fc:	02 e7       	mul.l	r14,r2
     2fe:	02 e9       	.word 0x02e9
     300:	02 ec       	mov.b	@(r0,r14),r2
     302:	02 ee       	mov.l	@(r0,r14),r2
     304:	02 f1       	.word 0x02f1
     306:	02 f3       	.word 0x02f3
     308:	02 f6       	mov.l	r15,@(r0,r2)
     30a:	02 f9       	.word 0x02f9
     30c:	02 fb       	.word 0x02fb
     30e:	02 fe       	mov.l	@(r0,r15),r2
     310:	03 00       	.word 0x0300
     312:	03 03       	bsrf	r3
     314:	03 05       	mov.w	r0,@(r0,r3)
     316:	03 08       	.word 0x0308
     318:	03 0a       	sts	mach,r3
     31a:	03 0d       	mov.w	@(r0,r0),r3
     31c:	03 0f       	mac.l	@r0+,@r3+
     31e:	03 12       	stc	gbr,r3
     320:	03 14       	mov.b	r1,@(r0,r3)
     322:	03 17       	mul.l	r1,r3
     324:	03 19       	.word 0x0319
     326:	03 1c       	mov.b	@(r0,r1),r3
     328:	03 1f       	mac.l	@r1+,@r3+
     32a:	03 21       	.word 0x0321
     32c:	03 24       	mov.b	r2,@(r0,r3)
     32e:	03 26       	mov.l	r2,@(r0,r3)
     330:	03 29       	movt	r3
     332:	03 2b       	.word 0x032b
     334:	03 2e       	mov.l	@(r0,r2),r3
     336:	03 30       	.word 0x0330
     338:	03 33       	.word 0x0333
     33a:	03 35       	mov.w	r3,@(r0,r3)
     33c:	03 38       	.word 0x0338
     33e:	03 3a       	stc	sgr,r3
     340:	03 3d       	mov.w	@(r0,r3),r3
     342:	03 3f       	mac.l	@r3+,@r3+
     344:	03 42       	stc	spc,r3
     346:	03 44       	mov.b	r4,@(r0,r3)
     348:	03 47       	mul.l	r4,r3
     34a:	03 4a       	.word 0x034a
     34c:	03 4c       	mov.b	@(r0,r4),r3
     34e:	03 4f       	mac.l	@r4+,@r3+
     350:	03 51       	.word 0x0351
     352:	03 54       	mov.b	r5,@(r0,r3)
     354:	03 56       	mov.l	r5,@(r0,r3)
     356:	03 59       	.word 0x0359
     358:	03 5b       	.word 0x035b
     35a:	03 5e       	mov.l	@(r0,r5),r3
     35c:	03 60       	.word 0x0360
     35e:	03 63       	.word 0x0363
     360:	03 65       	mov.w	r6,@(r0,r3)
     362:	03 68       	.word 0x0368
     364:	03 6a       	sts	fpscr,r3
     366:	03 6d       	mov.w	@(r0,r6),r3
     368:	03 6f       	mac.l	@r6+,@r3+
     36a:	03 72       	stc	r7_bank,r3
     36c:	03 75       	mov.w	r7,@(r0,r3)
     36e:	03 77       	mul.l	r7,r3
     370:	03 7a       	.word 0x037a
     372:	03 7c       	mov.b	@(r0,r7),r3
     374:	03 7f       	mac.l	@r7+,@r3+
     376:	03 81       	.word 0x0381
     378:	03 84       	mov.b	r8,@(r0,r3)
     37a:	03 86       	mov.l	r8,@(r0,r3)
     37c:	03 89       	.word 0x0389
     37e:	03 8b       	.word 0x038b
     380:	03 8e       	mov.l	@(r0,r8),r3
     382:	03 90       	.word 0x0390
     384:	03 93       	ocbi	@r3
     386:	03 95       	mov.w	r9,@(r0,r3)
     388:	03 98       	.word 0x0398
     38a:	03 9a       	.word 0x039a
     38c:	03 9d       	mov.w	@(r0,r9),r3
     38e:	03 a0       	.word 0x03a0
     390:	03 a2       	stc	r2_bank,r3
     392:	03 a5       	mov.w	r10,@(r0,r3)
     394:	03 a7       	mul.l	r10,r3
     396:	03 aa       	.word 0x03aa
     398:	03 ac       	mov.b	@(r0,r10),r3
     39a:	03 af       	mac.l	@r10+,@r3+
     39c:	03 b1       	.word 0x03b1
     39e:	03 b4       	mov.b	r11,@(r0,r3)
     3a0:	03 b6       	mov.l	r11,@(r0,r3)
     3a2:	03 b9       	.word 0x03b9
     3a4:	03 bb       	.word 0x03bb
     3a6:	03 be       	mov.l	@(r0,r11),r3
     3a8:	03 c0       	.word 0x03c0
     3aa:	03 c3       	movca.l	r0,@r3
     3ac:	03 c5       	mov.w	r12,@(r0,r3)
     3ae:	03 c8       	.word 0x03c8
     3b0:	03 ca       	.word 0x03ca
     3b2:	03 cd       	mov.w	@(r0,r12),r3
     3b4:	03 cf       	mac.l	@r12+,@r3+
     3b6:	03 d2       	stc	r5_bank,r3
     3b8:	03 d5       	mov.w	r13,@(r0,r3)
     3ba:	03 d7       	mul.l	r13,r3
     3bc:	03 da       	.word 0x03da
     3be:	03 dc       	mov.b	@(r0,r13),r3
     3c0:	03 df       	mac.l	@r13+,@r3+
     3c2:	03 e1       	.word 0x03e1
     3c4:	03 e4       	mov.b	r14,@(r0,r3)
     3c6:	03 e6       	mov.l	r14,@(r0,r3)
     3c8:	03 e9       	.word 0x03e9
     3ca:	03 eb       	.word 0x03eb
     3cc:	03 ee       	mov.l	@(r0,r14),r3
     3ce:	03 f0       	.word 0x03f0
     3d0:	03 f3       	.word 0x03f3
     3d2:	03 f5       	mov.w	r15,@(r0,r3)
     3d4:	03 f8       	.word 0x03f8
     3d6:	03 fa       	stc	dbr,r3
     3d8:	03 fd       	mov.w	@(r0,r15),r3
     3da:	03 ff       	mac.l	@r15+,@r3+
     3dc:	04 02       	stc	sr,r4
     3de:	04 04       	mov.b	r0,@(r0,r4)
     3e0:	04 07       	mul.l	r0,r4
     3e2:	04 0a       	sts	mach,r4
     3e4:	04 0c       	mov.b	@(r0,r0),r4
     3e6:	04 0f       	mac.l	@r0+,@r4+
     3e8:	04 11       	.word 0x0411
     3ea:	04 14       	mov.b	r1,@(r0,r4)
     3ec:	04 16       	mov.l	r1,@(r0,r4)
     3ee:	04 19       	.word 0x0419
     3f0:	04 1b       	.word 0x041b
     3f2:	04 1e       	mov.l	@(r0,r1),r4
     3f4:	04 20       	.word 0x0420
     3f6:	04 23       	braf	r4
     3f8:	04 25       	mov.w	r2,@(r0,r4)
     3fa:	04 28       	.word 0x0428
     3fc:	04 2a       	sts	pr,r4
     3fe:	04 2d       	mov.w	@(r0,r2),r4
     400:	04 2f       	mac.l	@r2+,@r4+
     402:	04 32       	stc	ssr,r4
     404:	04 34       	mov.b	r3,@(r0,r4)
     406:	04 37       	mul.l	r3,r4
     408:	04 39       	.word 0x0439
     40a:	04 3c       	mov.b	@(r0,r3),r4
     40c:	04 3e       	mov.l	@(r0,r3),r4
     40e:	04 41       	.word 0x0441
     410:	04 43       	.word 0x0443
     412:	04 46       	mov.l	r4,@(r0,r4)
     414:	04 49       	.word 0x0449
     416:	04 4b       	.word 0x044b
     418:	04 4e       	mov.l	@(r0,r4),r4
     41a:	04 50       	.word 0x0450
     41c:	04 53       	.word 0x0453
     41e:	04 55       	mov.w	r5,@(r0,r4)
     420:	04 58       	.word 0x0458
     422:	04 5a       	sts	fpul,r4
     424:	04 5d       	mov.w	@(r0,r5),r4
     426:	04 5f       	mac.l	@r5+,@r4+
     428:	04 62       	stc	r6_bank,r4
     42a:	04 64       	mov.b	r6,@(r0,r4)
     42c:	04 67       	mul.l	r6,r4
     42e:	04 69       	.word 0x0469
     430:	04 6c       	mov.b	@(r0,r6),r4
     432:	04 6e       	mov.l	@(r0,r6),r4
     434:	04 71       	.word 0x0471
     436:	04 73       	.word 0x0473
     438:	04 76       	mov.l	r7,@(r0,r4)
     43a:	04 78       	.word 0x0478
     43c:	04 7b       	.word 0x047b
     43e:	04 7d       	mov.w	@(r0,r7),r4
     440:	04 80       	.word 0x0480
     442:	04 82       	stc	r0_bank,r4
     444:	04 85       	mov.w	r8,@(r0,r4)
     446:	04 87       	mul.l	r8,r4
     448:	04 8a       	.word 0x048a
     44a:	04 8c       	mov.b	@(r0,r8),r4
     44c:	04 8f       	mac.l	@r8+,@r4+
     44e:	04 92       	stc	r1_bank,r4
     450:	04 94       	mov.b	r9,@(r0,r4)
     452:	04 97       	mul.l	r9,r4
     454:	04 99       	.word 0x0499
     456:	04 9c       	mov.b	@(r0,r9),r4
     458:	04 9e       	mov.l	@(r0,r9),r4
     45a:	04 a1       	.word 0x04a1
     45c:	04 a3       	ocbp	@r4
     45e:	04 a6       	mov.l	r10,@(r0,r4)
     460:	04 a8       	.word 0x04a8
     462:	04 ab       	.word 0x04ab
     464:	04 ad       	mov.w	@(r0,r10),r4
     466:	04 b0       	.word 0x04b0
     468:	04 b2       	stc	r3_bank,r4
     46a:	04 b5       	mov.w	r11,@(r0,r4)
     46c:	04 b7       	mul.l	r11,r4
     46e:	04 ba       	.word 0x04ba
     470:	04 bc       	mov.b	@(r0,r11),r4
     472:	04 bf       	mac.l	@r11+,@r4+
     474:	04 c1       	.word 0x04c1
     476:	04 c4       	mov.b	r12,@(r0,r4)
     478:	04 c6       	mov.l	r12,@(r0,r4)
     47a:	04 c9       	.word 0x04c9
     47c:	04 cb       	.word 0x04cb
     47e:	04 ce       	mov.l	@(r0,r12),r4
     480:	04 d0       	.word 0x04d0
     482:	04 d3       	.word 0x04d3
     484:	04 d5       	mov.w	r13,@(r0,r4)
     486:	04 d8       	.word 0x04d8
     488:	04 da       	.word 0x04da
     48a:	04 dd       	mov.w	@(r0,r13),r4
     48c:	04 df       	mac.l	@r13+,@r4+
     48e:	04 e2       	stc	r6_bank,r4
     490:	04 e4       	mov.b	r14,@(r0,r4)
     492:	04 e7       	mul.l	r14,r4
     494:	04 e9       	.word 0x04e9
     496:	04 ec       	mov.b	@(r0,r14),r4
     498:	04 ee       	mov.l	@(r0,r14),r4
     49a:	04 f1       	.word 0x04f1
     49c:	04 f3       	.word 0x04f3
     49e:	04 f6       	mov.l	r15,@(r0,r4)
     4a0:	04 f8       	.word 0x04f8
     4a2:	04 fb       	.word 0x04fb
     4a4:	04 fe       	mov.l	@(r0,r15),r4
     4a6:	05 00       	.word 0x0500
     4a8:	05 03       	bsrf	r5
     4aa:	05 05       	mov.w	r0,@(r0,r5)
     4ac:	05 08       	.word 0x0508
     4ae:	05 0a       	sts	mach,r5
     4b0:	05 0d       	mov.w	@(r0,r0),r5
     4b2:	05 0f       	mac.l	@r0+,@r5+
     4b4:	05 12       	stc	gbr,r5
     4b6:	05 14       	mov.b	r1,@(r0,r5)
     4b8:	05 17       	mul.l	r1,r5
     4ba:	05 19       	.word 0x0519
     4bc:	05 1c       	mov.b	@(r0,r1),r5
     4be:	05 1e       	mov.l	@(r0,r1),r5
     4c0:	05 21       	.word 0x0521
     4c2:	05 23       	braf	r5
     4c4:	05 26       	mov.l	r2,@(r0,r5)
     4c6:	05 28       	.word 0x0528
     4c8:	05 2b       	.word 0x052b
     4ca:	05 2d       	mov.w	@(r0,r2),r5
     4cc:	05 30       	.word 0x0530
     4ce:	05 32       	stc	ssr,r5
     4d0:	05 35       	mov.w	r3,@(r0,r5)
     4d2:	05 37       	mul.l	r3,r5
     4d4:	05 3a       	stc	sgr,r5
     4d6:	05 3c       	mov.b	@(r0,r3),r5
     4d8:	05 3f       	mac.l	@r3+,@r5+
     4da:	05 41       	.word 0x0541
     4dc:	05 44       	mov.b	r4,@(r0,r5)
     4de:	05 46       	mov.l	r4,@(r0,r5)
     4e0:	05 49       	.word 0x0549
     4e2:	05 4b       	.word 0x054b
     4e4:	05 4e       	mov.l	@(r0,r4),r5
     4e6:	05 50       	.word 0x0550
     4e8:	05 53       	.word 0x0553
     4ea:	05 55       	mov.w	r5,@(r0,r5)
     4ec:	05 58       	.word 0x0558
     4ee:	05 5a       	sts	fpul,r5
     4f0:	05 5d       	mov.w	@(r0,r5),r5
     4f2:	05 5f       	mac.l	@r5+,@r5+
     4f4:	05 62       	stc	r6_bank,r5
     4f6:	05 64       	mov.b	r6,@(r0,r5)
     4f8:	05 67       	mul.l	r6,r5
     4fa:	05 69       	.word 0x0569
     4fc:	05 6c       	mov.b	@(r0,r6),r5
     4fe:	05 6e       	mov.l	@(r0,r6),r5
     500:	05 71       	.word 0x0571
     502:	05 73       	.word 0x0573
     504:	05 76       	mov.l	r7,@(r0,r5)
     506:	05 78       	.word 0x0578
     508:	05 7b       	.word 0x057b
     50a:	05 7d       	mov.w	@(r0,r7),r5
     50c:	05 80       	.word 0x0580
     50e:	05 82       	stc	r0_bank,r5
     510:	05 85       	mov.w	r8,@(r0,r5)
     512:	05 87       	mul.l	r8,r5
     514:	05 8a       	.word 0x058a
     516:	05 8c       	mov.b	@(r0,r8),r5
     518:	05 8f       	mac.l	@r8+,@r5+
     51a:	05 91       	.word 0x0591
     51c:	05 94       	mov.b	r9,@(r0,r5)
     51e:	05 96       	mov.l	r9,@(r0,r5)
     520:	05 99       	.word 0x0599
     522:	05 9b       	.word 0x059b
     524:	05 9e       	mov.l	@(r0,r9),r5
     526:	05 a0       	.word 0x05a0
     528:	05 a3       	ocbp	@r5
     52a:	05 a5       	mov.w	r10,@(r0,r5)
     52c:	05 a8       	.word 0x05a8
     52e:	05 aa       	.word 0x05aa
     530:	05 ad       	mov.w	@(r0,r10),r5
     532:	05 af       	mac.l	@r10+,@r5+
     534:	05 b2       	stc	r3_bank,r5
     536:	05 b4       	mov.b	r11,@(r0,r5)
     538:	05 b7       	mul.l	r11,r5
     53a:	05 b9       	.word 0x05b9
     53c:	05 bc       	mov.b	@(r0,r11),r5
     53e:	05 be       	mov.l	@(r0,r11),r5
     540:	05 c1       	.word 0x05c1
     542:	05 c3       	movca.l	r0,@r5
     544:	05 c6       	mov.l	r12,@(r0,r5)
     546:	05 c8       	.word 0x05c8
     548:	05 cb       	.word 0x05cb
     54a:	05 cd       	mov.w	@(r0,r12),r5
     54c:	05 d0       	.word 0x05d0
     54e:	05 d2       	stc	r5_bank,r5
     550:	05 d5       	mov.w	r13,@(r0,r5)
     552:	05 d7       	mul.l	r13,r5
     554:	05 da       	.word 0x05da
     556:	05 dc       	mov.b	@(r0,r13),r5
     558:	05 df       	mac.l	@r13+,@r5+
     55a:	05 e1       	.word 0x05e1
     55c:	05 e4       	mov.b	r14,@(r0,r5)
     55e:	05 e6       	mov.l	r14,@(r0,r5)
     560:	05 e9       	.word 0x05e9
     562:	05 eb       	.word 0x05eb
     564:	05 ee       	mov.l	@(r0,r14),r5
     566:	05 f0       	.word 0x05f0
     568:	05 f3       	.word 0x05f3
     56a:	05 f5       	mov.w	r15,@(r0,r5)
     56c:	05 f8       	.word 0x05f8
     56e:	05 fa       	stc	dbr,r5
     570:	05 fd       	mov.w	@(r0,r15),r5
     572:	05 ff       	mac.l	@r15+,@r5+
     574:	06 02       	stc	sr,r6
     576:	06 04       	mov.b	r0,@(r0,r6)
     578:	06 07       	mul.l	r0,r6
     57a:	06 09       	.word 0x0609
     57c:	06 0c       	mov.b	@(r0,r0),r6
     57e:	06 0e       	mov.l	@(r0,r0),r6
     580:	06 10       	.word 0x0610
     582:	06 13       	.word 0x0613
     584:	06 15       	mov.w	r1,@(r0,r6)
     586:	06 18       	.word 0x0618
     588:	06 1a       	sts	macl,r6
     58a:	06 1d       	mov.w	@(r0,r1),r6
     58c:	06 1f       	mac.l	@r1+,@r6+
     58e:	06 22       	stc	vbr,r6
     590:	06 24       	mov.b	r2,@(r0,r6)
     592:	06 27       	mul.l	r2,r6
     594:	06 29       	movt	r6
     596:	06 2c       	mov.b	@(r0,r2),r6
     598:	06 2e       	mov.l	@(r0,r2),r6
     59a:	06 31       	.word 0x0631
     59c:	06 33       	.word 0x0633
     59e:	06 36       	mov.l	r3,@(r0,r6)
     5a0:	06 38       	.word 0x0638
     5a2:	06 3b       	.word 0x063b
     5a4:	06 3d       	mov.w	@(r0,r3),r6
     5a6:	06 40       	.word 0x0640
     5a8:	06 42       	stc	spc,r6
     5aa:	06 45       	mov.w	r4,@(r0,r6)
     5ac:	06 47       	mul.l	r4,r6
     5ae:	06 4a       	.word 0x064a
     5b0:	06 4c       	mov.b	@(r0,r4),r6
     5b2:	06 4f       	mac.l	@r4+,@r6+
     5b4:	06 51       	.word 0x0651
     5b6:	06 54       	mov.b	r5,@(r0,r6)
     5b8:	06 56       	mov.l	r5,@(r0,r6)
     5ba:	06 59       	.word 0x0659
     5bc:	06 5b       	.word 0x065b
     5be:	06 5e       	mov.l	@(r0,r5),r6
     5c0:	06 60       	.word 0x0660
     5c2:	06 63       	.word 0x0663
     5c4:	06 65       	mov.w	r6,@(r0,r6)
     5c6:	06 68       	.word 0x0668
     5c8:	06 6a       	sts	fpscr,r6
     5ca:	06 6d       	mov.w	@(r0,r6),r6
     5cc:	06 6f       	mac.l	@r6+,@r6+
     5ce:	06 71       	.word 0x0671
     5d0:	06 74       	mov.b	r7,@(r0,r6)
     5d2:	06 76       	mov.l	r7,@(r0,r6)
     5d4:	06 79       	.word 0x0679
     5d6:	06 7b       	.word 0x067b
     5d8:	06 7e       	mov.l	@(r0,r7),r6
     5da:	06 80       	.word 0x0680
     5dc:	06 83       	pref	@r6
     5de:	06 85       	mov.w	r8,@(r0,r6)
     5e0:	06 88       	.word 0x0688
     5e2:	06 8a       	.word 0x068a
     5e4:	06 8d       	mov.w	@(r0,r8),r6
     5e6:	06 8f       	mac.l	@r8+,@r6+
     5e8:	06 92       	stc	r1_bank,r6
     5ea:	06 94       	mov.b	r9,@(r0,r6)
     5ec:	06 97       	mul.l	r9,r6
     5ee:	06 99       	.word 0x0699
     5f0:	06 9c       	mov.b	@(r0,r9),r6
     5f2:	06 9e       	mov.l	@(r0,r9),r6
     5f4:	06 a1       	.word 0x06a1
     5f6:	06 a3       	ocbp	@r6
     5f8:	06 a6       	mov.l	r10,@(r0,r6)
     5fa:	06 a8       	.word 0x06a8
     5fc:	06 ab       	.word 0x06ab
     5fe:	06 ad       	mov.w	@(r0,r10),r6
     600:	06 af       	mac.l	@r10+,@r6+
     602:	06 b2       	stc	r3_bank,r6
     604:	06 b4       	mov.b	r11,@(r0,r6)
     606:	06 b7       	mul.l	r11,r6
     608:	06 b9       	.word 0x06b9
     60a:	06 bc       	mov.b	@(r0,r11),r6
     60c:	06 be       	mov.l	@(r0,r11),r6
     60e:	06 c1       	.word 0x06c1
     610:	06 c3       	movca.l	r0,@r6
     612:	06 c6       	mov.l	r12,@(r0,r6)
     614:	06 c8       	.word 0x06c8
     616:	06 cb       	.word 0x06cb
     618:	06 cd       	mov.w	@(r0,r12),r6
     61a:	06 d0       	.word 0x06d0
     61c:	06 d2       	stc	r5_bank,r6
     61e:	06 d5       	mov.w	r13,@(r0,r6)
     620:	06 d7       	mul.l	r13,r6
     622:	06 da       	.word 0x06da
     624:	06 dc       	mov.b	@(r0,r13),r6
     626:	06 df       	mac.l	@r13+,@r6+
     628:	06 e1       	.word 0x06e1
     62a:	06 e4       	mov.b	r14,@(r0,r6)
     62c:	06 e6       	mov.l	r14,@(r0,r6)
     62e:	06 e8       	.word 0x06e8
     630:	06 eb       	.word 0x06eb
     632:	06 ed       	mov.w	@(r0,r14),r6
     634:	06 f0       	.word 0x06f0
     636:	06 f2       	stc	r7_bank,r6
     638:	06 f5       	mov.w	r15,@(r0,r6)
     63a:	06 f7       	mul.l	r15,r6
     63c:	06 fa       	stc	dbr,r6
     63e:	06 fc       	mov.b	@(r0,r15),r6
     640:	06 ff       	mac.l	@r15+,@r6+
     642:	07 01       	.word 0x0701
     644:	07 04       	mov.b	r0,@(r0,r7)
     646:	07 06       	mov.l	r0,@(r0,r7)
     648:	07 09       	.word 0x0709
     64a:	07 0b       	.word 0x070b
     64c:	07 0e       	mov.l	@(r0,r0),r7
     64e:	07 10       	.word 0x0710
     650:	07 12       	stc	gbr,r7
     652:	07 15       	mov.w	r1,@(r0,r7)
     654:	07 17       	mul.l	r1,r7
     656:	07 1a       	sts	macl,r7
     658:	07 1c       	mov.b	@(r0,r1),r7
     65a:	07 1f       	mac.l	@r1+,@r7+
     65c:	07 21       	.word 0x0721
     65e:	07 24       	mov.b	r2,@(r0,r7)
     660:	07 26       	mov.l	r2,@(r0,r7)
     662:	07 29       	movt	r7
     664:	07 2b       	.word 0x072b
     666:	07 2e       	mov.l	@(r0,r2),r7
     668:	07 30       	.word 0x0730
     66a:	07 33       	.word 0x0733
     66c:	07 35       	mov.w	r3,@(r0,r7)
     66e:	07 38       	.word 0x0738
     670:	07 3a       	stc	sgr,r7
     672:	07 3c       	mov.b	@(r0,r3),r7
     674:	07 3f       	mac.l	@r3+,@r7+
     676:	07 41       	.word 0x0741
     678:	07 44       	mov.b	r4,@(r0,r7)
     67a:	07 46       	mov.l	r4,@(r0,r7)
     67c:	07 49       	.word 0x0749
     67e:	07 4b       	.word 0x074b
     680:	07 4e       	mov.l	@(r0,r4),r7
     682:	07 50       	.word 0x0750
     684:	07 53       	.word 0x0753
     686:	07 55       	mov.w	r5,@(r0,r7)
     688:	07 58       	.word 0x0758
     68a:	07 5a       	sts	fpul,r7
     68c:	07 5d       	mov.w	@(r0,r5),r7
     68e:	07 5f       	mac.l	@r5+,@r7+
     690:	07 61       	.word 0x0761
     692:	07 64       	mov.b	r6,@(r0,r7)
     694:	07 66       	mov.l	r6,@(r0,r7)
     696:	07 69       	.word 0x0769
     698:	07 6b       	.word 0x076b
     69a:	07 6e       	mov.l	@(r0,r6),r7
     69c:	07 70       	.word 0x0770
     69e:	07 73       	.word 0x0773
     6a0:	07 75       	mov.w	r7,@(r0,r7)
     6a2:	07 78       	.word 0x0778
     6a4:	07 7a       	.word 0x077a
     6a6:	07 7d       	mov.w	@(r0,r7),r7
     6a8:	07 7f       	mac.l	@r7+,@r7+
     6aa:	07 81       	.word 0x0781
     6ac:	07 84       	mov.b	r8,@(r0,r7)
     6ae:	07 86       	mov.l	r8,@(r0,r7)
     6b0:	07 89       	.word 0x0789
     6b2:	07 8b       	.word 0x078b
     6b4:	07 8e       	mov.l	@(r0,r8),r7
     6b6:	07 90       	.word 0x0790
     6b8:	07 93       	ocbi	@r7
     6ba:	07 95       	mov.w	r9,@(r0,r7)
     6bc:	07 98       	.word 0x0798
     6be:	07 9a       	.word 0x079a
     6c0:	07 9d       	mov.w	@(r0,r9),r7
     6c2:	07 9f       	mac.l	@r9+,@r7+
     6c4:	07 a1       	.word 0x07a1
     6c6:	07 a4       	mov.b	r10,@(r0,r7)
     6c8:	07 a6       	mov.l	r10,@(r0,r7)
     6ca:	07 a9       	.word 0x07a9
     6cc:	07 ab       	.word 0x07ab
     6ce:	07 ae       	mov.l	@(r0,r10),r7
     6d0:	07 b0       	.word 0x07b0
     6d2:	07 b3       	ocbwb	@r7
     6d4:	07 b5       	mov.w	r11,@(r0,r7)
     6d6:	07 b8       	.word 0x07b8
     6d8:	07 ba       	.word 0x07ba
     6da:	07 bc       	mov.b	@(r0,r11),r7
     6dc:	07 bf       	mac.l	@r11+,@r7+
     6de:	07 c1       	.word 0x07c1
     6e0:	07 c4       	mov.b	r12,@(r0,r7)
     6e2:	07 c6       	mov.l	r12,@(r0,r7)
     6e4:	07 c9       	.word 0x07c9
     6e6:	07 cb       	.word 0x07cb
     6e8:	07 ce       	mov.l	@(r0,r12),r7
     6ea:	07 d0       	.word 0x07d0
     6ec:	07 d3       	.word 0x07d3
     6ee:	07 d5       	mov.w	r13,@(r0,r7)
     6f0:	07 d7       	mul.l	r13,r7
     6f2:	07 da       	.word 0x07da
     6f4:	07 dc       	mov.b	@(r0,r13),r7
     6f6:	07 df       	mac.l	@r13+,@r7+
     6f8:	07 e1       	.word 0x07e1
     6fa:	07 e4       	mov.b	r14,@(r0,r7)
     6fc:	07 e6       	mov.l	r14,@(r0,r7)
     6fe:	07 e9       	.word 0x07e9
     700:	07 eb       	.word 0x07eb
     702:	07 ee       	mov.l	@(r0,r14),r7
     704:	07 f0       	.word 0x07f0
     706:	07 f2       	stc	r7_bank,r7
     708:	07 f5       	mov.w	r15,@(r0,r7)
     70a:	07 f7       	mul.l	r15,r7
     70c:	07 fa       	stc	dbr,r7
     70e:	07 fc       	mov.b	@(r0,r15),r7
     710:	07 ff       	mac.l	@r15+,@r7+
     712:	08 01       	.word 0x0801
     714:	08 04       	mov.b	r0,@(r0,r8)
     716:	08 06       	mov.l	r0,@(r0,r8)
     718:	08 08       	.word 0x0808
     71a:	08 0b       	.word 0x080b
     71c:	08 0d       	mov.w	@(r0,r0),r8
     71e:	08 10       	.word 0x0810
     720:	08 12       	stc	gbr,r8
     722:	08 15       	mov.w	r1,@(r0,r8)
     724:	08 17       	mul.l	r1,r8
     726:	08 1a       	sts	macl,r8
     728:	08 1c       	mov.b	@(r0,r1),r8
     72a:	08 1f       	mac.l	@r1+,@r8+
     72c:	08 21       	.word 0x0821
     72e:	08 23       	braf	r8
     730:	08 26       	mov.l	r2,@(r0,r8)
     732:	08 28       	.word 0x0828
     734:	08 2b       	.word 0x082b
     736:	08 2d       	mov.w	@(r0,r2),r8
     738:	08 30       	.word 0x0830
     73a:	08 32       	stc	ssr,r8
     73c:	08 35       	mov.w	r3,@(r0,r8)
     73e:	08 37       	mul.l	r3,r8
     740:	08 39       	.word 0x0839
     742:	08 3c       	mov.b	@(r0,r3),r8
     744:	08 3e       	mov.l	@(r0,r3),r8
     746:	08 41       	.word 0x0841
     748:	08 43       	.word 0x0843
     74a:	08 46       	mov.l	r4,@(r0,r8)
     74c:	08 48       	.word 0x0848
     74e:	08 4b       	.word 0x084b
     750:	08 4d       	mov.w	@(r0,r4),r8
     752:	08 4f       	mac.l	@r4+,@r8+
     754:	08 52       	stc	r5_bank,r8
     756:	08 54       	mov.b	r5,@(r0,r8)
     758:	08 57       	mul.l	r5,r8
     75a:	08 59       	.word 0x0859
     75c:	08 5c       	mov.b	@(r0,r5),r8
     75e:	08 5e       	mov.l	@(r0,r5),r8
     760:	08 60       	.word 0x0860
     762:	08 63       	.word 0x0863
     764:	08 65       	mov.w	r6,@(r0,r8)
     766:	08 68       	.word 0x0868
     768:	08 6a       	sts	fpscr,r8
     76a:	08 6d       	mov.w	@(r0,r6),r8
     76c:	08 6f       	mac.l	@r6+,@r8+
     76e:	08 72       	stc	r7_bank,r8
     770:	08 74       	mov.b	r7,@(r0,r8)
     772:	08 76       	mov.l	r7,@(r0,r8)
     774:	08 79       	.word 0x0879
     776:	08 7b       	.word 0x087b
     778:	08 7e       	mov.l	@(r0,r7),r8
     77a:	08 80       	.word 0x0880
     77c:	08 83       	pref	@r8
     77e:	08 85       	mov.w	r8,@(r0,r8)
     780:	08 87       	mul.l	r8,r8
     782:	08 8a       	.word 0x088a
     784:	08 8c       	mov.b	@(r0,r8),r8
     786:	08 8f       	mac.l	@r8+,@r8+
     788:	08 91       	.word 0x0891
     78a:	08 94       	mov.b	r9,@(r0,r8)
     78c:	08 96       	mov.l	r9,@(r0,r8)
     78e:	08 99       	.word 0x0899
     790:	08 9b       	.word 0x089b
     792:	08 9d       	mov.w	@(r0,r9),r8
     794:	08 a0       	.word 0x08a0
     796:	08 a2       	stc	r2_bank,r8
     798:	08 a5       	mov.w	r10,@(r0,r8)
     79a:	08 a7       	mul.l	r10,r8
     79c:	08 aa       	.word 0x08aa
     79e:	08 ac       	mov.b	@(r0,r10),r8
     7a0:	08 ae       	mov.l	@(r0,r10),r8
     7a2:	08 b1       	.word 0x08b1
     7a4:	08 b3       	ocbwb	@r8
     7a6:	08 b6       	mov.l	r11,@(r0,r8)
     7a8:	08 b8       	.word 0x08b8
     7aa:	08 bb       	.word 0x08bb
     7ac:	08 bd       	mov.w	@(r0,r11),r8
     7ae:	08 bf       	mac.l	@r11+,@r8+
     7b0:	08 c2       	stc	r4_bank,r8
     7b2:	08 c4       	mov.b	r12,@(r0,r8)
     7b4:	08 c7       	mul.l	r12,r8
     7b6:	08 c9       	.word 0x08c9
     7b8:	08 cc       	mov.b	@(r0,r12),r8
     7ba:	08 ce       	mov.l	@(r0,r12),r8
     7bc:	08 d0       	.word 0x08d0
     7be:	08 d3       	.word 0x08d3
     7c0:	08 d5       	mov.w	r13,@(r0,r8)
     7c2:	08 d8       	.word 0x08d8
     7c4:	08 da       	.word 0x08da
     7c6:	08 dd       	mov.w	@(r0,r13),r8
     7c8:	08 df       	mac.l	@r13+,@r8+
     7ca:	08 e1       	.word 0x08e1
     7cc:	08 e4       	mov.b	r14,@(r0,r8)
     7ce:	08 e6       	mov.l	r14,@(r0,r8)
     7d0:	08 e9       	.word 0x08e9
     7d2:	08 eb       	.word 0x08eb
     7d4:	08 ee       	mov.l	@(r0,r14),r8
     7d6:	08 f0       	.word 0x08f0
     7d8:	08 f2       	stc	r7_bank,r8
     7da:	08 f5       	mov.w	r15,@(r0,r8)
     7dc:	08 f7       	mul.l	r15,r8
     7de:	08 fa       	stc	dbr,r8
     7e0:	08 fc       	mov.b	@(r0,r15),r8
     7e2:	08 ff       	mac.l	@r15+,@r8+
     7e4:	09 01       	.word 0x0901
     7e6:	09 03       	bsrf	r9
     7e8:	09 06       	mov.l	r0,@(r0,r9)
     7ea:	09 08       	.word 0x0908
     7ec:	09 0b       	.word 0x090b
     7ee:	09 0d       	mov.w	@(r0,r0),r9
     7f0:	09 10       	.word 0x0910
     7f2:	09 12       	stc	gbr,r9
     7f4:	09 14       	mov.b	r1,@(r0,r9)
     7f6:	09 17       	mul.l	r1,r9
     7f8:	09 19       	.word 0x0919
     7fa:	09 1c       	mov.b	@(r0,r1),r9
     7fc:	09 1e       	mov.l	@(r0,r1),r9
     7fe:	09 21       	.word 0x0921
     800:	09 23       	braf	r9
     802:	09 25       	mov.w	r2,@(r0,r9)
     804:	09 28       	.word 0x0928
     806:	09 2a       	sts	pr,r9
     808:	09 2d       	mov.w	@(r0,r2),r9
     80a:	09 2f       	mac.l	@r2+,@r9+
     80c:	09 31       	.word 0x0931
     80e:	09 34       	mov.b	r3,@(r0,r9)
     810:	09 36       	mov.l	r3,@(r0,r9)
     812:	09 39       	.word 0x0939
     814:	09 3b       	.word 0x093b
     816:	09 3e       	mov.l	@(r0,r3),r9
     818:	09 40       	.word 0x0940
     81a:	09 42       	stc	spc,r9
     81c:	09 45       	mov.w	r4,@(r0,r9)
     81e:	09 47       	mul.l	r4,r9
     820:	09 4a       	.word 0x094a
     822:	09 4c       	mov.b	@(r0,r4),r9
     824:	09 4e       	mov.l	@(r0,r4),r9
     826:	09 51       	.word 0x0951
     828:	09 53       	.word 0x0953
     82a:	09 56       	mov.l	r5,@(r0,r9)
     82c:	09 58       	.word 0x0958
     82e:	09 5b       	.word 0x095b
     830:	09 5d       	mov.w	@(r0,r5),r9
     832:	09 5f       	mac.l	@r5+,@r9+
     834:	09 62       	stc	r6_bank,r9
     836:	09 64       	mov.b	r6,@(r0,r9)
     838:	09 67       	mul.l	r6,r9
     83a:	09 69       	.word 0x0969
     83c:	09 6b       	.word 0x096b
     83e:	09 6e       	mov.l	@(r0,r6),r9
     840:	09 70       	.word 0x0970
     842:	09 73       	.word 0x0973
     844:	09 75       	mov.w	r7,@(r0,r9)
     846:	09 77       	mul.l	r7,r9
     848:	09 7a       	.word 0x097a
     84a:	09 7c       	mov.b	@(r0,r7),r9
     84c:	09 7f       	mac.l	@r7+,@r9+
     84e:	09 81       	.word 0x0981
     850:	09 84       	mov.b	r8,@(r0,r9)
     852:	09 86       	mov.l	r8,@(r0,r9)
     854:	09 88       	.word 0x0988
     856:	09 8b       	.word 0x098b
     858:	09 8d       	mov.w	@(r0,r8),r9
     85a:	09 90       	.word 0x0990
     85c:	09 92       	stc	r1_bank,r9
     85e:	09 94       	mov.b	r9,@(r0,r9)
     860:	09 97       	mul.l	r9,r9
     862:	09 99       	.word 0x0999
     864:	09 9c       	mov.b	@(r0,r9),r9
     866:	09 9e       	mov.l	@(r0,r9),r9
     868:	09 a0       	.word 0x09a0
     86a:	09 a3       	ocbp	@r9
     86c:	09 a5       	mov.w	r10,@(r0,r9)
     86e:	09 a8       	.word 0x09a8
     870:	09 aa       	.word 0x09aa
     872:	09 ac       	mov.b	@(r0,r10),r9
     874:	09 af       	mac.l	@r10+,@r9+
     876:	09 b1       	.word 0x09b1
     878:	09 b4       	mov.b	r11,@(r0,r9)
     87a:	09 b6       	mov.l	r11,@(r0,r9)
     87c:	09 b9       	.word 0x09b9
     87e:	09 bb       	.word 0x09bb
     880:	09 bd       	mov.w	@(r0,r11),r9
     882:	09 c0       	.word 0x09c0
     884:	09 c2       	stc	r4_bank,r9
     886:	09 c5       	mov.w	r12,@(r0,r9)
     888:	09 c7       	mul.l	r12,r9
     88a:	09 c9       	.word 0x09c9
     88c:	09 cc       	mov.b	@(r0,r12),r9
     88e:	09 ce       	mov.l	@(r0,r12),r9
     890:	09 d1       	.word 0x09d1
     892:	09 d3       	.word 0x09d3
     894:	09 d5       	mov.w	r13,@(r0,r9)
     896:	09 d8       	.word 0x09d8
     898:	09 da       	.word 0x09da
     89a:	09 dd       	mov.w	@(r0,r13),r9
     89c:	09 df       	mac.l	@r13+,@r9+
     89e:	09 e1       	.word 0x09e1
     8a0:	09 e4       	mov.b	r14,@(r0,r9)
     8a2:	09 e6       	mov.l	r14,@(r0,r9)
     8a4:	09 e9       	.word 0x09e9
     8a6:	09 eb       	.word 0x09eb
     8a8:	09 ed       	mov.w	@(r0,r14),r9
     8aa:	09 f0       	.word 0x09f0
     8ac:	09 f2       	stc	r7_bank,r9
     8ae:	09 f5       	mov.w	r15,@(r0,r9)
     8b0:	09 f7       	mul.l	r15,r9
     8b2:	09 f9       	.word 0x09f9
     8b4:	09 fc       	mov.b	@(r0,r15),r9
     8b6:	09 fe       	mov.l	@(r0,r15),r9
     8b8:	0a 01       	.word 0x0a01
     8ba:	0a 03       	bsrf	r10
     8bc:	0a 05       	mov.w	r0,@(r0,r10)
     8be:	0a 08       	.word 0x0a08
     8c0:	0a 0a       	sts	mach,r10
     8c2:	0a 0c       	mov.b	@(r0,r0),r10
     8c4:	0a 0f       	mac.l	@r0+,@r10+
     8c6:	0a 11       	.word 0x0a11
     8c8:	0a 14       	mov.b	r1,@(r0,r10)
     8ca:	0a 16       	mov.l	r1,@(r0,r10)
     8cc:	0a 18       	.word 0x0a18
     8ce:	0a 1b       	.word 0x0a1b
     8d0:	0a 1d       	mov.w	@(r0,r1),r10
     8d2:	0a 20       	.word 0x0a20
     8d4:	0a 22       	stc	vbr,r10
     8d6:	0a 24       	mov.b	r2,@(r0,r10)
     8d8:	0a 27       	mul.l	r2,r10
     8da:	0a 29       	movt	r10
     8dc:	0a 2c       	mov.b	@(r0,r2),r10
     8de:	0a 2e       	mov.l	@(r0,r2),r10
     8e0:	0a 30       	.word 0x0a30
     8e2:	0a 33       	.word 0x0a33
     8e4:	0a 35       	mov.w	r3,@(r0,r10)
     8e6:	0a 38       	.word 0x0a38
     8e8:	0a 3a       	stc	sgr,r10
     8ea:	0a 3c       	mov.b	@(r0,r3),r10
     8ec:	0a 3f       	mac.l	@r3+,@r10+
     8ee:	0a 41       	.word 0x0a41
     8f0:	0a 43       	.word 0x0a43
     8f2:	0a 46       	mov.l	r4,@(r0,r10)
     8f4:	0a 48       	.word 0x0a48
     8f6:	0a 4b       	.word 0x0a4b
     8f8:	0a 4d       	mov.w	@(r0,r4),r10
     8fa:	0a 4f       	mac.l	@r4+,@r10+
     8fc:	0a 52       	stc	r5_bank,r10
     8fe:	0a 54       	mov.b	r5,@(r0,r10)
     900:	0a 57       	mul.l	r5,r10
     902:	0a 59       	.word 0x0a59
     904:	0a 5b       	.word 0x0a5b
     906:	0a 5e       	mov.l	@(r0,r5),r10
     908:	0a 60       	.word 0x0a60
     90a:	0a 63       	.word 0x0a63
     90c:	0a 65       	mov.w	r6,@(r0,r10)
     90e:	0a 67       	mul.l	r6,r10
     910:	0a 6a       	sts	fpscr,r10
     912:	0a 6c       	mov.b	@(r0,r6),r10
     914:	0a 6e       	mov.l	@(r0,r6),r10
     916:	0a 71       	.word 0x0a71
     918:	0a 73       	.word 0x0a73
     91a:	0a 76       	mov.l	r7,@(r0,r10)
     91c:	0a 78       	.word 0x0a78
     91e:	0a 7a       	.word 0x0a7a
     920:	0a 7d       	mov.w	@(r0,r7),r10
     922:	0a 7f       	mac.l	@r7+,@r10+
     924:	0a 81       	.word 0x0a81
     926:	0a 84       	mov.b	r8,@(r0,r10)
     928:	0a 86       	mov.l	r8,@(r0,r10)
     92a:	0a 89       	.word 0x0a89
     92c:	0a 8b       	.word 0x0a8b
     92e:	0a 8d       	mov.w	@(r0,r8),r10
     930:	0a 90       	.word 0x0a90
     932:	0a 92       	stc	r1_bank,r10
     934:	0a 95       	mov.w	r9,@(r0,r10)
     936:	0a 97       	mul.l	r9,r10
     938:	0a 99       	.word 0x0a99
     93a:	0a 9c       	mov.b	@(r0,r9),r10
     93c:	0a 9e       	mov.l	@(r0,r9),r10
     93e:	0a a0       	.word 0x0aa0
     940:	0a a3       	ocbp	@r10
     942:	0a a5       	mov.w	r10,@(r0,r10)
     944:	0a a8       	.word 0x0aa8
     946:	0a aa       	.word 0x0aaa
     948:	0a ac       	mov.b	@(r0,r10),r10
     94a:	0a af       	mac.l	@r10+,@r10+
     94c:	0a b1       	.word 0x0ab1
     94e:	0a b3       	ocbwb	@r10
     950:	0a b6       	mov.l	r11,@(r0,r10)
     952:	0a b8       	.word 0x0ab8
     954:	0a bb       	.word 0x0abb
     956:	0a bd       	mov.w	@(r0,r11),r10
     958:	0a bf       	mac.l	@r11+,@r10+
     95a:	0a c2       	stc	r4_bank,r10
     95c:	0a c4       	mov.b	r12,@(r0,r10)
     95e:	0a c6       	mov.l	r12,@(r0,r10)
     960:	0a c9       	.word 0x0ac9
     962:	0a cb       	.word 0x0acb
     964:	0a ce       	mov.l	@(r0,r12),r10
     966:	0a d0       	.word 0x0ad0
     968:	0a d2       	stc	r5_bank,r10
     96a:	0a d5       	mov.w	r13,@(r0,r10)
     96c:	0a d7       	mul.l	r13,r10
     96e:	0a d9       	.word 0x0ad9
     970:	0a dc       	mov.b	@(r0,r13),r10
     972:	0a de       	mov.l	@(r0,r13),r10
     974:	0a e1       	.word 0x0ae1
     976:	0a e3       	.word 0x0ae3
     978:	0a e5       	mov.w	r14,@(r0,r10)
     97a:	0a e8       	.word 0x0ae8
     97c:	0a ea       	.word 0x0aea
     97e:	0a ec       	mov.b	@(r0,r14),r10
     980:	0a ef       	mac.l	@r14+,@r10+
     982:	0a f1       	.word 0x0af1
     984:	0a f3       	.word 0x0af3
     986:	0a f6       	mov.l	r15,@(r0,r10)
     988:	0a f8       	.word 0x0af8
     98a:	0a fb       	.word 0x0afb
     98c:	0a fd       	mov.w	@(r0,r15),r10
     98e:	0a ff       	mac.l	@r15+,@r10+
     990:	0b 02       	stc	sr,r11
     992:	0b 04       	mov.b	r0,@(r0,r11)
     994:	0b 06       	mov.l	r0,@(r0,r11)
     996:	0b 09       	.word 0x0b09
     998:	0b 0b       	.word 0x0b0b
     99a:	0b 0d       	mov.w	@(r0,r0),r11
     99c:	0b 10       	.word 0x0b10
     99e:	0b 12       	stc	gbr,r11
     9a0:	0b 15       	mov.w	r1,@(r0,r11)
     9a2:	0b 17       	mul.l	r1,r11
     9a4:	0b 19       	.word 0x0b19
     9a6:	0b 1c       	mov.b	@(r0,r1),r11
     9a8:	0b 1e       	mov.l	@(r0,r1),r11
     9aa:	0b 20       	.word 0x0b20
     9ac:	0b 23       	braf	r11
     9ae:	0b 25       	mov.w	r2,@(r0,r11)
     9b0:	0b 27       	mul.l	r2,r11
     9b2:	0b 2a       	sts	pr,r11
     9b4:	0b 2c       	mov.b	@(r0,r2),r11
     9b6:	0b 2f       	mac.l	@r2+,@r11+
     9b8:	0b 31       	.word 0x0b31
     9ba:	0b 33       	.word 0x0b33
     9bc:	0b 36       	mov.l	r3,@(r0,r11)
     9be:	0b 38       	.word 0x0b38
     9c0:	0b 3a       	stc	sgr,r11
     9c2:	0b 3d       	mov.w	@(r0,r3),r11
     9c4:	0b 3f       	mac.l	@r3+,@r11+
     9c6:	0b 41       	.word 0x0b41
     9c8:	0b 44       	mov.b	r4,@(r0,r11)
     9ca:	0b 46       	mov.l	r4,@(r0,r11)
     9cc:	0b 48       	.word 0x0b48
     9ce:	0b 4b       	.word 0x0b4b
     9d0:	0b 4d       	mov.w	@(r0,r4),r11
     9d2:	0b 50       	.word 0x0b50
     9d4:	0b 52       	stc	r5_bank,r11
     9d6:	0b 54       	mov.b	r5,@(r0,r11)
     9d8:	0b 57       	mul.l	r5,r11
     9da:	0b 59       	.word 0x0b59
     9dc:	0b 5b       	.word 0x0b5b
     9de:	0b 5e       	mov.l	@(r0,r5),r11
     9e0:	0b 60       	.word 0x0b60
     9e2:	0b 62       	stc	r6_bank,r11
     9e4:	0b 65       	mov.w	r6,@(r0,r11)
     9e6:	0b 67       	mul.l	r6,r11
     9e8:	0b 69       	.word 0x0b69
     9ea:	0b 6c       	mov.b	@(r0,r6),r11
     9ec:	0b 6e       	mov.l	@(r0,r6),r11
     9ee:	0b 70       	.word 0x0b70
     9f0:	0b 73       	.word 0x0b73
     9f2:	0b 75       	mov.w	r7,@(r0,r11)
     9f4:	0b 78       	.word 0x0b78
     9f6:	0b 7a       	.word 0x0b7a
     9f8:	0b 7c       	mov.b	@(r0,r7),r11
     9fa:	0b 7f       	mac.l	@r7+,@r11+
     9fc:	0b 81       	.word 0x0b81
     9fe:	0b 83       	pref	@r11
     a00:	0b 86       	mov.l	r8,@(r0,r11)
     a02:	0b 88       	.word 0x0b88
     a04:	0b 8a       	.word 0x0b8a
     a06:	0b 8d       	mov.w	@(r0,r8),r11
     a08:	0b 8f       	mac.l	@r8+,@r11+
     a0a:	0b 91       	.word 0x0b91
     a0c:	0b 94       	mov.b	r9,@(r0,r11)
     a0e:	0b 96       	mov.l	r9,@(r0,r11)
     a10:	0b 98       	.word 0x0b98
     a12:	0b 9b       	.word 0x0b9b
     a14:	0b 9d       	mov.w	@(r0,r9),r11
     a16:	0b 9f       	mac.l	@r9+,@r11+
     a18:	0b a2       	stc	r2_bank,r11
     a1a:	0b a4       	mov.b	r10,@(r0,r11)
     a1c:	0b a6       	mov.l	r10,@(r0,r11)
     a1e:	0b a9       	.word 0x0ba9
     a20:	0b ab       	.word 0x0bab
     a22:	0b ae       	mov.l	@(r0,r10),r11
     a24:	0b b0       	.word 0x0bb0
     a26:	0b b2       	stc	r3_bank,r11
     a28:	0b b5       	mov.w	r11,@(r0,r11)
     a2a:	0b b7       	mul.l	r11,r11
     a2c:	0b b9       	.word 0x0bb9
     a2e:	0b bc       	mov.b	@(r0,r11),r11
     a30:	0b be       	mov.l	@(r0,r11),r11
     a32:	0b c0       	.word 0x0bc0
     a34:	0b c3       	movca.l	r0,@r11
     a36:	0b c5       	mov.w	r12,@(r0,r11)
     a38:	0b c7       	mul.l	r12,r11
     a3a:	0b ca       	.word 0x0bca
     a3c:	0b cc       	mov.b	@(r0,r12),r11
     a3e:	0b ce       	mov.l	@(r0,r12),r11
     a40:	0b d1       	.word 0x0bd1
     a42:	0b d3       	.word 0x0bd3
     a44:	0b d5       	mov.w	r13,@(r0,r11)
     a46:	0b d8       	.word 0x0bd8
     a48:	0b da       	.word 0x0bda
     a4a:	0b dc       	mov.b	@(r0,r13),r11
     a4c:	0b df       	mac.l	@r13+,@r11+
     a4e:	0b e1       	.word 0x0be1
     a50:	0b e3       	.word 0x0be3
     a52:	0b e6       	mov.l	r14,@(r0,r11)
     a54:	0b e8       	.word 0x0be8
     a56:	0b ea       	.word 0x0bea
     a58:	0b ed       	mov.w	@(r0,r14),r11
     a5a:	0b ef       	mac.l	@r14+,@r11+
     a5c:	0b f1       	.word 0x0bf1
     a5e:	0b f4       	mov.b	r15,@(r0,r11)
     a60:	0b f6       	mov.l	r15,@(r0,r11)
     a62:	0b f8       	.word 0x0bf8
     a64:	0b fb       	.word 0x0bfb
     a66:	0b fd       	mov.w	@(r0,r15),r11
     a68:	0b ff       	mac.l	@r15+,@r11+
     a6a:	0c 02       	stc	sr,r12
     a6c:	0c 04       	mov.b	r0,@(r0,r12)
     a6e:	0c 06       	mov.l	r0,@(r0,r12)
     a70:	0c 09       	.word 0x0c09
     a72:	0c 0b       	.word 0x0c0b
     a74:	0c 0d       	mov.w	@(r0,r0),r12
     a76:	0c 10       	.word 0x0c10
     a78:	0c 12       	stc	gbr,r12
     a7a:	0c 14       	mov.b	r1,@(r0,r12)
     a7c:	0c 17       	mul.l	r1,r12
     a7e:	0c 19       	.word 0x0c19
     a80:	0c 1b       	.word 0x0c1b
     a82:	0c 1e       	mov.l	@(r0,r1),r12
     a84:	0c 20       	.word 0x0c20
     a86:	0c 22       	stc	vbr,r12
     a88:	0c 25       	mov.w	r2,@(r0,r12)
     a8a:	0c 27       	mul.l	r2,r12
     a8c:	0c 29       	movt	r12
     a8e:	0c 2c       	mov.b	@(r0,r2),r12
     a90:	0c 2e       	mov.l	@(r0,r2),r12
     a92:	0c 30       	.word 0x0c30
     a94:	0c 33       	.word 0x0c33
     a96:	0c 35       	mov.w	r3,@(r0,r12)
     a98:	0c 37       	mul.l	r3,r12
     a9a:	0c 3a       	stc	sgr,r12
     a9c:	0c 3c       	mov.b	@(r0,r3),r12
     a9e:	0c 3e       	mov.l	@(r0,r3),r12
     aa0:	0c 40       	.word 0x0c40
     aa2:	0c 43       	.word 0x0c43
     aa4:	0c 45       	mov.w	r4,@(r0,r12)
     aa6:	0c 47       	mul.l	r4,r12
     aa8:	0c 4a       	.word 0x0c4a
     aaa:	0c 4c       	mov.b	@(r0,r4),r12
     aac:	0c 4e       	mov.l	@(r0,r4),r12
     aae:	0c 51       	.word 0x0c51
     ab0:	0c 53       	.word 0x0c53
     ab2:	0c 55       	mov.w	r5,@(r0,r12)
     ab4:	0c 58       	.word 0x0c58
     ab6:	0c 5a       	sts	fpul,r12
     ab8:	0c 5c       	mov.b	@(r0,r5),r12
     aba:	0c 5f       	mac.l	@r5+,@r12+
     abc:	0c 61       	.word 0x0c61
     abe:	0c 63       	.word 0x0c63
     ac0:	0c 66       	mov.l	r6,@(r0,r12)
     ac2:	0c 68       	.word 0x0c68
     ac4:	0c 6a       	sts	fpscr,r12
     ac6:	0c 6d       	mov.w	@(r0,r6),r12
     ac8:	0c 6f       	mac.l	@r6+,@r12+
     aca:	0c 71       	.word 0x0c71
     acc:	0c 74       	mov.b	r7,@(r0,r12)
     ace:	0c 76       	mov.l	r7,@(r0,r12)
     ad0:	0c 78       	.word 0x0c78
     ad2:	0c 7a       	.word 0x0c7a
     ad4:	0c 7d       	mov.w	@(r0,r7),r12
     ad6:	0c 7f       	mac.l	@r7+,@r12+
     ad8:	0c 81       	.word 0x0c81
     ada:	0c 84       	mov.b	r8,@(r0,r12)
     adc:	0c 86       	mov.l	r8,@(r0,r12)
     ade:	0c 88       	.word 0x0c88
     ae0:	0c 8b       	.word 0x0c8b
     ae2:	0c 8d       	mov.w	@(r0,r8),r12
     ae4:	0c 8f       	mac.l	@r8+,@r12+
     ae6:	0c 92       	stc	r1_bank,r12
     ae8:	0c 94       	mov.b	r9,@(r0,r12)
     aea:	0c 96       	mov.l	r9,@(r0,r12)
     aec:	0c 99       	.word 0x0c99
     aee:	0c 9b       	.word 0x0c9b
     af0:	0c 9d       	mov.w	@(r0,r9),r12
     af2:	0c 9f       	mac.l	@r9+,@r12+
     af4:	0c a2       	stc	r2_bank,r12
     af6:	0c a4       	mov.b	r10,@(r0,r12)
     af8:	0c a6       	mov.l	r10,@(r0,r12)
     afa:	0c a9       	.word 0x0ca9
     afc:	0c ab       	.word 0x0cab
     afe:	0c ad       	mov.w	@(r0,r10),r12
     b00:	0c b0       	.word 0x0cb0
     b02:	0c b2       	stc	r3_bank,r12
     b04:	0c b4       	mov.b	r11,@(r0,r12)
     b06:	0c b7       	mul.l	r11,r12
     b08:	0c b9       	.word 0x0cb9
     b0a:	0c bb       	.word 0x0cbb
     b0c:	0c bd       	mov.w	@(r0,r11),r12
     b0e:	0c c0       	.word 0x0cc0
     b10:	0c c2       	stc	r4_bank,r12
     b12:	0c c4       	mov.b	r12,@(r0,r12)
     b14:	0c c7       	mul.l	r12,r12
     b16:	0c c9       	.word 0x0cc9
     b18:	0c cb       	.word 0x0ccb
     b1a:	0c ce       	mov.l	@(r0,r12),r12
     b1c:	0c d0       	.word 0x0cd0
     b1e:	0c d2       	stc	r5_bank,r12
     b20:	0c d5       	mov.w	r13,@(r0,r12)
     b22:	0c d7       	mul.l	r13,r12
     b24:	0c d9       	.word 0x0cd9
     b26:	0c db       	.word 0x0cdb
     b28:	0c de       	mov.l	@(r0,r13),r12
     b2a:	0c e0       	.word 0x0ce0
     b2c:	0c e2       	stc	r6_bank,r12
     b2e:	0c e5       	mov.w	r14,@(r0,r12)
     b30:	0c e7       	mul.l	r14,r12
     b32:	0c e9       	.word 0x0ce9
     b34:	0c ec       	mov.b	@(r0,r14),r12
     b36:	0c ee       	mov.l	@(r0,r14),r12
     b38:	0c f0       	.word 0x0cf0
     b3a:	0c f2       	stc	r7_bank,r12
     b3c:	0c f5       	mov.w	r15,@(r0,r12)
     b3e:	0c f7       	mul.l	r15,r12
     b40:	0c f9       	.word 0x0cf9
     b42:	0c fc       	mov.b	@(r0,r15),r12
     b44:	0c fe       	mov.l	@(r0,r15),r12
     b46:	0d 00       	.word 0x0d00
     b48:	0d 02       	stc	sr,r13
     b4a:	0d 05       	mov.w	r0,@(r0,r13)
     b4c:	0d 07       	mul.l	r0,r13
     b4e:	0d 09       	.word 0x0d09
     b50:	0d 0c       	mov.b	@(r0,r0),r13
     b52:	0d 0e       	mov.l	@(r0,r0),r13
     b54:	0d 10       	.word 0x0d10
     b56:	0d 13       	.word 0x0d13
     b58:	0d 15       	mov.w	r1,@(r0,r13)
     b5a:	0d 17       	mul.l	r1,r13
     b5c:	0d 19       	.word 0x0d19
     b5e:	0d 1c       	mov.b	@(r0,r1),r13
     b60:	0d 1e       	mov.l	@(r0,r1),r13
     b62:	0d 20       	.word 0x0d20
     b64:	0d 23       	braf	r13
     b66:	0d 25       	mov.w	r2,@(r0,r13)
     b68:	0d 27       	mul.l	r2,r13
     b6a:	0d 29       	movt	r13
     b6c:	0d 2c       	mov.b	@(r0,r2),r13
     b6e:	0d 2e       	mov.l	@(r0,r2),r13
     b70:	0d 30       	.word 0x0d30
     b72:	0d 33       	.word 0x0d33
     b74:	0d 35       	mov.w	r3,@(r0,r13)
     b76:	0d 37       	mul.l	r3,r13
     b78:	0d 39       	.word 0x0d39
     b7a:	0d 3c       	mov.b	@(r0,r3),r13
     b7c:	0d 3e       	mov.l	@(r0,r3),r13
     b7e:	0d 40       	.word 0x0d40
     b80:	0d 43       	.word 0x0d43
     b82:	0d 45       	mov.w	r4,@(r0,r13)
     b84:	0d 47       	mul.l	r4,r13
     b86:	0d 49       	.word 0x0d49
     b88:	0d 4c       	mov.b	@(r0,r4),r13
     b8a:	0d 4e       	mov.l	@(r0,r4),r13
     b8c:	0d 50       	.word 0x0d50
     b8e:	0d 53       	.word 0x0d53
     b90:	0d 55       	mov.w	r5,@(r0,r13)
     b92:	0d 57       	mul.l	r5,r13
     b94:	0d 59       	.word 0x0d59
     b96:	0d 5c       	mov.b	@(r0,r5),r13
     b98:	0d 5e       	mov.l	@(r0,r5),r13
     b9a:	0d 60       	.word 0x0d60
     b9c:	0d 63       	.word 0x0d63
     b9e:	0d 65       	mov.w	r6,@(r0,r13)
     ba0:	0d 67       	mul.l	r6,r13
     ba2:	0d 69       	.word 0x0d69
     ba4:	0d 6c       	mov.b	@(r0,r6),r13
     ba6:	0d 6e       	mov.l	@(r0,r6),r13
     ba8:	0d 70       	.word 0x0d70
     baa:	0d 73       	.word 0x0d73
     bac:	0d 75       	mov.w	r7,@(r0,r13)
     bae:	0d 77       	mul.l	r7,r13
     bb0:	0d 79       	.word 0x0d79
     bb2:	0d 7c       	mov.b	@(r0,r7),r13
     bb4:	0d 7e       	mov.l	@(r0,r7),r13
     bb6:	0d 80       	.word 0x0d80
     bb8:	0d 83       	pref	@r13
     bba:	0d 85       	mov.w	r8,@(r0,r13)
     bbc:	0d 87       	mul.l	r8,r13
     bbe:	0d 89       	.word 0x0d89
     bc0:	0d 8c       	mov.b	@(r0,r8),r13
     bc2:	0d 8e       	mov.l	@(r0,r8),r13
     bc4:	0d 90       	.word 0x0d90
     bc6:	0d 92       	stc	r1_bank,r13
     bc8:	0d 95       	mov.w	r9,@(r0,r13)
     bca:	0d 97       	mul.l	r9,r13
     bcc:	0d 99       	.word 0x0d99
     bce:	0d 9c       	mov.b	@(r0,r9),r13
     bd0:	0d 9e       	mov.l	@(r0,r9),r13
     bd2:	0d a0       	.word 0x0da0
     bd4:	0d a2       	stc	r2_bank,r13
     bd6:	0d a5       	mov.w	r10,@(r0,r13)
     bd8:	0d a7       	mul.l	r10,r13
     bda:	0d a9       	.word 0x0da9
     bdc:	0d ab       	.word 0x0dab
     bde:	0d ae       	mov.l	@(r0,r10),r13
     be0:	0d b0       	.word 0x0db0
     be2:	0d b2       	stc	r3_bank,r13
     be4:	0d b5       	mov.w	r11,@(r0,r13)
     be6:	0d b7       	mul.l	r11,r13
     be8:	0d b9       	.word 0x0db9
     bea:	0d bb       	.word 0x0dbb
     bec:	0d be       	mov.l	@(r0,r11),r13
     bee:	0d c0       	.word 0x0dc0
     bf0:	0d c2       	stc	r4_bank,r13
     bf2:	0d c4       	mov.b	r12,@(r0,r13)
     bf4:	0d c7       	mul.l	r12,r13
     bf6:	0d c9       	.word 0x0dc9
     bf8:	0d cb       	.word 0x0dcb
     bfa:	0d cd       	mov.w	@(r0,r12),r13
     bfc:	0d d0       	.word 0x0dd0
     bfe:	0d d2       	stc	r5_bank,r13
     c00:	0d d4       	mov.b	r13,@(r0,r13)
     c02:	0d d7       	mul.l	r13,r13
     c04:	0d d9       	.word 0x0dd9
     c06:	0d db       	.word 0x0ddb
     c08:	0d dd       	mov.w	@(r0,r13),r13
     c0a:	0d e0       	.word 0x0de0
     c0c:	0d e2       	stc	r6_bank,r13
     c0e:	0d e4       	mov.b	r14,@(r0,r13)
     c10:	0d e6       	mov.l	r14,@(r0,r13)
     c12:	0d e9       	.word 0x0de9
     c14:	0d eb       	.word 0x0deb
     c16:	0d ed       	mov.w	@(r0,r14),r13
     c18:	0d ef       	mac.l	@r14+,@r13+
     c1a:	0d f2       	stc	r7_bank,r13
     c1c:	0d f4       	mov.b	r15,@(r0,r13)
     c1e:	0d f6       	mov.l	r15,@(r0,r13)
     c20:	0d f8       	.word 0x0df8
     c22:	0d fb       	.word 0x0dfb
     c24:	0d fd       	mov.w	@(r0,r15),r13
     c26:	0d ff       	mac.l	@r15+,@r13+
     c28:	0e 01       	.word 0x0e01
     c2a:	0e 04       	mov.b	r0,@(r0,r14)
     c2c:	0e 06       	mov.l	r0,@(r0,r14)
     c2e:	0e 08       	.word 0x0e08
     c30:	0e 0a       	sts	mach,r14
     c32:	0e 0d       	mov.w	@(r0,r0),r14
     c34:	0e 0f       	mac.l	@r0+,@r14+
     c36:	0e 11       	.word 0x0e11
     c38:	0e 14       	mov.b	r1,@(r0,r14)
     c3a:	0e 16       	mov.l	r1,@(r0,r14)
     c3c:	0e 18       	.word 0x0e18
     c3e:	0e 1a       	sts	macl,r14
     c40:	0e 1d       	mov.w	@(r0,r1),r14
     c42:	0e 1f       	mac.l	@r1+,@r14+
     c44:	0e 21       	.word 0x0e21
     c46:	0e 23       	braf	r14
     c48:	0e 26       	mov.l	r2,@(r0,r14)
     c4a:	0e 28       	.word 0x0e28
     c4c:	0e 2a       	sts	pr,r14
     c4e:	0e 2c       	mov.b	@(r0,r2),r14
     c50:	0e 2f       	mac.l	@r2+,@r14+
     c52:	0e 31       	.word 0x0e31
     c54:	0e 33       	.word 0x0e33
     c56:	0e 35       	mov.w	r3,@(r0,r14)
     c58:	0e 38       	.word 0x0e38
     c5a:	0e 3a       	stc	sgr,r14
     c5c:	0e 3c       	mov.b	@(r0,r3),r14
     c5e:	0e 3e       	mov.l	@(r0,r3),r14
     c60:	0e 41       	.word 0x0e41
     c62:	0e 43       	.word 0x0e43
     c64:	0e 45       	mov.w	r4,@(r0,r14)
     c66:	0e 47       	mul.l	r4,r14
     c68:	0e 4a       	.word 0x0e4a
     c6a:	0e 4c       	mov.b	@(r0,r4),r14
     c6c:	0e 4e       	mov.l	@(r0,r4),r14
     c6e:	0e 50       	.word 0x0e50
     c70:	0e 53       	.word 0x0e53
     c72:	0e 55       	mov.w	r5,@(r0,r14)
     c74:	0e 57       	mul.l	r5,r14
     c76:	0e 59       	.word 0x0e59
     c78:	0e 5b       	.word 0x0e5b
     c7a:	0e 5e       	mov.l	@(r0,r5),r14
     c7c:	0e 60       	.word 0x0e60
     c7e:	0e 62       	stc	r6_bank,r14
     c80:	0e 64       	mov.b	r6,@(r0,r14)
     c82:	0e 67       	mul.l	r6,r14
     c84:	0e 69       	.word 0x0e69
     c86:	0e 6b       	.word 0x0e6b
     c88:	0e 6d       	mov.w	@(r0,r6),r14
     c8a:	0e 70       	.word 0x0e70
     c8c:	0e 72       	stc	r7_bank,r14
     c8e:	0e 74       	mov.b	r7,@(r0,r14)
     c90:	0e 76       	mov.l	r7,@(r0,r14)
     c92:	0e 79       	.word 0x0e79
     c94:	0e 7b       	.word 0x0e7b
     c96:	0e 7d       	mov.w	@(r0,r7),r14
     c98:	0e 7f       	mac.l	@r7+,@r14+
     c9a:	0e 82       	stc	r0_bank,r14
     c9c:	0e 84       	mov.b	r8,@(r0,r14)
     c9e:	0e 86       	mov.l	r8,@(r0,r14)
     ca0:	0e 88       	.word 0x0e88
     ca2:	0e 8b       	.word 0x0e8b
     ca4:	0e 8d       	mov.w	@(r0,r8),r14
     ca6:	0e 8f       	mac.l	@r8+,@r14+
     ca8:	0e 91       	.word 0x0e91
     caa:	0e 93       	ocbi	@r14
     cac:	0e 96       	mov.l	r9,@(r0,r14)
     cae:	0e 98       	.word 0x0e98
     cb0:	0e 9a       	.word 0x0e9a
     cb2:	0e 9c       	mov.b	@(r0,r9),r14
     cb4:	0e 9f       	mac.l	@r9+,@r14+
     cb6:	0e a1       	.word 0x0ea1
     cb8:	0e a3       	ocbp	@r14
     cba:	0e a5       	mov.w	r10,@(r0,r14)
     cbc:	0e a8       	.word 0x0ea8
     cbe:	0e aa       	.word 0x0eaa
     cc0:	0e ac       	mov.b	@(r0,r10),r14
     cc2:	0e ae       	mov.l	@(r0,r10),r14
     cc4:	0e b0       	.word 0x0eb0
     cc6:	0e b3       	ocbwb	@r14
     cc8:	0e b5       	mov.w	r11,@(r0,r14)
     cca:	0e b7       	mul.l	r11,r14
     ccc:	0e b9       	.word 0x0eb9
     cce:	0e bc       	mov.b	@(r0,r11),r14
     cd0:	0e be       	mov.l	@(r0,r11),r14
     cd2:	0e c0       	.word 0x0ec0
     cd4:	0e c2       	stc	r4_bank,r14
     cd6:	0e c5       	mov.w	r12,@(r0,r14)
     cd8:	0e c7       	mul.l	r12,r14
     cda:	0e c9       	.word 0x0ec9
     cdc:	0e cb       	.word 0x0ecb
     cde:	0e cd       	mov.w	@(r0,r12),r14
     ce0:	0e d0       	.word 0x0ed0
     ce2:	0e d2       	stc	r5_bank,r14
     ce4:	0e d4       	mov.b	r13,@(r0,r14)
     ce6:	0e d6       	mov.l	r13,@(r0,r14)
     ce8:	0e d9       	.word 0x0ed9
     cea:	0e db       	.word 0x0edb
     cec:	0e dd       	mov.w	@(r0,r13),r14
     cee:	0e df       	mac.l	@r13+,@r14+
     cf0:	0e e1       	.word 0x0ee1
     cf2:	0e e4       	mov.b	r14,@(r0,r14)
     cf4:	0e e6       	mov.l	r14,@(r0,r14)
     cf6:	0e e8       	.word 0x0ee8
     cf8:	0e ea       	.word 0x0eea
     cfa:	0e ed       	mov.w	@(r0,r14),r14
     cfc:	0e ef       	mac.l	@r14+,@r14+
     cfe:	0e f1       	.word 0x0ef1
     d00:	0e f3       	.word 0x0ef3
     d02:	0e f5       	mov.w	r15,@(r0,r14)
     d04:	0e f8       	.word 0x0ef8
     d06:	0e fa       	stc	dbr,r14
     d08:	0e fc       	mov.b	@(r0,r15),r14
     d0a:	0e fe       	mov.l	@(r0,r15),r14
     d0c:	0f 00       	.word 0x0f00
     d0e:	0f 03       	bsrf	r15
     d10:	0f 05       	mov.w	r0,@(r0,r15)
     d12:	0f 07       	mul.l	r0,r15
     d14:	0f 09       	.word 0x0f09
     d16:	0f 0c       	mov.b	@(r0,r0),r15
     d18:	0f 0e       	mov.l	@(r0,r0),r15
     d1a:	0f 10       	.word 0x0f10
     d1c:	0f 12       	stc	gbr,r15
     d1e:	0f 14       	mov.b	r1,@(r0,r15)
     d20:	0f 17       	mul.l	r1,r15
     d22:	0f 19       	.word 0x0f19
     d24:	0f 1b       	.word 0x0f1b
     d26:	0f 1d       	mov.w	@(r0,r1),r15
     d28:	0f 1f       	mac.l	@r1+,@r15+
     d2a:	0f 22       	stc	vbr,r15
     d2c:	0f 24       	mov.b	r2,@(r0,r15)
     d2e:	0f 26       	mov.l	r2,@(r0,r15)
     d30:	0f 28       	.word 0x0f28
     d32:	0f 2b       	.word 0x0f2b
     d34:	0f 2d       	mov.w	@(r0,r2),r15
     d36:	0f 2f       	mac.l	@r2+,@r15+
     d38:	0f 31       	.word 0x0f31
     d3a:	0f 33       	.word 0x0f33
     d3c:	0f 36       	mov.l	r3,@(r0,r15)
     d3e:	0f 38       	.word 0x0f38
     d40:	0f 3a       	stc	sgr,r15
     d42:	0f 3c       	mov.b	@(r0,r3),r15
     d44:	0f 3e       	mov.l	@(r0,r3),r15
     d46:	0f 41       	.word 0x0f41
     d48:	0f 43       	.word 0x0f43
     d4a:	0f 45       	mov.w	r4,@(r0,r15)
     d4c:	0f 47       	mul.l	r4,r15
     d4e:	0f 49       	.word 0x0f49
     d50:	0f 4c       	mov.b	@(r0,r4),r15
     d52:	0f 4e       	mov.l	@(r0,r4),r15
     d54:	0f 50       	.word 0x0f50
     d56:	0f 52       	stc	r5_bank,r15
     d58:	0f 54       	mov.b	r5,@(r0,r15)
     d5a:	0f 57       	mul.l	r5,r15
     d5c:	0f 59       	.word 0x0f59
     d5e:	0f 5b       	.word 0x0f5b
     d60:	0f 5d       	mov.w	@(r0,r5),r15
     d62:	0f 5f       	mac.l	@r5+,@r15+
     d64:	0f 62       	stc	r6_bank,r15
     d66:	0f 64       	mov.b	r6,@(r0,r15)
     d68:	0f 66       	mov.l	r6,@(r0,r15)
     d6a:	0f 68       	.word 0x0f68
     d6c:	0f 6a       	sts	fpscr,r15
     d6e:	0f 6d       	mov.w	@(r0,r6),r15
     d70:	0f 6f       	mac.l	@r6+,@r15+
     d72:	0f 71       	.word 0x0f71
     d74:	0f 73       	.word 0x0f73
     d76:	0f 75       	mov.w	r7,@(r0,r15)
     d78:	0f 78       	.word 0x0f78
     d7a:	0f 7a       	.word 0x0f7a
     d7c:	0f 7c       	mov.b	@(r0,r7),r15
     d7e:	0f 7e       	mov.l	@(r0,r7),r15
     d80:	0f 80       	.word 0x0f80
     d82:	0f 83       	pref	@r15
     d84:	0f 85       	mov.w	r8,@(r0,r15)
     d86:	0f 87       	mul.l	r8,r15
     d88:	0f 89       	.word 0x0f89
     d8a:	0f 8b       	.word 0x0f8b
     d8c:	0f 8e       	mov.l	@(r0,r8),r15
     d8e:	0f 90       	.word 0x0f90
     d90:	0f 92       	stc	r1_bank,r15
     d92:	0f 94       	mov.b	r9,@(r0,r15)
     d94:	0f 96       	mov.l	r9,@(r0,r15)
     d96:	0f 99       	.word 0x0f99
     d98:	0f 9b       	.word 0x0f9b
     d9a:	0f 9d       	mov.w	@(r0,r9),r15
     d9c:	0f 9f       	mac.l	@r9+,@r15+
     d9e:	0f a1       	.word 0x0fa1
     da0:	0f a4       	mov.b	r10,@(r0,r15)
     da2:	0f a6       	mov.l	r10,@(r0,r15)
     da4:	0f a8       	.word 0x0fa8
     da6:	0f aa       	.word 0x0faa
     da8:	0f ac       	mov.b	@(r0,r10),r15
     daa:	0f ae       	mov.l	@(r0,r10),r15
     dac:	0f b1       	.word 0x0fb1
     dae:	0f b3       	ocbwb	@r15
     db0:	0f b5       	mov.w	r11,@(r0,r15)
     db2:	0f b7       	mul.l	r11,r15
     db4:	0f b9       	.word 0x0fb9
     db6:	0f bc       	mov.b	@(r0,r11),r15
     db8:	0f be       	mov.l	@(r0,r11),r15
     dba:	0f c0       	.word 0x0fc0
     dbc:	0f c2       	stc	r4_bank,r15
     dbe:	0f c4       	mov.b	r12,@(r0,r15)
     dc0:	0f c7       	mul.l	r12,r15
     dc2:	0f c9       	.word 0x0fc9
     dc4:	0f cb       	.word 0x0fcb
     dc6:	0f cd       	mov.w	@(r0,r12),r15
     dc8:	0f cf       	mac.l	@r12+,@r15+
     dca:	0f d1       	.word 0x0fd1
     dcc:	0f d4       	mov.b	r13,@(r0,r15)
     dce:	0f d6       	mov.l	r13,@(r0,r15)
     dd0:	0f d8       	.word 0x0fd8
     dd2:	0f da       	.word 0x0fda
     dd4:	0f dc       	mov.b	@(r0,r13),r15
     dd6:	0f df       	mac.l	@r13+,@r15+
     dd8:	0f e1       	.word 0x0fe1
     dda:	0f e3       	.word 0x0fe3
     ddc:	0f e5       	mov.w	r14,@(r0,r15)
     dde:	0f e7       	mul.l	r14,r15
     de0:	0f e9       	.word 0x0fe9
     de2:	0f ec       	mov.b	@(r0,r14),r15
     de4:	0f ee       	mov.l	@(r0,r14),r15
     de6:	0f f0       	.word 0x0ff0
     de8:	0f f2       	stc	r7_bank,r15
     dea:	0f f4       	mov.b	r15,@(r0,r15)
     dec:	0f f6       	mov.l	r15,@(r0,r15)
     dee:	0f f9       	.word 0x0ff9
     df0:	0f fb       	.word 0x0ffb
     df2:	0f fd       	mov.w	@(r0,r15),r15
     df4:	0f ff       	mac.l	@r15+,@r15+
     df6:	10 01       	mov.l	r0,@(4,r0)
     df8:	10 04       	mov.l	r0,@(16,r0)
     dfa:	10 06       	mov.l	r0,@(24,r0)
     dfc:	10 08       	mov.l	r0,@(32,r0)
     dfe:	10 0a       	mov.l	r0,@(40,r0)
     e00:	10 0c       	mov.l	r0,@(48,r0)
     e02:	10 0e       	mov.l	r0,@(56,r0)
     e04:	10 11       	mov.l	r1,@(4,r0)
     e06:	10 13       	mov.l	r1,@(12,r0)
     e08:	10 15       	mov.l	r1,@(20,r0)
     e0a:	10 17       	mov.l	r1,@(28,r0)
     e0c:	10 19       	mov.l	r1,@(36,r0)
     e0e:	10 1b       	mov.l	r1,@(44,r0)
     e10:	10 1e       	mov.l	r1,@(56,r0)
     e12:	10 20       	mov.l	r2,@(0,r0)
     e14:	10 22       	mov.l	r2,@(8,r0)
     e16:	10 24       	mov.l	r2,@(16,r0)
     e18:	10 26       	mov.l	r2,@(24,r0)
     e1a:	10 28       	mov.l	r2,@(32,r0)
     e1c:	10 2b       	mov.l	r2,@(44,r0)
     e1e:	10 2d       	mov.l	r2,@(52,r0)
     e20:	10 2f       	mov.l	r2,@(60,r0)
     e22:	10 31       	mov.l	r3,@(4,r0)
     e24:	10 33       	mov.l	r3,@(12,r0)
     e26:	10 35       	mov.l	r3,@(20,r0)
     e28:	10 38       	mov.l	r3,@(32,r0)
     e2a:	10 3a       	mov.l	r3,@(40,r0)
     e2c:	10 3c       	mov.l	r3,@(48,r0)
     e2e:	10 3e       	mov.l	r3,@(56,r0)
     e30:	10 40       	mov.l	r4,@(0,r0)
     e32:	10 42       	mov.l	r4,@(8,r0)
     e34:	10 45       	mov.l	r4,@(20,r0)
     e36:	10 47       	mov.l	r4,@(28,r0)
     e38:	10 49       	mov.l	r4,@(36,r0)
     e3a:	10 4b       	mov.l	r4,@(44,r0)
     e3c:	10 4d       	mov.l	r4,@(52,r0)
     e3e:	10 4f       	mov.l	r4,@(60,r0)
     e40:	10 51       	mov.l	r5,@(4,r0)
     e42:	10 54       	mov.l	r5,@(16,r0)
     e44:	10 56       	mov.l	r5,@(24,r0)
     e46:	10 58       	mov.l	r5,@(32,r0)
     e48:	10 5a       	mov.l	r5,@(40,r0)
     e4a:	10 5c       	mov.l	r5,@(48,r0)
     e4c:	10 5e       	mov.l	r5,@(56,r0)
     e4e:	10 61       	mov.l	r6,@(4,r0)
     e50:	10 63       	mov.l	r6,@(12,r0)
     e52:	10 65       	mov.l	r6,@(20,r0)
     e54:	10 67       	mov.l	r6,@(28,r0)
     e56:	10 69       	mov.l	r6,@(36,r0)
     e58:	10 6b       	mov.l	r6,@(44,r0)
     e5a:	10 6e       	mov.l	r6,@(56,r0)
     e5c:	10 70       	mov.l	r7,@(0,r0)
     e5e:	10 72       	mov.l	r7,@(8,r0)
     e60:	10 74       	mov.l	r7,@(16,r0)
     e62:	10 76       	mov.l	r7,@(24,r0)
     e64:	10 78       	mov.l	r7,@(32,r0)
     e66:	10 7a       	mov.l	r7,@(40,r0)
     e68:	10 7d       	mov.l	r7,@(52,r0)
     e6a:	10 7f       	mov.l	r7,@(60,r0)
     e6c:	10 81       	mov.l	r8,@(4,r0)
     e6e:	10 83       	mov.l	r8,@(12,r0)
     e70:	10 85       	mov.l	r8,@(20,r0)
     e72:	10 87       	mov.l	r8,@(28,r0)
     e74:	10 8a       	mov.l	r8,@(40,r0)
     e76:	10 8c       	mov.l	r8,@(48,r0)
     e78:	10 8e       	mov.l	r8,@(56,r0)
     e7a:	10 90       	mov.l	r9,@(0,r0)
     e7c:	10 92       	mov.l	r9,@(8,r0)
     e7e:	10 94       	mov.l	r9,@(16,r0)
     e80:	10 96       	mov.l	r9,@(24,r0)
     e82:	10 99       	mov.l	r9,@(36,r0)
     e84:	10 9b       	mov.l	r9,@(44,r0)
     e86:	10 9d       	mov.l	r9,@(52,r0)
     e88:	10 9f       	mov.l	r9,@(60,r0)
     e8a:	10 a1       	mov.l	r10,@(4,r0)
     e8c:	10 a3       	mov.l	r10,@(12,r0)
     e8e:	10 a5       	mov.l	r10,@(20,r0)
     e90:	10 a8       	mov.l	r10,@(32,r0)
     e92:	10 aa       	mov.l	r10,@(40,r0)
     e94:	10 ac       	mov.l	r10,@(48,r0)
     e96:	10 ae       	mov.l	r10,@(56,r0)
     e98:	10 b0       	mov.l	r11,@(0,r0)
     e9a:	10 b2       	mov.l	r11,@(8,r0)
     e9c:	10 b4       	mov.l	r11,@(16,r0)
     e9e:	10 b7       	mov.l	r11,@(28,r0)
     ea0:	10 b9       	mov.l	r11,@(36,r0)
     ea2:	10 bb       	mov.l	r11,@(44,r0)
     ea4:	10 bd       	mov.l	r11,@(52,r0)
     ea6:	10 bf       	mov.l	r11,@(60,r0)
     ea8:	10 c1       	mov.l	r12,@(4,r0)
     eaa:	10 c3       	mov.l	r12,@(12,r0)
     eac:	10 c6       	mov.l	r12,@(24,r0)
     eae:	10 c8       	mov.l	r12,@(32,r0)
     eb0:	10 ca       	mov.l	r12,@(40,r0)
     eb2:	10 cc       	mov.l	r12,@(48,r0)
     eb4:	10 ce       	mov.l	r12,@(56,r0)
     eb6:	10 d0       	mov.l	r13,@(0,r0)
     eb8:	10 d2       	mov.l	r13,@(8,r0)
     eba:	10 d5       	mov.l	r13,@(20,r0)
     ebc:	10 d7       	mov.l	r13,@(28,r0)
     ebe:	10 d9       	mov.l	r13,@(36,r0)
     ec0:	10 db       	mov.l	r13,@(44,r0)
     ec2:	10 dd       	mov.l	r13,@(52,r0)
     ec4:	10 df       	mov.l	r13,@(60,r0)
     ec6:	10 e1       	mov.l	r14,@(4,r0)
     ec8:	10 e3       	mov.l	r14,@(12,r0)
     eca:	10 e6       	mov.l	r14,@(24,r0)
     ecc:	10 e8       	mov.l	r14,@(32,r0)
     ece:	10 ea       	mov.l	r14,@(40,r0)
     ed0:	10 ec       	mov.l	r14,@(48,r0)
     ed2:	10 ee       	mov.l	r14,@(56,r0)
     ed4:	10 f0       	mov.l	r15,@(0,r0)
     ed6:	10 f2       	mov.l	r15,@(8,r0)
     ed8:	10 f5       	mov.l	r15,@(20,r0)
     eda:	10 f7       	mov.l	r15,@(28,r0)
     edc:	10 f9       	mov.l	r15,@(36,r0)
     ede:	10 fb       	mov.l	r15,@(44,r0)
     ee0:	10 fd       	mov.l	r15,@(52,r0)
     ee2:	10 ff       	mov.l	r15,@(60,r0)
     ee4:	11 01       	mov.l	r0,@(4,r1)
     ee6:	11 03       	mov.l	r0,@(12,r1)
     ee8:	11 06       	mov.l	r0,@(24,r1)
     eea:	11 08       	mov.l	r0,@(32,r1)
     eec:	11 0a       	mov.l	r0,@(40,r1)
     eee:	11 0c       	mov.l	r0,@(48,r1)
     ef0:	11 0e       	mov.l	r0,@(56,r1)
     ef2:	11 10       	mov.l	r1,@(0,r1)
     ef4:	11 12       	mov.l	r1,@(8,r1)
     ef6:	11 14       	mov.l	r1,@(16,r1)
     ef8:	11 17       	mov.l	r1,@(28,r1)
     efa:	11 19       	mov.l	r1,@(36,r1)
     efc:	11 1b       	mov.l	r1,@(44,r1)
     efe:	11 1d       	mov.l	r1,@(52,r1)
     f00:	11 1f       	mov.l	r1,@(60,r1)
     f02:	11 21       	mov.l	r2,@(4,r1)
     f04:	11 23       	mov.l	r2,@(12,r1)
     f06:	11 25       	mov.l	r2,@(20,r1)
     f08:	11 28       	mov.l	r2,@(32,r1)
     f0a:	11 2a       	mov.l	r2,@(40,r1)
     f0c:	11 2c       	mov.l	r2,@(48,r1)
     f0e:	11 2e       	mov.l	r2,@(56,r1)
     f10:	11 30       	mov.l	r3,@(0,r1)
     f12:	11 32       	mov.l	r3,@(8,r1)
     f14:	11 34       	mov.l	r3,@(16,r1)
     f16:	11 36       	mov.l	r3,@(24,r1)
     f18:	11 38       	mov.l	r3,@(32,r1)
     f1a:	11 3b       	mov.l	r3,@(44,r1)
     f1c:	11 3d       	mov.l	r3,@(52,r1)
     f1e:	11 3f       	mov.l	r3,@(60,r1)
     f20:	11 41       	mov.l	r4,@(4,r1)
     f22:	11 43       	mov.l	r4,@(12,r1)
     f24:	11 45       	mov.l	r4,@(20,r1)
     f26:	11 47       	mov.l	r4,@(28,r1)
     f28:	11 49       	mov.l	r4,@(36,r1)
     f2a:	11 4c       	mov.l	r4,@(48,r1)
     f2c:	11 4e       	mov.l	r4,@(56,r1)
     f2e:	11 50       	mov.l	r5,@(0,r1)
     f30:	11 52       	mov.l	r5,@(8,r1)
     f32:	11 54       	mov.l	r5,@(16,r1)
     f34:	11 56       	mov.l	r5,@(24,r1)
     f36:	11 58       	mov.l	r5,@(32,r1)
     f38:	11 5a       	mov.l	r5,@(40,r1)
     f3a:	11 5c       	mov.l	r5,@(48,r1)
     f3c:	11 5f       	mov.l	r5,@(60,r1)
     f3e:	11 61       	mov.l	r6,@(4,r1)
     f40:	11 63       	mov.l	r6,@(12,r1)
     f42:	11 65       	mov.l	r6,@(20,r1)
     f44:	11 67       	mov.l	r6,@(28,r1)
     f46:	11 69       	mov.l	r6,@(36,r1)
     f48:	11 6b       	mov.l	r6,@(44,r1)
     f4a:	11 6d       	mov.l	r6,@(52,r1)
     f4c:	11 6f       	mov.l	r6,@(60,r1)
     f4e:	11 72       	mov.l	r7,@(8,r1)
     f50:	11 74       	mov.l	r7,@(16,r1)
     f52:	11 76       	mov.l	r7,@(24,r1)
     f54:	11 78       	mov.l	r7,@(32,r1)
     f56:	11 7a       	mov.l	r7,@(40,r1)
     f58:	11 7c       	mov.l	r7,@(48,r1)
     f5a:	11 7e       	mov.l	r7,@(56,r1)
     f5c:	11 80       	mov.l	r8,@(0,r1)
     f5e:	11 82       	mov.l	r8,@(8,r1)
     f60:	11 84       	mov.l	r8,@(16,r1)
     f62:	11 87       	mov.l	r8,@(28,r1)
     f64:	11 89       	mov.l	r8,@(36,r1)
     f66:	11 8b       	mov.l	r8,@(44,r1)
     f68:	11 8d       	mov.l	r8,@(52,r1)
     f6a:	11 8f       	mov.l	r8,@(60,r1)
     f6c:	11 91       	mov.l	r9,@(4,r1)
     f6e:	11 93       	mov.l	r9,@(12,r1)
     f70:	11 95       	mov.l	r9,@(20,r1)
     f72:	11 97       	mov.l	r9,@(28,r1)
     f74:	11 9a       	mov.l	r9,@(40,r1)
     f76:	11 9c       	mov.l	r9,@(48,r1)
     f78:	11 9e       	mov.l	r9,@(56,r1)
     f7a:	11 a0       	mov.l	r10,@(0,r1)
     f7c:	11 a2       	mov.l	r10,@(8,r1)
     f7e:	11 a4       	mov.l	r10,@(16,r1)
     f80:	11 a6       	mov.l	r10,@(24,r1)
     f82:	11 a8       	mov.l	r10,@(32,r1)
     f84:	11 aa       	mov.l	r10,@(40,r1)
     f86:	11 ac       	mov.l	r10,@(48,r1)
     f88:	11 ae       	mov.l	r10,@(56,r1)
     f8a:	11 b1       	mov.l	r11,@(4,r1)
     f8c:	11 b3       	mov.l	r11,@(12,r1)
     f8e:	11 b5       	mov.l	r11,@(20,r1)
     f90:	11 b7       	mov.l	r11,@(28,r1)
     f92:	11 b9       	mov.l	r11,@(36,r1)
     f94:	11 bb       	mov.l	r11,@(44,r1)
     f96:	11 bd       	mov.l	r11,@(52,r1)
     f98:	11 bf       	mov.l	r11,@(60,r1)
     f9a:	11 c1       	mov.l	r12,@(4,r1)
     f9c:	11 c3       	mov.l	r12,@(12,r1)
     f9e:	11 c6       	mov.l	r12,@(24,r1)
     fa0:	11 c8       	mov.l	r12,@(32,r1)
     fa2:	11 ca       	mov.l	r12,@(40,r1)
     fa4:	11 cc       	mov.l	r12,@(48,r1)
     fa6:	11 ce       	mov.l	r12,@(56,r1)
     fa8:	11 d0       	mov.l	r13,@(0,r1)
     faa:	11 d2       	mov.l	r13,@(8,r1)
     fac:	11 d4       	mov.l	r13,@(16,r1)
     fae:	11 d6       	mov.l	r13,@(24,r1)
     fb0:	11 d8       	mov.l	r13,@(32,r1)
     fb2:	11 da       	mov.l	r13,@(40,r1)
     fb4:	11 dd       	mov.l	r13,@(52,r1)
     fb6:	11 df       	mov.l	r13,@(60,r1)
     fb8:	11 e1       	mov.l	r14,@(4,r1)
     fba:	11 e3       	mov.l	r14,@(12,r1)
     fbc:	11 e5       	mov.l	r14,@(20,r1)
     fbe:	11 e7       	mov.l	r14,@(28,r1)
     fc0:	11 e9       	mov.l	r14,@(36,r1)
     fc2:	11 eb       	mov.l	r14,@(44,r1)
     fc4:	11 ed       	mov.l	r14,@(52,r1)
     fc6:	11 ef       	mov.l	r14,@(60,r1)
     fc8:	11 f1       	mov.l	r15,@(4,r1)
     fca:	11 f3       	mov.l	r15,@(12,r1)
     fcc:	11 f6       	mov.l	r15,@(24,r1)
     fce:	11 f8       	mov.l	r15,@(32,r1)
     fd0:	11 fa       	mov.l	r15,@(40,r1)
     fd2:	11 fc       	mov.l	r15,@(48,r1)
     fd4:	11 fe       	mov.l	r15,@(56,r1)
     fd6:	12 00       	mov.l	r0,@(0,r2)
     fd8:	12 02       	mov.l	r0,@(8,r2)
     fda:	12 04       	mov.l	r0,@(16,r2)
     fdc:	12 06       	mov.l	r0,@(24,r2)
     fde:	12 08       	mov.l	r0,@(32,r2)
     fe0:	12 0a       	mov.l	r0,@(40,r2)
     fe2:	12 0c       	mov.l	r0,@(48,r2)
     fe4:	12 0f       	mov.l	r0,@(60,r2)
     fe6:	12 11       	mov.l	r1,@(4,r2)
     fe8:	12 13       	mov.l	r1,@(12,r2)
     fea:	12 15       	mov.l	r1,@(20,r2)
     fec:	12 17       	mov.l	r1,@(28,r2)
     fee:	12 19       	mov.l	r1,@(36,r2)
     ff0:	12 1b       	mov.l	r1,@(44,r2)
     ff2:	12 1d       	mov.l	r1,@(52,r2)
     ff4:	12 1f       	mov.l	r1,@(60,r2)
     ff6:	12 21       	mov.l	r2,@(4,r2)
     ff8:	12 23       	mov.l	r2,@(12,r2)
     ffa:	12 25       	mov.l	r2,@(20,r2)
     ffc:	12 27       	mov.l	r2,@(28,r2)
     ffe:	12 29       	mov.l	r2,@(36,r2)
    1000:	12 2c       	mov.l	r2,@(48,r2)
    1002:	12 2e       	mov.l	r2,@(56,r2)
    1004:	12 30       	mov.l	r3,@(0,r2)
    1006:	12 32       	mov.l	r3,@(8,r2)
    1008:	12 34       	mov.l	r3,@(16,r2)
    100a:	12 36       	mov.l	r3,@(24,r2)
    100c:	12 38       	mov.l	r3,@(32,r2)
    100e:	12 3a       	mov.l	r3,@(40,r2)
    1010:	12 3c       	mov.l	r3,@(48,r2)
    1012:	12 3e       	mov.l	r3,@(56,r2)
    1014:	12 40       	mov.l	r4,@(0,r2)
    1016:	12 42       	mov.l	r4,@(8,r2)
    1018:	12 44       	mov.l	r4,@(16,r2)
    101a:	12 46       	mov.l	r4,@(24,r2)
    101c:	12 49       	mov.l	r4,@(36,r2)
    101e:	12 4b       	mov.l	r4,@(44,r2)
    1020:	12 4d       	mov.l	r4,@(52,r2)
    1022:	12 4f       	mov.l	r4,@(60,r2)
    1024:	12 51       	mov.l	r5,@(4,r2)
    1026:	12 53       	mov.l	r5,@(12,r2)
    1028:	12 55       	mov.l	r5,@(20,r2)
    102a:	12 57       	mov.l	r5,@(28,r2)
    102c:	12 59       	mov.l	r5,@(36,r2)
    102e:	12 5b       	mov.l	r5,@(44,r2)
    1030:	12 5d       	mov.l	r5,@(52,r2)
    1032:	12 5f       	mov.l	r5,@(60,r2)
    1034:	12 61       	mov.l	r6,@(4,r2)
    1036:	12 63       	mov.l	r6,@(12,r2)
    1038:	12 65       	mov.l	r6,@(20,r2)
    103a:	12 68       	mov.l	r6,@(32,r2)
    103c:	12 6a       	mov.l	r6,@(40,r2)
    103e:	12 6c       	mov.l	r6,@(48,r2)
    1040:	12 6e       	mov.l	r6,@(56,r2)
    1042:	12 70       	mov.l	r7,@(0,r2)
    1044:	12 72       	mov.l	r7,@(8,r2)
    1046:	12 74       	mov.l	r7,@(16,r2)
    1048:	12 76       	mov.l	r7,@(24,r2)
    104a:	12 78       	mov.l	r7,@(32,r2)
    104c:	12 7a       	mov.l	r7,@(40,r2)
    104e:	12 7c       	mov.l	r7,@(48,r2)
    1050:	12 7e       	mov.l	r7,@(56,r2)
    1052:	12 80       	mov.l	r8,@(0,r2)
    1054:	12 82       	mov.l	r8,@(8,r2)
    1056:	12 84       	mov.l	r8,@(16,r2)
    1058:	12 86       	mov.l	r8,@(24,r2)
    105a:	12 88       	mov.l	r8,@(32,r2)
    105c:	12 8a       	mov.l	r8,@(40,r2)
    105e:	12 8d       	mov.l	r8,@(52,r2)
    1060:	12 8f       	mov.l	r8,@(60,r2)
    1062:	12 91       	mov.l	r9,@(4,r2)
    1064:	12 93       	mov.l	r9,@(12,r2)
    1066:	12 95       	mov.l	r9,@(20,r2)
    1068:	12 97       	mov.l	r9,@(28,r2)
    106a:	12 99       	mov.l	r9,@(36,r2)
    106c:	12 9b       	mov.l	r9,@(44,r2)
    106e:	12 9d       	mov.l	r9,@(52,r2)
    1070:	12 9f       	mov.l	r9,@(60,r2)
    1072:	12 a1       	mov.l	r10,@(4,r2)
    1074:	12 a3       	mov.l	r10,@(12,r2)
    1076:	12 a5       	mov.l	r10,@(20,r2)
    1078:	12 a7       	mov.l	r10,@(28,r2)
    107a:	12 a9       	mov.l	r10,@(36,r2)
    107c:	12 ab       	mov.l	r10,@(44,r2)
    107e:	12 ad       	mov.l	r10,@(52,r2)
    1080:	12 af       	mov.l	r10,@(60,r2)
    1082:	12 b1       	mov.l	r11,@(4,r2)
    1084:	12 b4       	mov.l	r11,@(16,r2)
    1086:	12 b6       	mov.l	r11,@(24,r2)
    1088:	12 b8       	mov.l	r11,@(32,r2)
    108a:	12 ba       	mov.l	r11,@(40,r2)
    108c:	12 bc       	mov.l	r11,@(48,r2)
    108e:	12 be       	mov.l	r11,@(56,r2)
    1090:	12 c0       	mov.l	r12,@(0,r2)
    1092:	12 c2       	mov.l	r12,@(8,r2)
    1094:	12 c4       	mov.l	r12,@(16,r2)
    1096:	12 c6       	mov.l	r12,@(24,r2)
    1098:	12 c8       	mov.l	r12,@(32,r2)
    109a:	12 ca       	mov.l	r12,@(40,r2)
    109c:	12 cc       	mov.l	r12,@(48,r2)
    109e:	12 ce       	mov.l	r12,@(56,r2)
    10a0:	12 d0       	mov.l	r13,@(0,r2)
    10a2:	12 d2       	mov.l	r13,@(8,r2)
    10a4:	12 d4       	mov.l	r13,@(16,r2)
    10a6:	12 d6       	mov.l	r13,@(24,r2)
    10a8:	12 d8       	mov.l	r13,@(32,r2)
    10aa:	12 da       	mov.l	r13,@(40,r2)
    10ac:	12 dc       	mov.l	r13,@(48,r2)
    10ae:	12 de       	mov.l	r13,@(56,r2)
    10b0:	12 e0       	mov.l	r14,@(0,r2)
    10b2:	12 e2       	mov.l	r14,@(8,r2)
    10b4:	12 e5       	mov.l	r14,@(20,r2)
    10b6:	12 e7       	mov.l	r14,@(28,r2)
    10b8:	12 e9       	mov.l	r14,@(36,r2)
    10ba:	12 eb       	mov.l	r14,@(44,r2)
    10bc:	12 ed       	mov.l	r14,@(52,r2)
    10be:	12 ef       	mov.l	r14,@(60,r2)
    10c0:	12 f1       	mov.l	r15,@(4,r2)
    10c2:	12 f3       	mov.l	r15,@(12,r2)
    10c4:	12 f5       	mov.l	r15,@(20,r2)
    10c6:	12 f7       	mov.l	r15,@(28,r2)
    10c8:	12 f9       	mov.l	r15,@(36,r2)
    10ca:	12 fb       	mov.l	r15,@(44,r2)
    10cc:	12 fd       	mov.l	r15,@(52,r2)
    10ce:	12 ff       	mov.l	r15,@(60,r2)
    10d0:	13 01       	mov.l	r0,@(4,r3)
    10d2:	13 03       	mov.l	r0,@(12,r3)
    10d4:	13 05       	mov.l	r0,@(20,r3)
    10d6:	13 07       	mov.l	r0,@(28,r3)
    10d8:	13 09       	mov.l	r0,@(36,r3)
    10da:	13 0b       	mov.l	r0,@(44,r3)
    10dc:	13 0d       	mov.l	r0,@(52,r3)
    10de:	13 0f       	mov.l	r0,@(60,r3)
    10e0:	13 11       	mov.l	r1,@(4,r3)
    10e2:	13 13       	mov.l	r1,@(12,r3)
    10e4:	13 15       	mov.l	r1,@(20,r3)
    10e6:	13 17       	mov.l	r1,@(28,r3)
    10e8:	13 19       	mov.l	r1,@(36,r3)
    10ea:	13 1b       	mov.l	r1,@(44,r3)
    10ec:	13 1d       	mov.l	r1,@(52,r3)
    10ee:	13 1f       	mov.l	r1,@(60,r3)
    10f0:	13 21       	mov.l	r2,@(4,r3)
    10f2:	13 23       	mov.l	r2,@(12,r3)
    10f4:	13 26       	mov.l	r2,@(24,r3)
    10f6:	13 28       	mov.l	r2,@(32,r3)
    10f8:	13 2a       	mov.l	r2,@(40,r3)
    10fa:	13 2c       	mov.l	r2,@(48,r3)
    10fc:	13 2e       	mov.l	r2,@(56,r3)
    10fe:	13 30       	mov.l	r3,@(0,r3)
    1100:	13 32       	mov.l	r3,@(8,r3)
    1102:	13 34       	mov.l	r3,@(16,r3)
    1104:	13 36       	mov.l	r3,@(24,r3)
    1106:	13 38       	mov.l	r3,@(32,r3)
    1108:	13 3a       	mov.l	r3,@(40,r3)
    110a:	13 3c       	mov.l	r3,@(48,r3)
    110c:	13 3e       	mov.l	r3,@(56,r3)
    110e:	13 40       	mov.l	r4,@(0,r3)
    1110:	13 42       	mov.l	r4,@(8,r3)
    1112:	13 44       	mov.l	r4,@(16,r3)
    1114:	13 46       	mov.l	r4,@(24,r3)
    1116:	13 48       	mov.l	r4,@(32,r3)
    1118:	13 4a       	mov.l	r4,@(40,r3)
    111a:	13 4c       	mov.l	r4,@(48,r3)
    111c:	13 4e       	mov.l	r4,@(56,r3)
    111e:	13 50       	mov.l	r5,@(0,r3)
    1120:	13 52       	mov.l	r5,@(8,r3)
    1122:	13 54       	mov.l	r5,@(16,r3)
    1124:	13 56       	mov.l	r5,@(24,r3)
    1126:	13 58       	mov.l	r5,@(32,r3)
    1128:	13 5a       	mov.l	r5,@(40,r3)
    112a:	13 5c       	mov.l	r5,@(48,r3)
    112c:	13 5e       	mov.l	r5,@(56,r3)
    112e:	13 60       	mov.l	r6,@(0,r3)
    1130:	13 62       	mov.l	r6,@(8,r3)
    1132:	13 64       	mov.l	r6,@(16,r3)
    1134:	13 66       	mov.l	r6,@(24,r3)
    1136:	13 68       	mov.l	r6,@(32,r3)
    1138:	13 6a       	mov.l	r6,@(40,r3)
    113a:	13 6c       	mov.l	r6,@(48,r3)
    113c:	13 6e       	mov.l	r6,@(56,r3)
    113e:	13 70       	mov.l	r7,@(0,r3)
    1140:	13 72       	mov.l	r7,@(8,r3)
    1142:	13 74       	mov.l	r7,@(16,r3)
    1144:	13 76       	mov.l	r7,@(24,r3)
    1146:	13 78       	mov.l	r7,@(32,r3)
    1148:	13 7a       	mov.l	r7,@(40,r3)
    114a:	13 7c       	mov.l	r7,@(48,r3)
    114c:	13 7e       	mov.l	r7,@(56,r3)
    114e:	13 80       	mov.l	r8,@(0,r3)
    1150:	13 82       	mov.l	r8,@(8,r3)
    1152:	13 84       	mov.l	r8,@(16,r3)
    1154:	13 86       	mov.l	r8,@(24,r3)
    1156:	13 88       	mov.l	r8,@(32,r3)
    1158:	13 8a       	mov.l	r8,@(40,r3)
    115a:	13 8c       	mov.l	r8,@(48,r3)
    115c:	13 8e       	mov.l	r8,@(56,r3)
    115e:	13 90       	mov.l	r9,@(0,r3)
    1160:	13 92       	mov.l	r9,@(8,r3)
    1162:	13 94       	mov.l	r9,@(16,r3)
    1164:	13 96       	mov.l	r9,@(24,r3)
    1166:	13 98       	mov.l	r9,@(32,r3)
    1168:	13 9a       	mov.l	r9,@(40,r3)
    116a:	13 9c       	mov.l	r9,@(48,r3)
    116c:	13 9e       	mov.l	r9,@(56,r3)
    116e:	13 a0       	mov.l	r10,@(0,r3)
    1170:	13 a2       	mov.l	r10,@(8,r3)
    1172:	13 a4       	mov.l	r10,@(16,r3)
    1174:	13 a6       	mov.l	r10,@(24,r3)
    1176:	13 a8       	mov.l	r10,@(32,r3)
    1178:	13 aa       	mov.l	r10,@(40,r3)
    117a:	13 ac       	mov.l	r10,@(48,r3)
    117c:	13 ae       	mov.l	r10,@(56,r3)
    117e:	13 b0       	mov.l	r11,@(0,r3)
    1180:	13 b2       	mov.l	r11,@(8,r3)
    1182:	13 b4       	mov.l	r11,@(16,r3)
    1184:	13 b6       	mov.l	r11,@(24,r3)
    1186:	13 b8       	mov.l	r11,@(32,r3)
    1188:	13 ba       	mov.l	r11,@(40,r3)
    118a:	13 bc       	mov.l	r11,@(48,r3)
    118c:	13 be       	mov.l	r11,@(56,r3)
    118e:	13 c0       	mov.l	r12,@(0,r3)
    1190:	13 c2       	mov.l	r12,@(8,r3)
    1192:	13 c4       	mov.l	r12,@(16,r3)
    1194:	13 c6       	mov.l	r12,@(24,r3)
    1196:	13 c8       	mov.l	r12,@(32,r3)
    1198:	13 ca       	mov.l	r12,@(40,r3)
    119a:	13 cc       	mov.l	r12,@(48,r3)
    119c:	13 ce       	mov.l	r12,@(56,r3)
    119e:	13 d0       	mov.l	r13,@(0,r3)
    11a0:	13 d2       	mov.l	r13,@(8,r3)
    11a2:	13 d4       	mov.l	r13,@(16,r3)
    11a4:	13 d6       	mov.l	r13,@(24,r3)
    11a6:	13 d8       	mov.l	r13,@(32,r3)
    11a8:	13 da       	mov.l	r13,@(40,r3)
    11aa:	13 dc       	mov.l	r13,@(48,r3)
    11ac:	13 de       	mov.l	r13,@(56,r3)
    11ae:	13 e0       	mov.l	r14,@(0,r3)
    11b0:	13 e2       	mov.l	r14,@(8,r3)
    11b2:	13 e4       	mov.l	r14,@(16,r3)
    11b4:	13 e6       	mov.l	r14,@(24,r3)
    11b6:	13 e8       	mov.l	r14,@(32,r3)
    11b8:	13 ea       	mov.l	r14,@(40,r3)
    11ba:	13 ec       	mov.l	r14,@(48,r3)
    11bc:	13 ee       	mov.l	r14,@(56,r3)
    11be:	13 f0       	mov.l	r15,@(0,r3)
    11c0:	13 f2       	mov.l	r15,@(8,r3)
    11c2:	13 f4       	mov.l	r15,@(16,r3)
    11c4:	13 f6       	mov.l	r15,@(24,r3)
    11c6:	13 f8       	mov.l	r15,@(32,r3)
    11c8:	13 fa       	mov.l	r15,@(40,r3)
    11ca:	13 fc       	mov.l	r15,@(48,r3)
    11cc:	13 fe       	mov.l	r15,@(56,r3)
    11ce:	14 00       	mov.l	r0,@(0,r4)
    11d0:	14 02       	mov.l	r0,@(8,r4)
    11d2:	14 04       	mov.l	r0,@(16,r4)
    11d4:	14 06       	mov.l	r0,@(24,r4)
    11d6:	14 08       	mov.l	r0,@(32,r4)
    11d8:	14 0a       	mov.l	r0,@(40,r4)
    11da:	14 0c       	mov.l	r0,@(48,r4)
    11dc:	14 0e       	mov.l	r0,@(56,r4)
    11de:	14 10       	mov.l	r1,@(0,r4)
    11e0:	14 12       	mov.l	r1,@(8,r4)
    11e2:	14 14       	mov.l	r1,@(16,r4)
    11e4:	14 16       	mov.l	r1,@(24,r4)
    11e6:	14 18       	mov.l	r1,@(32,r4)
    11e8:	14 1a       	mov.l	r1,@(40,r4)
    11ea:	14 1b       	mov.l	r1,@(44,r4)
    11ec:	14 1d       	mov.l	r1,@(52,r4)
    11ee:	14 1f       	mov.l	r1,@(60,r4)
    11f0:	14 21       	mov.l	r2,@(4,r4)
    11f2:	14 23       	mov.l	r2,@(12,r4)
    11f4:	14 25       	mov.l	r2,@(20,r4)
    11f6:	14 27       	mov.l	r2,@(28,r4)
    11f8:	14 29       	mov.l	r2,@(36,r4)
    11fa:	14 2b       	mov.l	r2,@(44,r4)
    11fc:	14 2d       	mov.l	r2,@(52,r4)
    11fe:	14 2f       	mov.l	r2,@(60,r4)
    1200:	14 31       	mov.l	r3,@(4,r4)
    1202:	14 33       	mov.l	r3,@(12,r4)
    1204:	14 35       	mov.l	r3,@(20,r4)
    1206:	14 37       	mov.l	r3,@(28,r4)
    1208:	14 39       	mov.l	r3,@(36,r4)
    120a:	14 3b       	mov.l	r3,@(44,r4)
    120c:	14 3d       	mov.l	r3,@(52,r4)
    120e:	14 3f       	mov.l	r3,@(60,r4)
    1210:	14 41       	mov.l	r4,@(4,r4)
    1212:	14 43       	mov.l	r4,@(12,r4)
    1214:	14 45       	mov.l	r4,@(20,r4)
    1216:	14 47       	mov.l	r4,@(28,r4)
    1218:	14 49       	mov.l	r4,@(36,r4)
    121a:	14 4b       	mov.l	r4,@(44,r4)
    121c:	14 4d       	mov.l	r4,@(52,r4)
    121e:	14 4f       	mov.l	r4,@(60,r4)
    1220:	14 51       	mov.l	r5,@(4,r4)
    1222:	14 53       	mov.l	r5,@(12,r4)
    1224:	14 55       	mov.l	r5,@(20,r4)
    1226:	14 57       	mov.l	r5,@(28,r4)
    1228:	14 59       	mov.l	r5,@(36,r4)
    122a:	14 5a       	mov.l	r5,@(40,r4)
    122c:	14 5c       	mov.l	r5,@(48,r4)
    122e:	14 5e       	mov.l	r5,@(56,r4)
    1230:	14 60       	mov.l	r6,@(0,r4)
    1232:	14 62       	mov.l	r6,@(8,r4)
    1234:	14 64       	mov.l	r6,@(16,r4)
    1236:	14 66       	mov.l	r6,@(24,r4)
    1238:	14 68       	mov.l	r6,@(32,r4)
    123a:	14 6a       	mov.l	r6,@(40,r4)
    123c:	14 6c       	mov.l	r6,@(48,r4)
    123e:	14 6e       	mov.l	r6,@(56,r4)
    1240:	14 70       	mov.l	r7,@(0,r4)
    1242:	14 72       	mov.l	r7,@(8,r4)
    1244:	14 74       	mov.l	r7,@(16,r4)
    1246:	14 76       	mov.l	r7,@(24,r4)
    1248:	14 78       	mov.l	r7,@(32,r4)
    124a:	14 7a       	mov.l	r7,@(40,r4)
    124c:	14 7c       	mov.l	r7,@(48,r4)
    124e:	14 7e       	mov.l	r7,@(56,r4)
    1250:	14 80       	mov.l	r8,@(0,r4)
    1252:	14 82       	mov.l	r8,@(8,r4)
    1254:	14 84       	mov.l	r8,@(16,r4)
    1256:	14 86       	mov.l	r8,@(24,r4)
    1258:	14 88       	mov.l	r8,@(32,r4)
    125a:	14 89       	mov.l	r8,@(36,r4)
    125c:	14 8b       	mov.l	r8,@(44,r4)
    125e:	14 8d       	mov.l	r8,@(52,r4)
    1260:	14 8f       	mov.l	r8,@(60,r4)
    1262:	14 91       	mov.l	r9,@(4,r4)
    1264:	14 93       	mov.l	r9,@(12,r4)
    1266:	14 95       	mov.l	r9,@(20,r4)
    1268:	14 97       	mov.l	r9,@(28,r4)
    126a:	14 99       	mov.l	r9,@(36,r4)
    126c:	14 9b       	mov.l	r9,@(44,r4)
    126e:	14 9d       	mov.l	r9,@(52,r4)
    1270:	14 9f       	mov.l	r9,@(60,r4)
    1272:	14 a1       	mov.l	r10,@(4,r4)
    1274:	14 a3       	mov.l	r10,@(12,r4)
    1276:	14 a5       	mov.l	r10,@(20,r4)
    1278:	14 a7       	mov.l	r10,@(28,r4)
    127a:	14 a9       	mov.l	r10,@(36,r4)
    127c:	14 ab       	mov.l	r10,@(44,r4)
    127e:	14 ad       	mov.l	r10,@(52,r4)
    1280:	14 ae       	mov.l	r10,@(56,r4)
    1282:	14 b0       	mov.l	r11,@(0,r4)
    1284:	14 b2       	mov.l	r11,@(8,r4)
    1286:	14 b4       	mov.l	r11,@(16,r4)
    1288:	14 b6       	mov.l	r11,@(24,r4)
    128a:	14 b8       	mov.l	r11,@(32,r4)
    128c:	14 ba       	mov.l	r11,@(40,r4)
    128e:	14 bc       	mov.l	r11,@(48,r4)
    1290:	14 be       	mov.l	r11,@(56,r4)
    1292:	14 c0       	mov.l	r12,@(0,r4)
    1294:	14 c2       	mov.l	r12,@(8,r4)
    1296:	14 c4       	mov.l	r12,@(16,r4)
    1298:	14 c6       	mov.l	r12,@(24,r4)
    129a:	14 c8       	mov.l	r12,@(32,r4)
    129c:	14 ca       	mov.l	r12,@(40,r4)
    129e:	14 cc       	mov.l	r12,@(48,r4)
    12a0:	14 ce       	mov.l	r12,@(56,r4)
    12a2:	14 cf       	mov.l	r12,@(60,r4)
    12a4:	14 d1       	mov.l	r13,@(4,r4)
    12a6:	14 d3       	mov.l	r13,@(12,r4)
    12a8:	14 d5       	mov.l	r13,@(20,r4)
    12aa:	14 d7       	mov.l	r13,@(28,r4)
    12ac:	14 d9       	mov.l	r13,@(36,r4)
    12ae:	14 db       	mov.l	r13,@(44,r4)
    12b0:	14 dd       	mov.l	r13,@(52,r4)
    12b2:	14 df       	mov.l	r13,@(60,r4)
    12b4:	14 e1       	mov.l	r14,@(4,r4)
    12b6:	14 e3       	mov.l	r14,@(12,r4)
    12b8:	14 e5       	mov.l	r14,@(20,r4)
    12ba:	14 e7       	mov.l	r14,@(28,r4)
    12bc:	14 e9       	mov.l	r14,@(36,r4)
    12be:	14 eb       	mov.l	r14,@(44,r4)
    12c0:	14 ed       	mov.l	r14,@(52,r4)
    12c2:	14 ee       	mov.l	r14,@(56,r4)
    12c4:	14 f0       	mov.l	r15,@(0,r4)
    12c6:	14 f2       	mov.l	r15,@(8,r4)
    12c8:	14 f4       	mov.l	r15,@(16,r4)
    12ca:	14 f6       	mov.l	r15,@(24,r4)
    12cc:	14 f8       	mov.l	r15,@(32,r4)
    12ce:	14 fa       	mov.l	r15,@(40,r4)
    12d0:	14 fc       	mov.l	r15,@(48,r4)
    12d2:	14 fe       	mov.l	r15,@(56,r4)
    12d4:	15 00       	mov.l	r0,@(0,r5)
    12d6:	15 02       	mov.l	r0,@(8,r5)
    12d8:	15 04       	mov.l	r0,@(16,r5)
    12da:	15 06       	mov.l	r0,@(24,r5)
    12dc:	15 08       	mov.l	r0,@(32,r5)
    12de:	15 09       	mov.l	r0,@(36,r5)
    12e0:	15 0b       	mov.l	r0,@(44,r5)
    12e2:	15 0d       	mov.l	r0,@(52,r5)
    12e4:	15 0f       	mov.l	r0,@(60,r5)
    12e6:	15 11       	mov.l	r1,@(4,r5)
    12e8:	15 13       	mov.l	r1,@(12,r5)
    12ea:	15 15       	mov.l	r1,@(20,r5)
    12ec:	15 17       	mov.l	r1,@(28,r5)
    12ee:	15 19       	mov.l	r1,@(36,r5)
    12f0:	15 1b       	mov.l	r1,@(44,r5)
    12f2:	15 1d       	mov.l	r1,@(52,r5)
    12f4:	15 1f       	mov.l	r1,@(60,r5)
    12f6:	15 21       	mov.l	r2,@(4,r5)
    12f8:	15 22       	mov.l	r2,@(8,r5)
    12fa:	15 24       	mov.l	r2,@(16,r5)
    12fc:	15 26       	mov.l	r2,@(24,r5)
    12fe:	15 28       	mov.l	r2,@(32,r5)
    1300:	15 2a       	mov.l	r2,@(40,r5)
    1302:	15 2c       	mov.l	r2,@(48,r5)
    1304:	15 2e       	mov.l	r2,@(56,r5)
    1306:	15 30       	mov.l	r3,@(0,r5)
    1308:	15 32       	mov.l	r3,@(8,r5)
    130a:	15 34       	mov.l	r3,@(16,r5)
    130c:	15 36       	mov.l	r3,@(24,r5)
    130e:	15 38       	mov.l	r3,@(32,r5)
    1310:	15 39       	mov.l	r3,@(36,r5)
    1312:	15 3b       	mov.l	r3,@(44,r5)
    1314:	15 3d       	mov.l	r3,@(52,r5)
    1316:	15 3f       	mov.l	r3,@(60,r5)
    1318:	15 41       	mov.l	r4,@(4,r5)
    131a:	15 43       	mov.l	r4,@(12,r5)
    131c:	15 45       	mov.l	r4,@(20,r5)
    131e:	15 47       	mov.l	r4,@(28,r5)
    1320:	15 49       	mov.l	r4,@(36,r5)
    1322:	15 4b       	mov.l	r4,@(44,r5)
    1324:	15 4d       	mov.l	r4,@(52,r5)
    1326:	15 4f       	mov.l	r4,@(60,r5)
    1328:	15 50       	mov.l	r5,@(0,r5)
    132a:	15 52       	mov.l	r5,@(8,r5)
    132c:	15 54       	mov.l	r5,@(16,r5)
    132e:	15 56       	mov.l	r5,@(24,r5)
    1330:	15 58       	mov.l	r5,@(32,r5)
    1332:	15 5a       	mov.l	r5,@(40,r5)
    1334:	15 5c       	mov.l	r5,@(48,r5)
    1336:	15 5e       	mov.l	r5,@(56,r5)
    1338:	15 60       	mov.l	r6,@(0,r5)
    133a:	15 62       	mov.l	r6,@(8,r5)
    133c:	15 64       	mov.l	r6,@(16,r5)
    133e:	15 65       	mov.l	r6,@(20,r5)
    1340:	15 67       	mov.l	r6,@(28,r5)
    1342:	15 69       	mov.l	r6,@(36,r5)
    1344:	15 6b       	mov.l	r6,@(44,r5)
    1346:	15 6d       	mov.l	r6,@(52,r5)
    1348:	15 6f       	mov.l	r6,@(60,r5)
    134a:	15 71       	mov.l	r7,@(4,r5)
    134c:	15 73       	mov.l	r7,@(12,r5)
    134e:	15 75       	mov.l	r7,@(20,r5)
    1350:	15 77       	mov.l	r7,@(28,r5)
    1352:	15 78       	mov.l	r7,@(32,r5)
    1354:	15 7a       	mov.l	r7,@(40,r5)
    1356:	15 7c       	mov.l	r7,@(48,r5)
    1358:	15 7e       	mov.l	r7,@(56,r5)
    135a:	15 80       	mov.l	r8,@(0,r5)
    135c:	15 82       	mov.l	r8,@(8,r5)
    135e:	15 84       	mov.l	r8,@(16,r5)
    1360:	15 86       	mov.l	r8,@(24,r5)
    1362:	15 88       	mov.l	r8,@(32,r5)
    1364:	15 8a       	mov.l	r8,@(40,r5)
    1366:	15 8b       	mov.l	r8,@(44,r5)
    1368:	15 8d       	mov.l	r8,@(52,r5)
    136a:	15 8f       	mov.l	r8,@(60,r5)
    136c:	15 91       	mov.l	r9,@(4,r5)
    136e:	15 93       	mov.l	r9,@(12,r5)
    1370:	15 95       	mov.l	r9,@(20,r5)
    1372:	15 97       	mov.l	r9,@(28,r5)
    1374:	15 99       	mov.l	r9,@(36,r5)
    1376:	15 9b       	mov.l	r9,@(44,r5)
    1378:	15 9d       	mov.l	r9,@(52,r5)
    137a:	15 9e       	mov.l	r9,@(56,r5)
    137c:	15 a0       	mov.l	r10,@(0,r5)
    137e:	15 a2       	mov.l	r10,@(8,r5)
    1380:	15 a4       	mov.l	r10,@(16,r5)
    1382:	15 a6       	mov.l	r10,@(24,r5)
    1384:	15 a8       	mov.l	r10,@(32,r5)
    1386:	15 aa       	mov.l	r10,@(40,r5)
    1388:	15 ac       	mov.l	r10,@(48,r5)
    138a:	15 ae       	mov.l	r10,@(56,r5)
    138c:	15 af       	mov.l	r10,@(60,r5)
    138e:	15 b1       	mov.l	r11,@(4,r5)
    1390:	15 b3       	mov.l	r11,@(12,r5)
    1392:	15 b5       	mov.l	r11,@(20,r5)
    1394:	15 b7       	mov.l	r11,@(28,r5)
    1396:	15 b9       	mov.l	r11,@(36,r5)
    1398:	15 bb       	mov.l	r11,@(44,r5)
    139a:	15 bd       	mov.l	r11,@(52,r5)
    139c:	15 bf       	mov.l	r11,@(60,r5)
    139e:	15 c0       	mov.l	r12,@(0,r5)
    13a0:	15 c2       	mov.l	r12,@(8,r5)
    13a2:	15 c4       	mov.l	r12,@(16,r5)
    13a4:	15 c6       	mov.l	r12,@(24,r5)
    13a6:	15 c8       	mov.l	r12,@(32,r5)
    13a8:	15 ca       	mov.l	r12,@(40,r5)
    13aa:	15 cc       	mov.l	r12,@(48,r5)
    13ac:	15 ce       	mov.l	r12,@(56,r5)
    13ae:	15 d0       	mov.l	r13,@(0,r5)
    13b0:	15 d1       	mov.l	r13,@(4,r5)
    13b2:	15 d3       	mov.l	r13,@(12,r5)
    13b4:	15 d5       	mov.l	r13,@(20,r5)
    13b6:	15 d7       	mov.l	r13,@(28,r5)
    13b8:	15 d9       	mov.l	r13,@(36,r5)
    13ba:	15 db       	mov.l	r13,@(44,r5)
    13bc:	15 dd       	mov.l	r13,@(52,r5)
    13be:	15 df       	mov.l	r13,@(60,r5)
    13c0:	15 e1       	mov.l	r14,@(4,r5)
    13c2:	15 e2       	mov.l	r14,@(8,r5)
    13c4:	15 e4       	mov.l	r14,@(16,r5)
    13c6:	15 e6       	mov.l	r14,@(24,r5)
    13c8:	15 e8       	mov.l	r14,@(32,r5)
    13ca:	15 ea       	mov.l	r14,@(40,r5)
    13cc:	15 ec       	mov.l	r14,@(48,r5)
    13ce:	15 ee       	mov.l	r14,@(56,r5)
    13d0:	15 f0       	mov.l	r15,@(0,r5)
    13d2:	15 f1       	mov.l	r15,@(4,r5)
    13d4:	15 f3       	mov.l	r15,@(12,r5)
    13d6:	15 f5       	mov.l	r15,@(20,r5)
    13d8:	15 f7       	mov.l	r15,@(28,r5)
    13da:	15 f9       	mov.l	r15,@(36,r5)
    13dc:	15 fb       	mov.l	r15,@(44,r5)
    13de:	15 fd       	mov.l	r15,@(52,r5)
    13e0:	15 ff       	mov.l	r15,@(60,r5)
    13e2:	16 00       	mov.l	r0,@(0,r6)
    13e4:	16 02       	mov.l	r0,@(8,r6)
    13e6:	16 04       	mov.l	r0,@(16,r6)
    13e8:	16 06       	mov.l	r0,@(24,r6)
    13ea:	16 08       	mov.l	r0,@(32,r6)
    13ec:	16 0a       	mov.l	r0,@(40,r6)
    13ee:	16 0c       	mov.l	r0,@(48,r6)
    13f0:	16 0e       	mov.l	r0,@(56,r6)
    13f2:	16 0f       	mov.l	r0,@(60,r6)
    13f4:	16 11       	mov.l	r1,@(4,r6)
    13f6:	16 13       	mov.l	r1,@(12,r6)
    13f8:	16 15       	mov.l	r1,@(20,r6)
    13fa:	16 17       	mov.l	r1,@(28,r6)
    13fc:	16 19       	mov.l	r1,@(36,r6)
    13fe:	16 1b       	mov.l	r1,@(44,r6)
    1400:	16 1c       	mov.l	r1,@(48,r6)
    1402:	16 1e       	mov.l	r1,@(56,r6)
    1404:	16 20       	mov.l	r2,@(0,r6)
    1406:	16 22       	mov.l	r2,@(8,r6)
    1408:	16 24       	mov.l	r2,@(16,r6)
    140a:	16 26       	mov.l	r2,@(24,r6)
    140c:	16 28       	mov.l	r2,@(32,r6)
    140e:	16 2a       	mov.l	r2,@(40,r6)
    1410:	16 2b       	mov.l	r2,@(44,r6)
    1412:	16 2d       	mov.l	r2,@(52,r6)
    1414:	16 2f       	mov.l	r2,@(60,r6)
    1416:	16 31       	mov.l	r3,@(4,r6)
    1418:	16 33       	mov.l	r3,@(12,r6)
    141a:	16 35       	mov.l	r3,@(20,r6)
    141c:	16 37       	mov.l	r3,@(28,r6)
    141e:	16 38       	mov.l	r3,@(32,r6)
    1420:	16 3a       	mov.l	r3,@(40,r6)
    1422:	16 3c       	mov.l	r3,@(48,r6)
    1424:	16 3e       	mov.l	r3,@(56,r6)
    1426:	16 40       	mov.l	r4,@(0,r6)
    1428:	16 42       	mov.l	r4,@(8,r6)
    142a:	16 44       	mov.l	r4,@(16,r6)
    142c:	16 45       	mov.l	r4,@(20,r6)
    142e:	16 47       	mov.l	r4,@(28,r6)
    1430:	16 49       	mov.l	r4,@(36,r6)
    1432:	16 4b       	mov.l	r4,@(44,r6)
    1434:	16 4d       	mov.l	r4,@(52,r6)
    1436:	16 4f       	mov.l	r4,@(60,r6)
    1438:	16 51       	mov.l	r5,@(4,r6)
    143a:	16 52       	mov.l	r5,@(8,r6)
    143c:	16 54       	mov.l	r5,@(16,r6)
    143e:	16 56       	mov.l	r5,@(24,r6)
    1440:	16 58       	mov.l	r5,@(32,r6)
    1442:	16 5a       	mov.l	r5,@(40,r6)
    1444:	16 5c       	mov.l	r5,@(48,r6)
    1446:	16 5e       	mov.l	r5,@(56,r6)
    1448:	16 5f       	mov.l	r5,@(60,r6)
    144a:	16 61       	mov.l	r6,@(4,r6)
    144c:	16 63       	mov.l	r6,@(12,r6)
    144e:	16 65       	mov.l	r6,@(20,r6)
    1450:	16 67       	mov.l	r6,@(28,r6)
    1452:	16 69       	mov.l	r6,@(36,r6)
    1454:	16 6b       	mov.l	r6,@(44,r6)
    1456:	16 6c       	mov.l	r6,@(48,r6)
    1458:	16 6e       	mov.l	r6,@(56,r6)
    145a:	16 70       	mov.l	r7,@(0,r6)
    145c:	16 72       	mov.l	r7,@(8,r6)
    145e:	16 74       	mov.l	r7,@(16,r6)
    1460:	16 76       	mov.l	r7,@(24,r6)
    1462:	16 77       	mov.l	r7,@(28,r6)
    1464:	16 79       	mov.l	r7,@(36,r6)
    1466:	16 7b       	mov.l	r7,@(44,r6)
    1468:	16 7d       	mov.l	r7,@(52,r6)
    146a:	16 7f       	mov.l	r7,@(60,r6)
    146c:	16 81       	mov.l	r8,@(4,r6)
    146e:	16 83       	mov.l	r8,@(12,r6)
    1470:	16 84       	mov.l	r8,@(16,r6)
    1472:	16 86       	mov.l	r8,@(24,r6)
    1474:	16 88       	mov.l	r8,@(32,r6)
    1476:	16 8a       	mov.l	r8,@(40,r6)
    1478:	16 8c       	mov.l	r8,@(48,r6)
    147a:	16 8e       	mov.l	r8,@(56,r6)
    147c:	16 8f       	mov.l	r8,@(60,r6)
    147e:	16 91       	mov.l	r9,@(4,r6)
    1480:	16 93       	mov.l	r9,@(12,r6)
    1482:	16 95       	mov.l	r9,@(20,r6)
    1484:	16 97       	mov.l	r9,@(28,r6)
    1486:	16 99       	mov.l	r9,@(36,r6)
    1488:	16 9b       	mov.l	r9,@(44,r6)
    148a:	16 9c       	mov.l	r9,@(48,r6)
    148c:	16 9e       	mov.l	r9,@(56,r6)
    148e:	16 a0       	mov.l	r10,@(0,r6)
    1490:	16 a2       	mov.l	r10,@(8,r6)
    1492:	16 a4       	mov.l	r10,@(16,r6)
    1494:	16 a6       	mov.l	r10,@(24,r6)
    1496:	16 a7       	mov.l	r10,@(28,r6)
    1498:	16 a9       	mov.l	r10,@(36,r6)
    149a:	16 ab       	mov.l	r10,@(44,r6)
    149c:	16 ad       	mov.l	r10,@(52,r6)
    149e:	16 af       	mov.l	r10,@(60,r6)
    14a0:	16 b1       	mov.l	r11,@(4,r6)
    14a2:	16 b2       	mov.l	r11,@(8,r6)
    14a4:	16 b4       	mov.l	r11,@(16,r6)
    14a6:	16 b6       	mov.l	r11,@(24,r6)
    14a8:	16 b8       	mov.l	r11,@(32,r6)
    14aa:	16 ba       	mov.l	r11,@(40,r6)
    14ac:	16 bc       	mov.l	r11,@(48,r6)
    14ae:	16 bd       	mov.l	r11,@(52,r6)
    14b0:	16 bf       	mov.l	r11,@(60,r6)
    14b2:	16 c1       	mov.l	r12,@(4,r6)
    14b4:	16 c3       	mov.l	r12,@(12,r6)
    14b6:	16 c5       	mov.l	r12,@(20,r6)
    14b8:	16 c7       	mov.l	r12,@(28,r6)
    14ba:	16 c8       	mov.l	r12,@(32,r6)
    14bc:	16 ca       	mov.l	r12,@(40,r6)
    14be:	16 cc       	mov.l	r12,@(48,r6)
    14c0:	16 ce       	mov.l	r12,@(56,r6)
    14c2:	16 d0       	mov.l	r13,@(0,r6)
    14c4:	16 d2       	mov.l	r13,@(8,r6)
    14c6:	16 d3       	mov.l	r13,@(12,r6)
    14c8:	16 d5       	mov.l	r13,@(20,r6)
    14ca:	16 d7       	mov.l	r13,@(28,r6)
    14cc:	16 d9       	mov.l	r13,@(36,r6)
    14ce:	16 db       	mov.l	r13,@(44,r6)
    14d0:	16 dc       	mov.l	r13,@(48,r6)
    14d2:	16 de       	mov.l	r13,@(56,r6)
    14d4:	16 e0       	mov.l	r14,@(0,r6)
    14d6:	16 e2       	mov.l	r14,@(8,r6)
    14d8:	16 e4       	mov.l	r14,@(16,r6)
    14da:	16 e6       	mov.l	r14,@(24,r6)
    14dc:	16 e7       	mov.l	r14,@(28,r6)
    14de:	16 e9       	mov.l	r14,@(36,r6)
    14e0:	16 eb       	mov.l	r14,@(44,r6)
    14e2:	16 ed       	mov.l	r14,@(52,r6)
    14e4:	16 ef       	mov.l	r14,@(60,r6)
    14e6:	16 f1       	mov.l	r15,@(4,r6)
    14e8:	16 f2       	mov.l	r15,@(8,r6)
    14ea:	16 f4       	mov.l	r15,@(16,r6)
    14ec:	16 f6       	mov.l	r15,@(24,r6)
    14ee:	16 f8       	mov.l	r15,@(32,r6)
    14f0:	16 fa       	mov.l	r15,@(40,r6)
    14f2:	16 fb       	mov.l	r15,@(44,r6)
    14f4:	16 fd       	mov.l	r15,@(52,r6)
    14f6:	16 ff       	mov.l	r15,@(60,r6)
    14f8:	17 01       	mov.l	r0,@(4,r7)
    14fa:	17 03       	mov.l	r0,@(12,r7)
    14fc:	17 05       	mov.l	r0,@(20,r7)
    14fe:	17 06       	mov.l	r0,@(24,r7)
    1500:	17 08       	mov.l	r0,@(32,r7)
    1502:	17 0a       	mov.l	r0,@(40,r7)
    1504:	17 0c       	mov.l	r0,@(48,r7)
    1506:	17 0e       	mov.l	r0,@(56,r7)
    1508:	17 0f       	mov.l	r0,@(60,r7)
    150a:	17 11       	mov.l	r1,@(4,r7)
    150c:	17 13       	mov.l	r1,@(12,r7)
    150e:	17 15       	mov.l	r1,@(20,r7)
    1510:	17 17       	mov.l	r1,@(28,r7)
    1512:	17 19       	mov.l	r1,@(36,r7)
    1514:	17 1a       	mov.l	r1,@(40,r7)
    1516:	17 1c       	mov.l	r1,@(48,r7)
    1518:	17 1e       	mov.l	r1,@(56,r7)
    151a:	17 20       	mov.l	r2,@(0,r7)
    151c:	17 22       	mov.l	r2,@(8,r7)
    151e:	17 23       	mov.l	r2,@(12,r7)
    1520:	17 25       	mov.l	r2,@(20,r7)
    1522:	17 27       	mov.l	r2,@(28,r7)
    1524:	17 29       	mov.l	r2,@(36,r7)
    1526:	17 2b       	mov.l	r2,@(44,r7)
    1528:	17 2c       	mov.l	r2,@(48,r7)
    152a:	17 2e       	mov.l	r2,@(56,r7)
    152c:	17 30       	mov.l	r3,@(0,r7)
    152e:	17 32       	mov.l	r3,@(8,r7)
    1530:	17 34       	mov.l	r3,@(16,r7)
    1532:	17 35       	mov.l	r3,@(20,r7)
    1534:	17 37       	mov.l	r3,@(28,r7)
    1536:	17 39       	mov.l	r3,@(36,r7)
    1538:	17 3b       	mov.l	r3,@(44,r7)
    153a:	17 3d       	mov.l	r3,@(52,r7)
    153c:	17 3e       	mov.l	r3,@(56,r7)
    153e:	17 40       	mov.l	r4,@(0,r7)
    1540:	17 42       	mov.l	r4,@(8,r7)
    1542:	17 44       	mov.l	r4,@(16,r7)
    1544:	17 46       	mov.l	r4,@(24,r7)
    1546:	17 48       	mov.l	r4,@(32,r7)
    1548:	17 49       	mov.l	r4,@(36,r7)
    154a:	17 4b       	mov.l	r4,@(44,r7)
    154c:	17 4d       	mov.l	r4,@(52,r7)
    154e:	17 4f       	mov.l	r4,@(60,r7)
    1550:	17 51       	mov.l	r5,@(4,r7)
    1552:	17 52       	mov.l	r5,@(8,r7)
    1554:	17 54       	mov.l	r5,@(16,r7)
    1556:	17 56       	mov.l	r5,@(24,r7)
    1558:	17 58       	mov.l	r5,@(32,r7)
    155a:	17 5a       	mov.l	r5,@(40,r7)
    155c:	17 5b       	mov.l	r5,@(44,r7)
    155e:	17 5d       	mov.l	r5,@(52,r7)
    1560:	17 5f       	mov.l	r5,@(60,r7)
    1562:	17 61       	mov.l	r6,@(4,r7)
    1564:	17 62       	mov.l	r6,@(8,r7)
    1566:	17 64       	mov.l	r6,@(16,r7)
    1568:	17 66       	mov.l	r6,@(24,r7)
    156a:	17 68       	mov.l	r6,@(32,r7)
    156c:	17 6a       	mov.l	r6,@(40,r7)
    156e:	17 6b       	mov.l	r6,@(44,r7)
    1570:	17 6d       	mov.l	r6,@(52,r7)
    1572:	17 6f       	mov.l	r6,@(60,r7)
    1574:	17 71       	mov.l	r7,@(4,r7)
    1576:	17 73       	mov.l	r7,@(12,r7)
    1578:	17 74       	mov.l	r7,@(16,r7)
    157a:	17 76       	mov.l	r7,@(24,r7)
    157c:	17 78       	mov.l	r7,@(32,r7)
    157e:	17 7a       	mov.l	r7,@(40,r7)
    1580:	17 7c       	mov.l	r7,@(48,r7)
    1582:	17 7d       	mov.l	r7,@(52,r7)
    1584:	17 7f       	mov.l	r7,@(60,r7)
    1586:	17 81       	mov.l	r8,@(4,r7)
    1588:	17 83       	mov.l	r8,@(12,r7)
    158a:	17 85       	mov.l	r8,@(20,r7)
    158c:	17 86       	mov.l	r8,@(24,r7)
    158e:	17 88       	mov.l	r8,@(32,r7)
    1590:	17 8a       	mov.l	r8,@(40,r7)
    1592:	17 8c       	mov.l	r8,@(48,r7)
    1594:	17 8d       	mov.l	r8,@(52,r7)
    1596:	17 8f       	mov.l	r8,@(60,r7)
    1598:	17 91       	mov.l	r9,@(4,r7)
    159a:	17 93       	mov.l	r9,@(12,r7)
    159c:	17 95       	mov.l	r9,@(20,r7)
    159e:	17 96       	mov.l	r9,@(24,r7)
    15a0:	17 98       	mov.l	r9,@(32,r7)
    15a2:	17 9a       	mov.l	r9,@(40,r7)
    15a4:	17 9c       	mov.l	r9,@(48,r7)
    15a6:	17 9e       	mov.l	r9,@(56,r7)
    15a8:	17 9f       	mov.l	r9,@(60,r7)
    15aa:	17 a1       	mov.l	r10,@(4,r7)
    15ac:	17 a3       	mov.l	r10,@(12,r7)
    15ae:	17 a5       	mov.l	r10,@(20,r7)
    15b0:	17 a6       	mov.l	r10,@(24,r7)
    15b2:	17 a8       	mov.l	r10,@(32,r7)
    15b4:	17 aa       	mov.l	r10,@(40,r7)
    15b6:	17 ac       	mov.l	r10,@(48,r7)
    15b8:	17 ae       	mov.l	r10,@(56,r7)
    15ba:	17 af       	mov.l	r10,@(60,r7)
    15bc:	17 b1       	mov.l	r11,@(4,r7)
    15be:	17 b3       	mov.l	r11,@(12,r7)
    15c0:	17 b5       	mov.l	r11,@(20,r7)
    15c2:	17 b6       	mov.l	r11,@(24,r7)
    15c4:	17 b8       	mov.l	r11,@(32,r7)
    15c6:	17 ba       	mov.l	r11,@(40,r7)
    15c8:	17 bc       	mov.l	r11,@(48,r7)
    15ca:	17 be       	mov.l	r11,@(56,r7)
    15cc:	17 bf       	mov.l	r11,@(60,r7)
    15ce:	17 c1       	mov.l	r12,@(4,r7)
    15d0:	17 c3       	mov.l	r12,@(12,r7)
    15d2:	17 c5       	mov.l	r12,@(20,r7)
    15d4:	17 c6       	mov.l	r12,@(24,r7)
    15d6:	17 c8       	mov.l	r12,@(32,r7)
    15d8:	17 ca       	mov.l	r12,@(40,r7)
    15da:	17 cc       	mov.l	r12,@(48,r7)
    15dc:	17 ce       	mov.l	r12,@(56,r7)
    15de:	17 cf       	mov.l	r12,@(60,r7)
    15e0:	17 d1       	mov.l	r13,@(4,r7)
    15e2:	17 d3       	mov.l	r13,@(12,r7)
    15e4:	17 d5       	mov.l	r13,@(20,r7)
    15e6:	17 d6       	mov.l	r13,@(24,r7)
    15e8:	17 d8       	mov.l	r13,@(32,r7)
    15ea:	17 da       	mov.l	r13,@(40,r7)
    15ec:	17 dc       	mov.l	r13,@(48,r7)
    15ee:	17 dd       	mov.l	r13,@(52,r7)
    15f0:	17 df       	mov.l	r13,@(60,r7)
    15f2:	17 e1       	mov.l	r14,@(4,r7)
    15f4:	17 e3       	mov.l	r14,@(12,r7)
    15f6:	17 e5       	mov.l	r14,@(20,r7)
    15f8:	17 e6       	mov.l	r14,@(24,r7)
    15fa:	17 e8       	mov.l	r14,@(32,r7)
    15fc:	17 ea       	mov.l	r14,@(40,r7)
    15fe:	17 ec       	mov.l	r14,@(48,r7)
    1600:	17 ed       	mov.l	r14,@(52,r7)
    1602:	17 ef       	mov.l	r14,@(60,r7)
    1604:	17 f1       	mov.l	r15,@(4,r7)
    1606:	17 f3       	mov.l	r15,@(12,r7)
    1608:	17 f4       	mov.l	r15,@(16,r7)
    160a:	17 f6       	mov.l	r15,@(24,r7)
    160c:	17 f8       	mov.l	r15,@(32,r7)
    160e:	17 fa       	mov.l	r15,@(40,r7)
    1610:	17 fb       	mov.l	r15,@(44,r7)
    1612:	17 fd       	mov.l	r15,@(52,r7)
    1614:	17 ff       	mov.l	r15,@(60,r7)
    1616:	18 01       	mov.l	r0,@(4,r8)
    1618:	18 03       	mov.l	r0,@(12,r8)
    161a:	18 04       	mov.l	r0,@(16,r8)
    161c:	18 06       	mov.l	r0,@(24,r8)
    161e:	18 08       	mov.l	r0,@(32,r8)
    1620:	18 0a       	mov.l	r0,@(40,r8)
    1622:	18 0b       	mov.l	r0,@(44,r8)
    1624:	18 0d       	mov.l	r0,@(52,r8)
    1626:	18 0f       	mov.l	r0,@(60,r8)
    1628:	18 11       	mov.l	r1,@(4,r8)
    162a:	18 12       	mov.l	r1,@(8,r8)
    162c:	18 14       	mov.l	r1,@(16,r8)
    162e:	18 16       	mov.l	r1,@(24,r8)
    1630:	18 18       	mov.l	r1,@(32,r8)
    1632:	18 19       	mov.l	r1,@(36,r8)
    1634:	18 1b       	mov.l	r1,@(44,r8)
    1636:	18 1d       	mov.l	r1,@(52,r8)
    1638:	18 1f       	mov.l	r1,@(60,r8)
    163a:	18 20       	mov.l	r2,@(0,r8)
    163c:	18 22       	mov.l	r2,@(8,r8)
    163e:	18 24       	mov.l	r2,@(16,r8)
    1640:	18 26       	mov.l	r2,@(24,r8)
    1642:	18 27       	mov.l	r2,@(28,r8)
    1644:	18 29       	mov.l	r2,@(36,r8)
    1646:	18 2b       	mov.l	r2,@(44,r8)
    1648:	18 2d       	mov.l	r2,@(52,r8)
    164a:	18 2e       	mov.l	r2,@(56,r8)
    164c:	18 30       	mov.l	r3,@(0,r8)
    164e:	18 32       	mov.l	r3,@(8,r8)
    1650:	18 34       	mov.l	r3,@(16,r8)
    1652:	18 35       	mov.l	r3,@(20,r8)
    1654:	18 37       	mov.l	r3,@(28,r8)
    1656:	18 39       	mov.l	r3,@(36,r8)
    1658:	18 3b       	mov.l	r3,@(44,r8)
    165a:	18 3c       	mov.l	r3,@(48,r8)
    165c:	18 3e       	mov.l	r3,@(56,r8)
    165e:	18 40       	mov.l	r4,@(0,r8)
    1660:	18 42       	mov.l	r4,@(8,r8)
    1662:	18 43       	mov.l	r4,@(12,r8)
    1664:	18 45       	mov.l	r4,@(20,r8)
    1666:	18 47       	mov.l	r4,@(28,r8)
    1668:	18 49       	mov.l	r4,@(36,r8)
    166a:	18 4a       	mov.l	r4,@(40,r8)
    166c:	18 4c       	mov.l	r4,@(48,r8)
    166e:	18 4e       	mov.l	r4,@(56,r8)
    1670:	18 50       	mov.l	r5,@(0,r8)
    1672:	18 51       	mov.l	r5,@(4,r8)
    1674:	18 53       	mov.l	r5,@(12,r8)
    1676:	18 55       	mov.l	r5,@(20,r8)
    1678:	18 57       	mov.l	r5,@(28,r8)
    167a:	18 58       	mov.l	r5,@(32,r8)
    167c:	18 5a       	mov.l	r5,@(40,r8)
    167e:	18 5c       	mov.l	r5,@(48,r8)
    1680:	18 5d       	mov.l	r5,@(52,r8)
    1682:	18 5f       	mov.l	r5,@(60,r8)
    1684:	18 61       	mov.l	r6,@(4,r8)
    1686:	18 63       	mov.l	r6,@(12,r8)
    1688:	18 64       	mov.l	r6,@(16,r8)
    168a:	18 66       	mov.l	r6,@(24,r8)
    168c:	18 68       	mov.l	r6,@(32,r8)
    168e:	18 6a       	mov.l	r6,@(40,r8)
    1690:	18 6b       	mov.l	r6,@(44,r8)
    1692:	18 6d       	mov.l	r6,@(52,r8)
    1694:	18 6f       	mov.l	r6,@(60,r8)
    1696:	18 71       	mov.l	r7,@(4,r8)
    1698:	18 72       	mov.l	r7,@(8,r8)
    169a:	18 74       	mov.l	r7,@(16,r8)
    169c:	18 76       	mov.l	r7,@(24,r8)
    169e:	18 78       	mov.l	r7,@(32,r8)
    16a0:	18 79       	mov.l	r7,@(36,r8)
    16a2:	18 7b       	mov.l	r7,@(44,r8)
    16a4:	18 7d       	mov.l	r7,@(52,r8)
    16a6:	18 7e       	mov.l	r7,@(56,r8)
    16a8:	18 80       	mov.l	r8,@(0,r8)
    16aa:	18 82       	mov.l	r8,@(8,r8)
    16ac:	18 84       	mov.l	r8,@(16,r8)
    16ae:	18 85       	mov.l	r8,@(20,r8)
    16b0:	18 87       	mov.l	r8,@(28,r8)
    16b2:	18 89       	mov.l	r8,@(36,r8)
    16b4:	18 8b       	mov.l	r8,@(44,r8)
    16b6:	18 8c       	mov.l	r8,@(48,r8)
    16b8:	18 8e       	mov.l	r8,@(56,r8)
    16ba:	18 90       	mov.l	r9,@(0,r8)
    16bc:	18 91       	mov.l	r9,@(4,r8)
    16be:	18 93       	mov.l	r9,@(12,r8)
    16c0:	18 95       	mov.l	r9,@(20,r8)
    16c2:	18 97       	mov.l	r9,@(28,r8)
    16c4:	18 98       	mov.l	r9,@(32,r8)
    16c6:	18 9a       	mov.l	r9,@(40,r8)
    16c8:	18 9c       	mov.l	r9,@(48,r8)
    16ca:	18 9e       	mov.l	r9,@(56,r8)
    16cc:	18 9f       	mov.l	r9,@(60,r8)
    16ce:	18 a1       	mov.l	r10,@(4,r8)
    16d0:	18 a3       	mov.l	r10,@(12,r8)
    16d2:	18 a4       	mov.l	r10,@(16,r8)
    16d4:	18 a6       	mov.l	r10,@(24,r8)
    16d6:	18 a8       	mov.l	r10,@(32,r8)
    16d8:	18 aa       	mov.l	r10,@(40,r8)
    16da:	18 ab       	mov.l	r10,@(44,r8)
    16dc:	18 ad       	mov.l	r10,@(52,r8)
    16de:	18 af       	mov.l	r10,@(60,r8)
    16e0:	18 b1       	mov.l	r11,@(4,r8)
    16e2:	18 b2       	mov.l	r11,@(8,r8)
    16e4:	18 b4       	mov.l	r11,@(16,r8)
    16e6:	18 b6       	mov.l	r11,@(24,r8)
    16e8:	18 b7       	mov.l	r11,@(28,r8)
    16ea:	18 b9       	mov.l	r11,@(36,r8)
    16ec:	18 bb       	mov.l	r11,@(44,r8)
    16ee:	18 bd       	mov.l	r11,@(52,r8)
    16f0:	18 be       	mov.l	r11,@(56,r8)
    16f2:	18 c0       	mov.l	r12,@(0,r8)
    16f4:	18 c2       	mov.l	r12,@(8,r8)
    16f6:	18 c3       	mov.l	r12,@(12,r8)
    16f8:	18 c5       	mov.l	r12,@(20,r8)
    16fa:	18 c7       	mov.l	r12,@(28,r8)
    16fc:	18 c9       	mov.l	r12,@(36,r8)
    16fe:	18 ca       	mov.l	r12,@(40,r8)
    1700:	18 cc       	mov.l	r12,@(48,r8)
    1702:	18 ce       	mov.l	r12,@(56,r8)
    1704:	18 cf       	mov.l	r12,@(60,r8)
    1706:	18 d1       	mov.l	r13,@(4,r8)
    1708:	18 d3       	mov.l	r13,@(12,r8)
    170a:	18 d5       	mov.l	r13,@(20,r8)
    170c:	18 d6       	mov.l	r13,@(24,r8)
    170e:	18 d8       	mov.l	r13,@(32,r8)
    1710:	18 da       	mov.l	r13,@(40,r8)
    1712:	18 db       	mov.l	r13,@(44,r8)
    1714:	18 dd       	mov.l	r13,@(52,r8)
    1716:	18 df       	mov.l	r13,@(60,r8)
    1718:	18 e1       	mov.l	r14,@(4,r8)
    171a:	18 e2       	mov.l	r14,@(8,r8)
    171c:	18 e4       	mov.l	r14,@(16,r8)
    171e:	18 e6       	mov.l	r14,@(24,r8)
    1720:	18 e7       	mov.l	r14,@(28,r8)
    1722:	18 e9       	mov.l	r14,@(36,r8)
    1724:	18 eb       	mov.l	r14,@(44,r8)
    1726:	18 ed       	mov.l	r14,@(52,r8)
    1728:	18 ee       	mov.l	r14,@(56,r8)
    172a:	18 f0       	mov.l	r15,@(0,r8)
    172c:	18 f2       	mov.l	r15,@(8,r8)
    172e:	18 f3       	mov.l	r15,@(12,r8)
    1730:	18 f5       	mov.l	r15,@(20,r8)
    1732:	18 f7       	mov.l	r15,@(28,r8)
    1734:	18 f8       	mov.l	r15,@(32,r8)
    1736:	18 fa       	mov.l	r15,@(40,r8)
    1738:	18 fc       	mov.l	r15,@(48,r8)
    173a:	18 fe       	mov.l	r15,@(56,r8)
    173c:	18 ff       	mov.l	r15,@(60,r8)
    173e:	19 01       	mov.l	r0,@(4,r9)
    1740:	19 03       	mov.l	r0,@(12,r9)
    1742:	19 04       	mov.l	r0,@(16,r9)
    1744:	19 06       	mov.l	r0,@(24,r9)
    1746:	19 08       	mov.l	r0,@(32,r9)
    1748:	19 09       	mov.l	r0,@(36,r9)
    174a:	19 0b       	mov.l	r0,@(44,r9)
    174c:	19 0d       	mov.l	r0,@(52,r9)
    174e:	19 0f       	mov.l	r0,@(60,r9)
    1750:	19 10       	mov.l	r1,@(0,r9)
    1752:	19 12       	mov.l	r1,@(8,r9)
    1754:	19 14       	mov.l	r1,@(16,r9)
    1756:	19 15       	mov.l	r1,@(20,r9)
    1758:	19 17       	mov.l	r1,@(28,r9)
    175a:	19 19       	mov.l	r1,@(36,r9)
    175c:	19 1a       	mov.l	r1,@(40,r9)
    175e:	19 1c       	mov.l	r1,@(48,r9)
    1760:	19 1e       	mov.l	r1,@(56,r9)
    1762:	19 20       	mov.l	r2,@(0,r9)
    1764:	19 21       	mov.l	r2,@(4,r9)
    1766:	19 23       	mov.l	r2,@(12,r9)
    1768:	19 25       	mov.l	r2,@(20,r9)
    176a:	19 26       	mov.l	r2,@(24,r9)
    176c:	19 28       	mov.l	r2,@(32,r9)
    176e:	19 2a       	mov.l	r2,@(40,r9)
    1770:	19 2b       	mov.l	r2,@(44,r9)
    1772:	19 2d       	mov.l	r2,@(52,r9)
    1774:	19 2f       	mov.l	r2,@(60,r9)
    1776:	19 30       	mov.l	r3,@(0,r9)
    1778:	19 32       	mov.l	r3,@(8,r9)
    177a:	19 34       	mov.l	r3,@(16,r9)
    177c:	19 36       	mov.l	r3,@(24,r9)
    177e:	19 37       	mov.l	r3,@(28,r9)
    1780:	19 39       	mov.l	r3,@(36,r9)
    1782:	19 3b       	mov.l	r3,@(44,r9)
    1784:	19 3c       	mov.l	r3,@(48,r9)
    1786:	19 3e       	mov.l	r3,@(56,r9)
    1788:	19 40       	mov.l	r4,@(0,r9)
    178a:	19 41       	mov.l	r4,@(4,r9)
    178c:	19 43       	mov.l	r4,@(12,r9)
    178e:	19 45       	mov.l	r4,@(20,r9)
    1790:	19 46       	mov.l	r4,@(24,r9)
    1792:	19 48       	mov.l	r4,@(32,r9)
    1794:	19 4a       	mov.l	r4,@(40,r9)
    1796:	19 4b       	mov.l	r4,@(44,r9)
    1798:	19 4d       	mov.l	r4,@(52,r9)
    179a:	19 4f       	mov.l	r4,@(60,r9)
    179c:	19 51       	mov.l	r5,@(4,r9)
    179e:	19 52       	mov.l	r5,@(8,r9)
    17a0:	19 54       	mov.l	r5,@(16,r9)
    17a2:	19 56       	mov.l	r5,@(24,r9)
    17a4:	19 57       	mov.l	r5,@(28,r9)
    17a6:	19 59       	mov.l	r5,@(36,r9)
    17a8:	19 5b       	mov.l	r5,@(44,r9)
    17aa:	19 5c       	mov.l	r5,@(48,r9)
    17ac:	19 5e       	mov.l	r5,@(56,r9)
    17ae:	19 60       	mov.l	r6,@(0,r9)
    17b0:	19 61       	mov.l	r6,@(4,r9)
    17b2:	19 63       	mov.l	r6,@(12,r9)
    17b4:	19 65       	mov.l	r6,@(20,r9)
    17b6:	19 66       	mov.l	r6,@(24,r9)
    17b8:	19 68       	mov.l	r6,@(32,r9)
    17ba:	19 6a       	mov.l	r6,@(40,r9)
    17bc:	19 6b       	mov.l	r6,@(44,r9)
    17be:	19 6d       	mov.l	r6,@(52,r9)
    17c0:	19 6f       	mov.l	r6,@(60,r9)
    17c2:	19 70       	mov.l	r7,@(0,r9)
    17c4:	19 72       	mov.l	r7,@(8,r9)
    17c6:	19 74       	mov.l	r7,@(16,r9)
    17c8:	19 75       	mov.l	r7,@(20,r9)
    17ca:	19 77       	mov.l	r7,@(28,r9)
    17cc:	19 79       	mov.l	r7,@(36,r9)
    17ce:	19 7a       	mov.l	r7,@(40,r9)
    17d0:	19 7c       	mov.l	r7,@(48,r9)
    17d2:	19 7e       	mov.l	r7,@(56,r9)
    17d4:	19 80       	mov.l	r8,@(0,r9)
    17d6:	19 81       	mov.l	r8,@(4,r9)
    17d8:	19 83       	mov.l	r8,@(12,r9)
    17da:	19 85       	mov.l	r8,@(20,r9)
    17dc:	19 86       	mov.l	r8,@(24,r9)
    17de:	19 88       	mov.l	r8,@(32,r9)
    17e0:	19 8a       	mov.l	r8,@(40,r9)
    17e2:	19 8b       	mov.l	r8,@(44,r9)
    17e4:	19 8d       	mov.l	r8,@(52,r9)
    17e6:	19 8f       	mov.l	r8,@(60,r9)
    17e8:	19 90       	mov.l	r9,@(0,r9)
    17ea:	19 92       	mov.l	r9,@(8,r9)
    17ec:	19 94       	mov.l	r9,@(16,r9)
    17ee:	19 95       	mov.l	r9,@(20,r9)
    17f0:	19 97       	mov.l	r9,@(28,r9)
    17f2:	19 99       	mov.l	r9,@(36,r9)
    17f4:	19 9a       	mov.l	r9,@(40,r9)
    17f6:	19 9c       	mov.l	r9,@(48,r9)
    17f8:	19 9e       	mov.l	r9,@(56,r9)
    17fa:	19 9f       	mov.l	r9,@(60,r9)
    17fc:	19 a1       	mov.l	r10,@(4,r9)
    17fe:	19 a3       	mov.l	r10,@(12,r9)
    1800:	19 a4       	mov.l	r10,@(16,r9)
    1802:	19 a6       	mov.l	r10,@(24,r9)
    1804:	19 a8       	mov.l	r10,@(32,r9)
    1806:	19 a9       	mov.l	r10,@(36,r9)
    1808:	19 ab       	mov.l	r10,@(44,r9)
    180a:	19 ad       	mov.l	r10,@(52,r9)
    180c:	19 ae       	mov.l	r10,@(56,r9)
    180e:	19 b0       	mov.l	r11,@(0,r9)
    1810:	19 b2       	mov.l	r11,@(8,r9)
    1812:	19 b3       	mov.l	r11,@(12,r9)
    1814:	19 b5       	mov.l	r11,@(20,r9)
    1816:	19 b7       	mov.l	r11,@(28,r9)
    1818:	19 b8       	mov.l	r11,@(32,r9)
    181a:	19 ba       	mov.l	r11,@(40,r9)
    181c:	19 bb       	mov.l	r11,@(44,r9)
    181e:	19 bd       	mov.l	r11,@(52,r9)
    1820:	19 bf       	mov.l	r11,@(60,r9)
    1822:	19 c0       	mov.l	r12,@(0,r9)
    1824:	19 c2       	mov.l	r12,@(8,r9)
    1826:	19 c4       	mov.l	r12,@(16,r9)
    1828:	19 c5       	mov.l	r12,@(20,r9)
    182a:	19 c7       	mov.l	r12,@(28,r9)
    182c:	19 c9       	mov.l	r12,@(36,r9)
    182e:	19 ca       	mov.l	r12,@(40,r9)
    1830:	19 cc       	mov.l	r12,@(48,r9)
    1832:	19 ce       	mov.l	r12,@(56,r9)
    1834:	19 cf       	mov.l	r12,@(60,r9)
    1836:	19 d1       	mov.l	r13,@(4,r9)
    1838:	19 d3       	mov.l	r13,@(12,r9)
    183a:	19 d4       	mov.l	r13,@(16,r9)
    183c:	19 d6       	mov.l	r13,@(24,r9)
    183e:	19 d8       	mov.l	r13,@(32,r9)
    1840:	19 d9       	mov.l	r13,@(36,r9)
    1842:	19 db       	mov.l	r13,@(44,r9)
    1844:	19 dd       	mov.l	r13,@(52,r9)
    1846:	19 de       	mov.l	r13,@(56,r9)
    1848:	19 e0       	mov.l	r14,@(0,r9)
    184a:	19 e2       	mov.l	r14,@(8,r9)
    184c:	19 e3       	mov.l	r14,@(12,r9)
    184e:	19 e5       	mov.l	r14,@(20,r9)
    1850:	19 e6       	mov.l	r14,@(24,r9)
    1852:	19 e8       	mov.l	r14,@(32,r9)
    1854:	19 ea       	mov.l	r14,@(40,r9)
    1856:	19 eb       	mov.l	r14,@(44,r9)
    1858:	19 ed       	mov.l	r14,@(52,r9)
    185a:	19 ef       	mov.l	r14,@(60,r9)
    185c:	19 f0       	mov.l	r15,@(0,r9)
    185e:	19 f2       	mov.l	r15,@(8,r9)
    1860:	19 f4       	mov.l	r15,@(16,r9)
    1862:	19 f5       	mov.l	r15,@(20,r9)
    1864:	19 f7       	mov.l	r15,@(28,r9)
    1866:	19 f9       	mov.l	r15,@(36,r9)
    1868:	19 fa       	mov.l	r15,@(40,r9)
    186a:	19 fc       	mov.l	r15,@(48,r9)
    186c:	19 fe       	mov.l	r15,@(56,r9)
    186e:	19 ff       	mov.l	r15,@(60,r9)
    1870:	1a 01       	mov.l	r0,@(4,r10)
    1872:	1a 02       	mov.l	r0,@(8,r10)
    1874:	1a 04       	mov.l	r0,@(16,r10)
    1876:	1a 06       	mov.l	r0,@(24,r10)
    1878:	1a 07       	mov.l	r0,@(28,r10)
    187a:	1a 09       	mov.l	r0,@(36,r10)
    187c:	1a 0b       	mov.l	r0,@(44,r10)
    187e:	1a 0c       	mov.l	r0,@(48,r10)
    1880:	1a 0e       	mov.l	r0,@(56,r10)
    1882:	1a 10       	mov.l	r1,@(0,r10)
    1884:	1a 11       	mov.l	r1,@(4,r10)
    1886:	1a 13       	mov.l	r1,@(12,r10)
    1888:	1a 15       	mov.l	r1,@(20,r10)
    188a:	1a 16       	mov.l	r1,@(24,r10)
    188c:	1a 18       	mov.l	r1,@(32,r10)
    188e:	1a 19       	mov.l	r1,@(36,r10)
    1890:	1a 1b       	mov.l	r1,@(44,r10)
    1892:	1a 1d       	mov.l	r1,@(52,r10)
    1894:	1a 1e       	mov.l	r1,@(56,r10)
    1896:	1a 20       	mov.l	r2,@(0,r10)
    1898:	1a 22       	mov.l	r2,@(8,r10)
    189a:	1a 23       	mov.l	r2,@(12,r10)
    189c:	1a 25       	mov.l	r2,@(20,r10)
    189e:	1a 27       	mov.l	r2,@(28,r10)
    18a0:	1a 28       	mov.l	r2,@(32,r10)
    18a2:	1a 2a       	mov.l	r2,@(40,r10)
    18a4:	1a 2b       	mov.l	r2,@(44,r10)
    18a6:	1a 2d       	mov.l	r2,@(52,r10)
    18a8:	1a 2f       	mov.l	r2,@(60,r10)
    18aa:	1a 30       	mov.l	r3,@(0,r10)
    18ac:	1a 32       	mov.l	r3,@(8,r10)
    18ae:	1a 34       	mov.l	r3,@(16,r10)
    18b0:	1a 35       	mov.l	r3,@(20,r10)
    18b2:	1a 37       	mov.l	r3,@(28,r10)
    18b4:	1a 38       	mov.l	r3,@(32,r10)
    18b6:	1a 3a       	mov.l	r3,@(40,r10)
    18b8:	1a 3c       	mov.l	r3,@(48,r10)
    18ba:	1a 3d       	mov.l	r3,@(52,r10)
    18bc:	1a 3f       	mov.l	r3,@(60,r10)
    18be:	1a 41       	mov.l	r4,@(4,r10)
    18c0:	1a 42       	mov.l	r4,@(8,r10)
    18c2:	1a 44       	mov.l	r4,@(16,r10)
    18c4:	1a 45       	mov.l	r4,@(20,r10)
    18c6:	1a 47       	mov.l	r4,@(28,r10)
    18c8:	1a 49       	mov.l	r4,@(36,r10)
    18ca:	1a 4a       	mov.l	r4,@(40,r10)
    18cc:	1a 4c       	mov.l	r4,@(48,r10)
    18ce:	1a 4e       	mov.l	r4,@(56,r10)
    18d0:	1a 4f       	mov.l	r4,@(60,r10)
    18d2:	1a 51       	mov.l	r5,@(4,r10)
    18d4:	1a 52       	mov.l	r5,@(8,r10)
    18d6:	1a 54       	mov.l	r5,@(16,r10)
    18d8:	1a 56       	mov.l	r5,@(24,r10)
    18da:	1a 57       	mov.l	r5,@(28,r10)
    18dc:	1a 59       	mov.l	r5,@(36,r10)
    18de:	1a 5b       	mov.l	r5,@(44,r10)
    18e0:	1a 5c       	mov.l	r5,@(48,r10)
    18e2:	1a 5e       	mov.l	r5,@(56,r10)
    18e4:	1a 5f       	mov.l	r5,@(60,r10)
    18e6:	1a 61       	mov.l	r6,@(4,r10)
    18e8:	1a 63       	mov.l	r6,@(12,r10)
    18ea:	1a 64       	mov.l	r6,@(16,r10)
    18ec:	1a 66       	mov.l	r6,@(24,r10)
    18ee:	1a 68       	mov.l	r6,@(32,r10)
    18f0:	1a 69       	mov.l	r6,@(36,r10)
    18f2:	1a 6b       	mov.l	r6,@(44,r10)
    18f4:	1a 6c       	mov.l	r6,@(48,r10)
    18f6:	1a 6e       	mov.l	r6,@(56,r10)
    18f8:	1a 70       	mov.l	r7,@(0,r10)
    18fa:	1a 71       	mov.l	r7,@(4,r10)
    18fc:	1a 73       	mov.l	r7,@(12,r10)
    18fe:	1a 74       	mov.l	r7,@(16,r10)
    1900:	1a 76       	mov.l	r7,@(24,r10)
    1902:	1a 78       	mov.l	r7,@(32,r10)
    1904:	1a 79       	mov.l	r7,@(36,r10)
    1906:	1a 7b       	mov.l	r7,@(44,r10)
    1908:	1a 7d       	mov.l	r7,@(52,r10)
    190a:	1a 7e       	mov.l	r7,@(56,r10)
    190c:	1a 80       	mov.l	r8,@(0,r10)
    190e:	1a 81       	mov.l	r8,@(4,r10)
    1910:	1a 83       	mov.l	r8,@(12,r10)
    1912:	1a 85       	mov.l	r8,@(20,r10)
    1914:	1a 86       	mov.l	r8,@(24,r10)
    1916:	1a 88       	mov.l	r8,@(32,r10)
    1918:	1a 89       	mov.l	r8,@(36,r10)
    191a:	1a 8b       	mov.l	r8,@(44,r10)
    191c:	1a 8d       	mov.l	r8,@(52,r10)
    191e:	1a 8e       	mov.l	r8,@(56,r10)
    1920:	1a 90       	mov.l	r9,@(0,r10)
    1922:	1a 92       	mov.l	r9,@(8,r10)
    1924:	1a 93       	mov.l	r9,@(12,r10)
    1926:	1a 95       	mov.l	r9,@(20,r10)
    1928:	1a 96       	mov.l	r9,@(24,r10)
    192a:	1a 98       	mov.l	r9,@(32,r10)
    192c:	1a 9a       	mov.l	r9,@(40,r10)
    192e:	1a 9b       	mov.l	r9,@(44,r10)
    1930:	1a 9d       	mov.l	r9,@(52,r10)
    1932:	1a 9e       	mov.l	r9,@(56,r10)
    1934:	1a a0       	mov.l	r10,@(0,r10)
    1936:	1a a2       	mov.l	r10,@(8,r10)
    1938:	1a a3       	mov.l	r10,@(12,r10)
    193a:	1a a5       	mov.l	r10,@(20,r10)
    193c:	1a a6       	mov.l	r10,@(24,r10)
    193e:	1a a8       	mov.l	r10,@(32,r10)
    1940:	1a aa       	mov.l	r10,@(40,r10)
    1942:	1a ab       	mov.l	r10,@(44,r10)
    1944:	1a ad       	mov.l	r10,@(52,r10)
    1946:	1a ae       	mov.l	r10,@(56,r10)
    1948:	1a b0       	mov.l	r11,@(0,r10)
    194a:	1a b2       	mov.l	r11,@(8,r10)
    194c:	1a b3       	mov.l	r11,@(12,r10)
    194e:	1a b5       	mov.l	r11,@(20,r10)
    1950:	1a b6       	mov.l	r11,@(24,r10)
    1952:	1a b8       	mov.l	r11,@(32,r10)
    1954:	1a ba       	mov.l	r11,@(40,r10)
    1956:	1a bb       	mov.l	r11,@(44,r10)
    1958:	1a bd       	mov.l	r11,@(52,r10)
    195a:	1a be       	mov.l	r11,@(56,r10)
    195c:	1a c0       	mov.l	r12,@(0,r10)
    195e:	1a c2       	mov.l	r12,@(8,r10)
    1960:	1a c3       	mov.l	r12,@(12,r10)
    1962:	1a c5       	mov.l	r12,@(20,r10)
    1964:	1a c6       	mov.l	r12,@(24,r10)
    1966:	1a c8       	mov.l	r12,@(32,r10)
    1968:	1a ca       	mov.l	r12,@(40,r10)
    196a:	1a cb       	mov.l	r12,@(44,r10)
    196c:	1a cd       	mov.l	r12,@(52,r10)
    196e:	1a ce       	mov.l	r12,@(56,r10)
    1970:	1a d0       	mov.l	r13,@(0,r10)
    1972:	1a d2       	mov.l	r13,@(8,r10)
    1974:	1a d3       	mov.l	r13,@(12,r10)
    1976:	1a d5       	mov.l	r13,@(20,r10)
    1978:	1a d6       	mov.l	r13,@(24,r10)
    197a:	1a d8       	mov.l	r13,@(32,r10)
    197c:	1a da       	mov.l	r13,@(40,r10)
    197e:	1a db       	mov.l	r13,@(44,r10)
    1980:	1a dd       	mov.l	r13,@(52,r10)
    1982:	1a de       	mov.l	r13,@(56,r10)
    1984:	1a e0       	mov.l	r14,@(0,r10)
    1986:	1a e1       	mov.l	r14,@(4,r10)
    1988:	1a e3       	mov.l	r14,@(12,r10)
    198a:	1a e5       	mov.l	r14,@(20,r10)
    198c:	1a e6       	mov.l	r14,@(24,r10)
    198e:	1a e8       	mov.l	r14,@(32,r10)
    1990:	1a e9       	mov.l	r14,@(36,r10)
    1992:	1a eb       	mov.l	r14,@(44,r10)
    1994:	1a ed       	mov.l	r14,@(52,r10)
    1996:	1a ee       	mov.l	r14,@(56,r10)
    1998:	1a f0       	mov.l	r15,@(0,r10)
    199a:	1a f1       	mov.l	r15,@(4,r10)
    199c:	1a f3       	mov.l	r15,@(12,r10)
    199e:	1a f5       	mov.l	r15,@(20,r10)
    19a0:	1a f6       	mov.l	r15,@(24,r10)
    19a2:	1a f8       	mov.l	r15,@(32,r10)
    19a4:	1a f9       	mov.l	r15,@(36,r10)
    19a6:	1a fb       	mov.l	r15,@(44,r10)
    19a8:	1a fc       	mov.l	r15,@(48,r10)
    19aa:	1a fe       	mov.l	r15,@(56,r10)
    19ac:	1b 00       	mov.l	r0,@(0,r11)
    19ae:	1b 01       	mov.l	r0,@(4,r11)
    19b0:	1b 03       	mov.l	r0,@(12,r11)
    19b2:	1b 04       	mov.l	r0,@(16,r11)
    19b4:	1b 06       	mov.l	r0,@(24,r11)
    19b6:	1b 08       	mov.l	r0,@(32,r11)
    19b8:	1b 09       	mov.l	r0,@(36,r11)
    19ba:	1b 0b       	mov.l	r0,@(44,r11)
    19bc:	1b 0c       	mov.l	r0,@(48,r11)
    19be:	1b 0e       	mov.l	r0,@(56,r11)
    19c0:	1b 0f       	mov.l	r0,@(60,r11)
    19c2:	1b 11       	mov.l	r1,@(4,r11)
    19c4:	1b 13       	mov.l	r1,@(12,r11)
    19c6:	1b 14       	mov.l	r1,@(16,r11)
    19c8:	1b 16       	mov.l	r1,@(24,r11)
    19ca:	1b 17       	mov.l	r1,@(28,r11)
    19cc:	1b 19       	mov.l	r1,@(36,r11)
    19ce:	1b 1a       	mov.l	r1,@(40,r11)
    19d0:	1b 1c       	mov.l	r1,@(48,r11)
    19d2:	1b 1e       	mov.l	r1,@(56,r11)
    19d4:	1b 1f       	mov.l	r1,@(60,r11)
    19d6:	1b 21       	mov.l	r2,@(4,r11)
    19d8:	1b 22       	mov.l	r2,@(8,r11)
    19da:	1b 24       	mov.l	r2,@(16,r11)
    19dc:	1b 26       	mov.l	r2,@(24,r11)
    19de:	1b 27       	mov.l	r2,@(28,r11)
    19e0:	1b 29       	mov.l	r2,@(36,r11)
    19e2:	1b 2a       	mov.l	r2,@(40,r11)
    19e4:	1b 2c       	mov.l	r2,@(48,r11)
    19e6:	1b 2d       	mov.l	r2,@(52,r11)
    19e8:	1b 2f       	mov.l	r2,@(60,r11)
    19ea:	1b 31       	mov.l	r3,@(4,r11)
    19ec:	1b 32       	mov.l	r3,@(8,r11)
    19ee:	1b 34       	mov.l	r3,@(16,r11)
    19f0:	1b 35       	mov.l	r3,@(20,r11)
    19f2:	1b 37       	mov.l	r3,@(28,r11)
    19f4:	1b 38       	mov.l	r3,@(32,r11)
    19f6:	1b 3a       	mov.l	r3,@(40,r11)
    19f8:	1b 3c       	mov.l	r3,@(48,r11)
    19fa:	1b 3d       	mov.l	r3,@(52,r11)
    19fc:	1b 3f       	mov.l	r3,@(60,r11)
    19fe:	1b 40       	mov.l	r4,@(0,r11)
    1a00:	1b 42       	mov.l	r4,@(8,r11)
    1a02:	1b 43       	mov.l	r4,@(12,r11)
    1a04:	1b 45       	mov.l	r4,@(20,r11)
    1a06:	1b 46       	mov.l	r4,@(24,r11)
    1a08:	1b 48       	mov.l	r4,@(32,r11)
    1a0a:	1b 4a       	mov.l	r4,@(40,r11)
    1a0c:	1b 4b       	mov.l	r4,@(44,r11)
    1a0e:	1b 4d       	mov.l	r4,@(52,r11)
    1a10:	1b 4e       	mov.l	r4,@(56,r11)
    1a12:	1b 50       	mov.l	r5,@(0,r11)
    1a14:	1b 51       	mov.l	r5,@(4,r11)
    1a16:	1b 53       	mov.l	r5,@(12,r11)
    1a18:	1b 55       	mov.l	r5,@(20,r11)
    1a1a:	1b 56       	mov.l	r5,@(24,r11)
    1a1c:	1b 58       	mov.l	r5,@(32,r11)
    1a1e:	1b 59       	mov.l	r5,@(36,r11)
    1a20:	1b 5b       	mov.l	r5,@(44,r11)
    1a22:	1b 5c       	mov.l	r5,@(48,r11)
    1a24:	1b 5e       	mov.l	r5,@(56,r11)
    1a26:	1b 5f       	mov.l	r5,@(60,r11)
    1a28:	1b 61       	mov.l	r6,@(4,r11)
    1a2a:	1b 63       	mov.l	r6,@(12,r11)
    1a2c:	1b 64       	mov.l	r6,@(16,r11)
    1a2e:	1b 66       	mov.l	r6,@(24,r11)
    1a30:	1b 67       	mov.l	r6,@(28,r11)
    1a32:	1b 69       	mov.l	r6,@(36,r11)
    1a34:	1b 6a       	mov.l	r6,@(40,r11)
    1a36:	1b 6c       	mov.l	r6,@(48,r11)
    1a38:	1b 6e       	mov.l	r6,@(56,r11)
    1a3a:	1b 6f       	mov.l	r6,@(60,r11)
    1a3c:	1b 71       	mov.l	r7,@(4,r11)
    1a3e:	1b 72       	mov.l	r7,@(8,r11)
    1a40:	1b 74       	mov.l	r7,@(16,r11)
    1a42:	1b 75       	mov.l	r7,@(20,r11)
    1a44:	1b 77       	mov.l	r7,@(28,r11)
    1a46:	1b 78       	mov.l	r7,@(32,r11)
    1a48:	1b 7a       	mov.l	r7,@(40,r11)
    1a4a:	1b 7c       	mov.l	r7,@(48,r11)
    1a4c:	1b 7d       	mov.l	r7,@(52,r11)
    1a4e:	1b 7f       	mov.l	r7,@(60,r11)
    1a50:	1b 80       	mov.l	r8,@(0,r11)
    1a52:	1b 82       	mov.l	r8,@(8,r11)
    1a54:	1b 83       	mov.l	r8,@(12,r11)
    1a56:	1b 85       	mov.l	r8,@(20,r11)
    1a58:	1b 86       	mov.l	r8,@(24,r11)
    1a5a:	1b 88       	mov.l	r8,@(32,r11)
    1a5c:	1b 89       	mov.l	r8,@(36,r11)
    1a5e:	1b 8b       	mov.l	r8,@(44,r11)
    1a60:	1b 8d       	mov.l	r8,@(52,r11)
    1a62:	1b 8e       	mov.l	r8,@(56,r11)
    1a64:	1b 90       	mov.l	r9,@(0,r11)
    1a66:	1b 91       	mov.l	r9,@(4,r11)
    1a68:	1b 93       	mov.l	r9,@(12,r11)
    1a6a:	1b 94       	mov.l	r9,@(16,r11)
    1a6c:	1b 96       	mov.l	r9,@(24,r11)
    1a6e:	1b 97       	mov.l	r9,@(28,r11)
    1a70:	1b 99       	mov.l	r9,@(36,r11)
    1a72:	1b 9b       	mov.l	r9,@(44,r11)
    1a74:	1b 9c       	mov.l	r9,@(48,r11)
    1a76:	1b 9e       	mov.l	r9,@(56,r11)
    1a78:	1b 9f       	mov.l	r9,@(60,r11)
    1a7a:	1b a1       	mov.l	r10,@(4,r11)
    1a7c:	1b a2       	mov.l	r10,@(8,r11)
    1a7e:	1b a4       	mov.l	r10,@(16,r11)
    1a80:	1b a5       	mov.l	r10,@(20,r11)
    1a82:	1b a7       	mov.l	r10,@(28,r11)
    1a84:	1b a8       	mov.l	r10,@(32,r11)
    1a86:	1b aa       	mov.l	r10,@(40,r11)
    1a88:	1b ab       	mov.l	r10,@(44,r11)
    1a8a:	1b ad       	mov.l	r10,@(52,r11)
    1a8c:	1b af       	mov.l	r10,@(60,r11)
    1a8e:	1b b0       	mov.l	r11,@(0,r11)
    1a90:	1b b2       	mov.l	r11,@(8,r11)
    1a92:	1b b3       	mov.l	r11,@(12,r11)
    1a94:	1b b5       	mov.l	r11,@(20,r11)
    1a96:	1b b6       	mov.l	r11,@(24,r11)
    1a98:	1b b8       	mov.l	r11,@(32,r11)
    1a9a:	1b b9       	mov.l	r11,@(36,r11)
    1a9c:	1b bb       	mov.l	r11,@(44,r11)
    1a9e:	1b bc       	mov.l	r11,@(48,r11)
    1aa0:	1b be       	mov.l	r11,@(56,r11)
    1aa2:	1b c0       	mov.l	r12,@(0,r11)
    1aa4:	1b c1       	mov.l	r12,@(4,r11)
    1aa6:	1b c3       	mov.l	r12,@(12,r11)
    1aa8:	1b c4       	mov.l	r12,@(16,r11)
    1aaa:	1b c6       	mov.l	r12,@(24,r11)
    1aac:	1b c7       	mov.l	r12,@(28,r11)
    1aae:	1b c9       	mov.l	r12,@(36,r11)
    1ab0:	1b ca       	mov.l	r12,@(40,r11)
    1ab2:	1b cc       	mov.l	r12,@(48,r11)
    1ab4:	1b cd       	mov.l	r12,@(52,r11)
    1ab6:	1b cf       	mov.l	r12,@(60,r11)
    1ab8:	1b d0       	mov.l	r13,@(0,r11)
    1aba:	1b d2       	mov.l	r13,@(8,r11)
    1abc:	1b d3       	mov.l	r13,@(12,r11)
    1abe:	1b d5       	mov.l	r13,@(20,r11)
    1ac0:	1b d7       	mov.l	r13,@(28,r11)
    1ac2:	1b d8       	mov.l	r13,@(32,r11)
    1ac4:	1b da       	mov.l	r13,@(40,r11)
    1ac6:	1b db       	mov.l	r13,@(44,r11)
    1ac8:	1b dd       	mov.l	r13,@(52,r11)
    1aca:	1b de       	mov.l	r13,@(56,r11)
    1acc:	1b e0       	mov.l	r14,@(0,r11)
    1ace:	1b e1       	mov.l	r14,@(4,r11)
    1ad0:	1b e3       	mov.l	r14,@(12,r11)
    1ad2:	1b e4       	mov.l	r14,@(16,r11)
    1ad4:	1b e6       	mov.l	r14,@(24,r11)
    1ad6:	1b e7       	mov.l	r14,@(28,r11)
    1ad8:	1b e9       	mov.l	r14,@(36,r11)
    1ada:	1b ea       	mov.l	r14,@(40,r11)
    1adc:	1b ec       	mov.l	r14,@(48,r11)
    1ade:	1b ed       	mov.l	r14,@(52,r11)
    1ae0:	1b ef       	mov.l	r14,@(60,r11)
    1ae2:	1b f1       	mov.l	r15,@(4,r11)
    1ae4:	1b f2       	mov.l	r15,@(8,r11)
    1ae6:	1b f4       	mov.l	r15,@(16,r11)
    1ae8:	1b f5       	mov.l	r15,@(20,r11)
    1aea:	1b f7       	mov.l	r15,@(28,r11)
    1aec:	1b f8       	mov.l	r15,@(32,r11)
    1aee:	1b fa       	mov.l	r15,@(40,r11)
    1af0:	1b fb       	mov.l	r15,@(44,r11)
    1af2:	1b fd       	mov.l	r15,@(52,r11)
    1af4:	1b fe       	mov.l	r15,@(56,r11)
    1af6:	1c 00       	mov.l	r0,@(0,r12)
    1af8:	1c 01       	mov.l	r0,@(4,r12)
    1afa:	1c 03       	mov.l	r0,@(12,r12)
    1afc:	1c 04       	mov.l	r0,@(16,r12)
    1afe:	1c 06       	mov.l	r0,@(24,r12)
    1b00:	1c 07       	mov.l	r0,@(28,r12)
    1b02:	1c 09       	mov.l	r0,@(36,r12)
    1b04:	1c 0a       	mov.l	r0,@(40,r12)
    1b06:	1c 0c       	mov.l	r0,@(48,r12)
    1b08:	1c 0d       	mov.l	r0,@(52,r12)
    1b0a:	1c 0f       	mov.l	r0,@(60,r12)
    1b0c:	1c 10       	mov.l	r1,@(0,r12)
    1b0e:	1c 12       	mov.l	r1,@(8,r12)
    1b10:	1c 13       	mov.l	r1,@(12,r12)
    1b12:	1c 15       	mov.l	r1,@(20,r12)
    1b14:	1c 17       	mov.l	r1,@(28,r12)
    1b16:	1c 18       	mov.l	r1,@(32,r12)
    1b18:	1c 1a       	mov.l	r1,@(40,r12)
    1b1a:	1c 1b       	mov.l	r1,@(44,r12)
    1b1c:	1c 1d       	mov.l	r1,@(52,r12)
    1b1e:	1c 1e       	mov.l	r1,@(56,r12)
    1b20:	1c 20       	mov.l	r2,@(0,r12)
    1b22:	1c 21       	mov.l	r2,@(4,r12)
    1b24:	1c 23       	mov.l	r2,@(12,r12)
    1b26:	1c 24       	mov.l	r2,@(16,r12)
    1b28:	1c 26       	mov.l	r2,@(24,r12)
    1b2a:	1c 27       	mov.l	r2,@(28,r12)
    1b2c:	1c 29       	mov.l	r2,@(36,r12)
    1b2e:	1c 2a       	mov.l	r2,@(40,r12)
    1b30:	1c 2c       	mov.l	r2,@(48,r12)
    1b32:	1c 2d       	mov.l	r2,@(52,r12)
    1b34:	1c 2f       	mov.l	r2,@(60,r12)
    1b36:	1c 30       	mov.l	r3,@(0,r12)
    1b38:	1c 32       	mov.l	r3,@(8,r12)
    1b3a:	1c 33       	mov.l	r3,@(12,r12)
    1b3c:	1c 35       	mov.l	r3,@(20,r12)
    1b3e:	1c 36       	mov.l	r3,@(24,r12)
    1b40:	1c 38       	mov.l	r3,@(32,r12)
    1b42:	1c 39       	mov.l	r3,@(36,r12)
    1b44:	1c 3b       	mov.l	r3,@(44,r12)
    1b46:	1c 3c       	mov.l	r3,@(48,r12)
    1b48:	1c 3e       	mov.l	r3,@(56,r12)
    1b4a:	1c 3f       	mov.l	r3,@(60,r12)
    1b4c:	1c 41       	mov.l	r4,@(4,r12)
    1b4e:	1c 42       	mov.l	r4,@(8,r12)
    1b50:	1c 44       	mov.l	r4,@(16,r12)
    1b52:	1c 45       	mov.l	r4,@(20,r12)
    1b54:	1c 47       	mov.l	r4,@(28,r12)
    1b56:	1c 48       	mov.l	r4,@(32,r12)
    1b58:	1c 4a       	mov.l	r4,@(40,r12)
    1b5a:	1c 4b       	mov.l	r4,@(44,r12)
    1b5c:	1c 4d       	mov.l	r4,@(52,r12)
    1b5e:	1c 4e       	mov.l	r4,@(56,r12)
    1b60:	1c 50       	mov.l	r5,@(0,r12)
    1b62:	1c 51       	mov.l	r5,@(4,r12)
    1b64:	1c 53       	mov.l	r5,@(12,r12)
    1b66:	1c 54       	mov.l	r5,@(16,r12)
    1b68:	1c 56       	mov.l	r5,@(24,r12)
    1b6a:	1c 57       	mov.l	r5,@(28,r12)
    1b6c:	1c 59       	mov.l	r5,@(36,r12)
    1b6e:	1c 5a       	mov.l	r5,@(40,r12)
    1b70:	1c 5c       	mov.l	r5,@(48,r12)
    1b72:	1c 5d       	mov.l	r5,@(52,r12)
    1b74:	1c 5f       	mov.l	r5,@(60,r12)
    1b76:	1c 60       	mov.l	r6,@(0,r12)
    1b78:	1c 62       	mov.l	r6,@(8,r12)
    1b7a:	1c 63       	mov.l	r6,@(12,r12)
    1b7c:	1c 65       	mov.l	r6,@(20,r12)
    1b7e:	1c 66       	mov.l	r6,@(24,r12)
    1b80:	1c 68       	mov.l	r6,@(32,r12)
    1b82:	1c 69       	mov.l	r6,@(36,r12)
    1b84:	1c 6b       	mov.l	r6,@(44,r12)
    1b86:	1c 6c       	mov.l	r6,@(48,r12)
    1b88:	1c 6e       	mov.l	r6,@(56,r12)
    1b8a:	1c 6f       	mov.l	r6,@(60,r12)
    1b8c:	1c 71       	mov.l	r7,@(4,r12)
    1b8e:	1c 72       	mov.l	r7,@(8,r12)
    1b90:	1c 74       	mov.l	r7,@(16,r12)
    1b92:	1c 75       	mov.l	r7,@(20,r12)
    1b94:	1c 77       	mov.l	r7,@(28,r12)
    1b96:	1c 78       	mov.l	r7,@(32,r12)
    1b98:	1c 7a       	mov.l	r7,@(40,r12)
    1b9a:	1c 7b       	mov.l	r7,@(44,r12)
    1b9c:	1c 7d       	mov.l	r7,@(52,r12)
    1b9e:	1c 7e       	mov.l	r7,@(56,r12)
    1ba0:	1c 80       	mov.l	r8,@(0,r12)
    1ba2:	1c 81       	mov.l	r8,@(4,r12)
    1ba4:	1c 83       	mov.l	r8,@(12,r12)
    1ba6:	1c 84       	mov.l	r8,@(16,r12)
    1ba8:	1c 86       	mov.l	r8,@(24,r12)
    1baa:	1c 87       	mov.l	r8,@(28,r12)
    1bac:	1c 89       	mov.l	r8,@(36,r12)
    1bae:	1c 8a       	mov.l	r8,@(40,r12)
    1bb0:	1c 8c       	mov.l	r8,@(48,r12)
    1bb2:	1c 8d       	mov.l	r8,@(52,r12)
    1bb4:	1c 8f       	mov.l	r8,@(60,r12)
    1bb6:	1c 90       	mov.l	r9,@(0,r12)
    1bb8:	1c 92       	mov.l	r9,@(8,r12)
    1bba:	1c 93       	mov.l	r9,@(12,r12)
    1bbc:	1c 95       	mov.l	r9,@(20,r12)
    1bbe:	1c 96       	mov.l	r9,@(24,r12)
    1bc0:	1c 98       	mov.l	r9,@(32,r12)
    1bc2:	1c 99       	mov.l	r9,@(36,r12)
    1bc4:	1c 9b       	mov.l	r9,@(44,r12)
    1bc6:	1c 9c       	mov.l	r9,@(48,r12)
    1bc8:	1c 9e       	mov.l	r9,@(56,r12)
    1bca:	1c 9f       	mov.l	r9,@(60,r12)
    1bcc:	1c a1       	mov.l	r10,@(4,r12)
    1bce:	1c a2       	mov.l	r10,@(8,r12)
    1bd0:	1c a3       	mov.l	r10,@(12,r12)
    1bd2:	1c a5       	mov.l	r10,@(20,r12)
    1bd4:	1c a6       	mov.l	r10,@(24,r12)
    1bd6:	1c a8       	mov.l	r10,@(32,r12)
    1bd8:	1c a9       	mov.l	r10,@(36,r12)
    1bda:	1c ab       	mov.l	r10,@(44,r12)
    1bdc:	1c ac       	mov.l	r10,@(48,r12)
    1bde:	1c ae       	mov.l	r10,@(56,r12)
    1be0:	1c af       	mov.l	r10,@(60,r12)
    1be2:	1c b1       	mov.l	r11,@(4,r12)
    1be4:	1c b2       	mov.l	r11,@(8,r12)
    1be6:	1c b4       	mov.l	r11,@(16,r12)
    1be8:	1c b5       	mov.l	r11,@(20,r12)
    1bea:	1c b7       	mov.l	r11,@(28,r12)
    1bec:	1c b8       	mov.l	r11,@(32,r12)
    1bee:	1c ba       	mov.l	r11,@(40,r12)
    1bf0:	1c bb       	mov.l	r11,@(44,r12)
    1bf2:	1c bd       	mov.l	r11,@(52,r12)
    1bf4:	1c be       	mov.l	r11,@(56,r12)
    1bf6:	1c c0       	mov.l	r12,@(0,r12)
    1bf8:	1c c1       	mov.l	r12,@(4,r12)
    1bfa:	1c c3       	mov.l	r12,@(12,r12)
    1bfc:	1c c4       	mov.l	r12,@(16,r12)
    1bfe:	1c c5       	mov.l	r12,@(20,r12)
    1c00:	1c c7       	mov.l	r12,@(28,r12)
    1c02:	1c c8       	mov.l	r12,@(32,r12)
    1c04:	1c ca       	mov.l	r12,@(40,r12)
    1c06:	1c cb       	mov.l	r12,@(44,r12)
    1c08:	1c cd       	mov.l	r12,@(52,r12)
    1c0a:	1c ce       	mov.l	r12,@(56,r12)
    1c0c:	1c d0       	mov.l	r13,@(0,r12)
    1c0e:	1c d1       	mov.l	r13,@(4,r12)
    1c10:	1c d3       	mov.l	r13,@(12,r12)
    1c12:	1c d4       	mov.l	r13,@(16,r12)
    1c14:	1c d6       	mov.l	r13,@(24,r12)
    1c16:	1c d7       	mov.l	r13,@(28,r12)
    1c18:	1c d9       	mov.l	r13,@(36,r12)
    1c1a:	1c da       	mov.l	r13,@(40,r12)
    1c1c:	1c dc       	mov.l	r13,@(48,r12)
    1c1e:	1c dd       	mov.l	r13,@(52,r12)
    1c20:	1c de       	mov.l	r13,@(56,r12)
    1c22:	1c e0       	mov.l	r14,@(0,r12)
    1c24:	1c e1       	mov.l	r14,@(4,r12)
    1c26:	1c e3       	mov.l	r14,@(12,r12)
    1c28:	1c e4       	mov.l	r14,@(16,r12)
    1c2a:	1c e6       	mov.l	r14,@(24,r12)
    1c2c:	1c e7       	mov.l	r14,@(28,r12)
    1c2e:	1c e9       	mov.l	r14,@(36,r12)
    1c30:	1c ea       	mov.l	r14,@(40,r12)
    1c32:	1c ec       	mov.l	r14,@(48,r12)
    1c34:	1c ed       	mov.l	r14,@(52,r12)
    1c36:	1c ef       	mov.l	r14,@(60,r12)
    1c38:	1c f0       	mov.l	r15,@(0,r12)
    1c3a:	1c f2       	mov.l	r15,@(8,r12)
    1c3c:	1c f3       	mov.l	r15,@(12,r12)
    1c3e:	1c f4       	mov.l	r15,@(16,r12)
    1c40:	1c f6       	mov.l	r15,@(24,r12)
    1c42:	1c f7       	mov.l	r15,@(28,r12)
    1c44:	1c f9       	mov.l	r15,@(36,r12)
    1c46:	1c fa       	mov.l	r15,@(40,r12)
    1c48:	1c fc       	mov.l	r15,@(48,r12)
    1c4a:	1c fd       	mov.l	r15,@(52,r12)
    1c4c:	1c ff       	mov.l	r15,@(60,r12)
    1c4e:	1d 00       	mov.l	r0,@(0,r13)
    1c50:	1d 02       	mov.l	r0,@(8,r13)
    1c52:	1d 03       	mov.l	r0,@(12,r13)
    1c54:	1d 05       	mov.l	r0,@(20,r13)
    1c56:	1d 06       	mov.l	r0,@(24,r13)
    1c58:	1d 07       	mov.l	r0,@(28,r13)
    1c5a:	1d 09       	mov.l	r0,@(36,r13)
    1c5c:	1d 0a       	mov.l	r0,@(40,r13)
    1c5e:	1d 0c       	mov.l	r0,@(48,r13)
    1c60:	1d 0d       	mov.l	r0,@(52,r13)
    1c62:	1d 0f       	mov.l	r0,@(60,r13)
    1c64:	1d 10       	mov.l	r1,@(0,r13)
    1c66:	1d 12       	mov.l	r1,@(8,r13)
    1c68:	1d 13       	mov.l	r1,@(12,r13)
    1c6a:	1d 15       	mov.l	r1,@(20,r13)
    1c6c:	1d 16       	mov.l	r1,@(24,r13)
    1c6e:	1d 17       	mov.l	r1,@(28,r13)
    1c70:	1d 19       	mov.l	r1,@(36,r13)
    1c72:	1d 1a       	mov.l	r1,@(40,r13)
    1c74:	1d 1c       	mov.l	r1,@(48,r13)
    1c76:	1d 1d       	mov.l	r1,@(52,r13)
    1c78:	1d 1f       	mov.l	r1,@(60,r13)
    1c7a:	1d 20       	mov.l	r2,@(0,r13)
    1c7c:	1d 22       	mov.l	r2,@(8,r13)
    1c7e:	1d 23       	mov.l	r2,@(12,r13)
    1c80:	1d 25       	mov.l	r2,@(20,r13)
    1c82:	1d 26       	mov.l	r2,@(24,r13)
    1c84:	1d 27       	mov.l	r2,@(28,r13)
    1c86:	1d 29       	mov.l	r2,@(36,r13)
    1c88:	1d 2a       	mov.l	r2,@(40,r13)
    1c8a:	1d 2c       	mov.l	r2,@(48,r13)
    1c8c:	1d 2d       	mov.l	r2,@(52,r13)
    1c8e:	1d 2f       	mov.l	r2,@(60,r13)
    1c90:	1d 30       	mov.l	r3,@(0,r13)
    1c92:	1d 32       	mov.l	r3,@(8,r13)
    1c94:	1d 33       	mov.l	r3,@(12,r13)
    1c96:	1d 34       	mov.l	r3,@(16,r13)
    1c98:	1d 36       	mov.l	r3,@(24,r13)
    1c9a:	1d 37       	mov.l	r3,@(28,r13)
    1c9c:	1d 39       	mov.l	r3,@(36,r13)
    1c9e:	1d 3a       	mov.l	r3,@(40,r13)
    1ca0:	1d 3c       	mov.l	r3,@(48,r13)
    1ca2:	1d 3d       	mov.l	r3,@(52,r13)
    1ca4:	1d 3f       	mov.l	r3,@(60,r13)
    1ca6:	1d 40       	mov.l	r4,@(0,r13)
    1ca8:	1d 42       	mov.l	r4,@(8,r13)
    1caa:	1d 43       	mov.l	r4,@(12,r13)
    1cac:	1d 44       	mov.l	r4,@(16,r13)
    1cae:	1d 46       	mov.l	r4,@(24,r13)
    1cb0:	1d 47       	mov.l	r4,@(28,r13)
    1cb2:	1d 49       	mov.l	r4,@(36,r13)
    1cb4:	1d 4a       	mov.l	r4,@(40,r13)
    1cb6:	1d 4c       	mov.l	r4,@(48,r13)
    1cb8:	1d 4d       	mov.l	r4,@(52,r13)
    1cba:	1d 4e       	mov.l	r4,@(56,r13)
    1cbc:	1d 50       	mov.l	r5,@(0,r13)
    1cbe:	1d 51       	mov.l	r5,@(4,r13)
    1cc0:	1d 53       	mov.l	r5,@(12,r13)
    1cc2:	1d 54       	mov.l	r5,@(16,r13)
    1cc4:	1d 56       	mov.l	r5,@(24,r13)
    1cc6:	1d 57       	mov.l	r5,@(28,r13)
    1cc8:	1d 59       	mov.l	r5,@(36,r13)
    1cca:	1d 5a       	mov.l	r5,@(40,r13)
    1ccc:	1d 5b       	mov.l	r5,@(44,r13)
    1cce:	1d 5d       	mov.l	r5,@(52,r13)
    1cd0:	1d 5e       	mov.l	r5,@(56,r13)
    1cd2:	1d 60       	mov.l	r6,@(0,r13)
    1cd4:	1d 61       	mov.l	r6,@(4,r13)
    1cd6:	1d 63       	mov.l	r6,@(12,r13)
    1cd8:	1d 64       	mov.l	r6,@(16,r13)
    1cda:	1d 66       	mov.l	r6,@(24,r13)
    1cdc:	1d 67       	mov.l	r6,@(28,r13)
    1cde:	1d 68       	mov.l	r6,@(32,r13)
    1ce0:	1d 6a       	mov.l	r6,@(40,r13)
    1ce2:	1d 6b       	mov.l	r6,@(44,r13)
    1ce4:	1d 6d       	mov.l	r6,@(52,r13)
    1ce6:	1d 6e       	mov.l	r6,@(56,r13)
    1ce8:	1d 70       	mov.l	r7,@(0,r13)
    1cea:	1d 71       	mov.l	r7,@(4,r13)
    1cec:	1d 72       	mov.l	r7,@(8,r13)
    1cee:	1d 74       	mov.l	r7,@(16,r13)
    1cf0:	1d 75       	mov.l	r7,@(20,r13)
    1cf2:	1d 77       	mov.l	r7,@(28,r13)
    1cf4:	1d 78       	mov.l	r7,@(32,r13)
    1cf6:	1d 7a       	mov.l	r7,@(40,r13)
    1cf8:	1d 7b       	mov.l	r7,@(44,r13)
    1cfa:	1d 7c       	mov.l	r7,@(48,r13)
    1cfc:	1d 7e       	mov.l	r7,@(56,r13)
    1cfe:	1d 7f       	mov.l	r7,@(60,r13)
    1d00:	1d 81       	mov.l	r8,@(4,r13)
    1d02:	1d 82       	mov.l	r8,@(8,r13)
    1d04:	1d 84       	mov.l	r8,@(16,r13)
    1d06:	1d 85       	mov.l	r8,@(20,r13)
    1d08:	1d 86       	mov.l	r8,@(24,r13)
    1d0a:	1d 88       	mov.l	r8,@(32,r13)
    1d0c:	1d 89       	mov.l	r8,@(36,r13)
    1d0e:	1d 8b       	mov.l	r8,@(44,r13)
    1d10:	1d 8c       	mov.l	r8,@(48,r13)
    1d12:	1d 8e       	mov.l	r8,@(56,r13)
    1d14:	1d 8f       	mov.l	r8,@(60,r13)
    1d16:	1d 90       	mov.l	r9,@(0,r13)
    1d18:	1d 92       	mov.l	r9,@(8,r13)
    1d1a:	1d 93       	mov.l	r9,@(12,r13)
    1d1c:	1d 95       	mov.l	r9,@(20,r13)
    1d1e:	1d 96       	mov.l	r9,@(24,r13)
    1d20:	1d 98       	mov.l	r9,@(32,r13)
    1d22:	1d 99       	mov.l	r9,@(36,r13)
    1d24:	1d 9a       	mov.l	r9,@(40,r13)
    1d26:	1d 9c       	mov.l	r9,@(48,r13)
    1d28:	1d 9d       	mov.l	r9,@(52,r13)
    1d2a:	1d 9f       	mov.l	r9,@(60,r13)
    1d2c:	1d a0       	mov.l	r10,@(0,r13)
    1d2e:	1d a1       	mov.l	r10,@(4,r13)
    1d30:	1d a3       	mov.l	r10,@(12,r13)
    1d32:	1d a4       	mov.l	r10,@(16,r13)
    1d34:	1d a6       	mov.l	r10,@(24,r13)
    1d36:	1d a7       	mov.l	r10,@(28,r13)
    1d38:	1d a9       	mov.l	r10,@(36,r13)
    1d3a:	1d aa       	mov.l	r10,@(40,r13)
    1d3c:	1d ab       	mov.l	r10,@(44,r13)
    1d3e:	1d ad       	mov.l	r10,@(52,r13)
    1d40:	1d ae       	mov.l	r10,@(56,r13)
    1d42:	1d b0       	mov.l	r11,@(0,r13)
    1d44:	1d b1       	mov.l	r11,@(4,r13)
    1d46:	1d b3       	mov.l	r11,@(12,r13)
    1d48:	1d b4       	mov.l	r11,@(16,r13)
    1d4a:	1d b5       	mov.l	r11,@(20,r13)
    1d4c:	1d b7       	mov.l	r11,@(28,r13)
    1d4e:	1d b8       	mov.l	r11,@(32,r13)
    1d50:	1d ba       	mov.l	r11,@(40,r13)
    1d52:	1d bb       	mov.l	r11,@(44,r13)
    1d54:	1d bc       	mov.l	r11,@(48,r13)
    1d56:	1d be       	mov.l	r11,@(56,r13)
    1d58:	1d bf       	mov.l	r11,@(60,r13)
    1d5a:	1d c1       	mov.l	r12,@(4,r13)
    1d5c:	1d c2       	mov.l	r12,@(8,r13)
    1d5e:	1d c4       	mov.l	r12,@(16,r13)
    1d60:	1d c5       	mov.l	r12,@(20,r13)
    1d62:	1d c6       	mov.l	r12,@(24,r13)
    1d64:	1d c8       	mov.l	r12,@(32,r13)
    1d66:	1d c9       	mov.l	r12,@(36,r13)
    1d68:	1d cb       	mov.l	r12,@(44,r13)
    1d6a:	1d cc       	mov.l	r12,@(48,r13)
    1d6c:	1d cd       	mov.l	r12,@(52,r13)
    1d6e:	1d cf       	mov.l	r12,@(60,r13)
    1d70:	1d d0       	mov.l	r13,@(0,r13)
    1d72:	1d d2       	mov.l	r13,@(8,r13)
    1d74:	1d d3       	mov.l	r13,@(12,r13)
    1d76:	1d d4       	mov.l	r13,@(16,r13)
    1d78:	1d d6       	mov.l	r13,@(24,r13)
    1d7a:	1d d7       	mov.l	r13,@(28,r13)
    1d7c:	1d d9       	mov.l	r13,@(36,r13)
    1d7e:	1d da       	mov.l	r13,@(40,r13)
    1d80:	1d db       	mov.l	r13,@(44,r13)
    1d82:	1d dd       	mov.l	r13,@(52,r13)
    1d84:	1d de       	mov.l	r13,@(56,r13)
    1d86:	1d e0       	mov.l	r14,@(0,r13)
    1d88:	1d e1       	mov.l	r14,@(4,r13)
    1d8a:	1d e3       	mov.l	r14,@(12,r13)
    1d8c:	1d e4       	mov.l	r14,@(16,r13)
    1d8e:	1d e5       	mov.l	r14,@(20,r13)
    1d90:	1d e7       	mov.l	r14,@(28,r13)
    1d92:	1d e8       	mov.l	r14,@(32,r13)
    1d94:	1d ea       	mov.l	r14,@(40,r13)
    1d96:	1d eb       	mov.l	r14,@(44,r13)
    1d98:	1d ec       	mov.l	r14,@(48,r13)
    1d9a:	1d ee       	mov.l	r14,@(56,r13)
    1d9c:	1d ef       	mov.l	r14,@(60,r13)
    1d9e:	1d f1       	mov.l	r15,@(4,r13)
    1da0:	1d f2       	mov.l	r15,@(8,r13)
    1da2:	1d f3       	mov.l	r15,@(12,r13)
    1da4:	1d f5       	mov.l	r15,@(20,r13)
    1da6:	1d f6       	mov.l	r15,@(24,r13)
    1da8:	1d f8       	mov.l	r15,@(32,r13)
    1daa:	1d f9       	mov.l	r15,@(36,r13)
    1dac:	1d fa       	mov.l	r15,@(40,r13)
    1dae:	1d fc       	mov.l	r15,@(48,r13)
    1db0:	1d fd       	mov.l	r15,@(52,r13)
    1db2:	1d ff       	mov.l	r15,@(60,r13)
    1db4:	1e 00       	mov.l	r0,@(0,r14)
    1db6:	1e 01       	mov.l	r0,@(4,r14)
    1db8:	1e 03       	mov.l	r0,@(12,r14)
    1dba:	1e 04       	mov.l	r0,@(16,r14)
    1dbc:	1e 06       	mov.l	r0,@(24,r14)
    1dbe:	1e 07       	mov.l	r0,@(28,r14)
    1dc0:	1e 08       	mov.l	r0,@(32,r14)
    1dc2:	1e 0a       	mov.l	r0,@(40,r14)
    1dc4:	1e 0b       	mov.l	r0,@(44,r14)
    1dc6:	1e 0d       	mov.l	r0,@(52,r14)
    1dc8:	1e 0e       	mov.l	r0,@(56,r14)
    1dca:	1e 0f       	mov.l	r0,@(60,r14)
    1dcc:	1e 11       	mov.l	r1,@(4,r14)
    1dce:	1e 12       	mov.l	r1,@(8,r14)
    1dd0:	1e 13       	mov.l	r1,@(12,r14)
    1dd2:	1e 15       	mov.l	r1,@(20,r14)
    1dd4:	1e 16       	mov.l	r1,@(24,r14)
    1dd6:	1e 18       	mov.l	r1,@(32,r14)
    1dd8:	1e 19       	mov.l	r1,@(36,r14)
    1dda:	1e 1a       	mov.l	r1,@(40,r14)
    1ddc:	1e 1c       	mov.l	r1,@(48,r14)
    1dde:	1e 1d       	mov.l	r1,@(52,r14)
    1de0:	1e 1f       	mov.l	r1,@(60,r14)
    1de2:	1e 20       	mov.l	r2,@(0,r14)
    1de4:	1e 21       	mov.l	r2,@(4,r14)
    1de6:	1e 23       	mov.l	r2,@(12,r14)
    1de8:	1e 24       	mov.l	r2,@(16,r14)
    1dea:	1e 26       	mov.l	r2,@(24,r14)
    1dec:	1e 27       	mov.l	r2,@(28,r14)
    1dee:	1e 28       	mov.l	r2,@(32,r14)
    1df0:	1e 2a       	mov.l	r2,@(40,r14)
    1df2:	1e 2b       	mov.l	r2,@(44,r14)
    1df4:	1e 2d       	mov.l	r2,@(52,r14)
    1df6:	1e 2e       	mov.l	r2,@(56,r14)
    1df8:	1e 2f       	mov.l	r2,@(60,r14)
    1dfa:	1e 31       	mov.l	r3,@(4,r14)
    1dfc:	1e 32       	mov.l	r3,@(8,r14)
    1dfe:	1e 33       	mov.l	r3,@(12,r14)
    1e00:	1e 35       	mov.l	r3,@(20,r14)
    1e02:	1e 36       	mov.l	r3,@(24,r14)
    1e04:	1e 38       	mov.l	r3,@(32,r14)
    1e06:	1e 39       	mov.l	r3,@(36,r14)
    1e08:	1e 3a       	mov.l	r3,@(40,r14)
    1e0a:	1e 3c       	mov.l	r3,@(48,r14)
    1e0c:	1e 3d       	mov.l	r3,@(52,r14)
    1e0e:	1e 3f       	mov.l	r3,@(60,r14)
    1e10:	1e 40       	mov.l	r4,@(0,r14)
    1e12:	1e 41       	mov.l	r4,@(4,r14)
    1e14:	1e 43       	mov.l	r4,@(12,r14)
    1e16:	1e 44       	mov.l	r4,@(16,r14)
    1e18:	1e 45       	mov.l	r4,@(20,r14)
    1e1a:	1e 47       	mov.l	r4,@(28,r14)
    1e1c:	1e 48       	mov.l	r4,@(32,r14)
    1e1e:	1e 4a       	mov.l	r4,@(40,r14)
    1e20:	1e 4b       	mov.l	r4,@(44,r14)
    1e22:	1e 4c       	mov.l	r4,@(48,r14)
    1e24:	1e 4e       	mov.l	r4,@(56,r14)
    1e26:	1e 4f       	mov.l	r4,@(60,r14)
    1e28:	1e 50       	mov.l	r5,@(0,r14)
    1e2a:	1e 52       	mov.l	r5,@(8,r14)
    1e2c:	1e 53       	mov.l	r5,@(12,r14)
    1e2e:	1e 55       	mov.l	r5,@(20,r14)
    1e30:	1e 56       	mov.l	r5,@(24,r14)
    1e32:	1e 57       	mov.l	r5,@(28,r14)
    1e34:	1e 59       	mov.l	r5,@(36,r14)
    1e36:	1e 5a       	mov.l	r5,@(40,r14)
    1e38:	1e 5b       	mov.l	r5,@(44,r14)
    1e3a:	1e 5d       	mov.l	r5,@(52,r14)
    1e3c:	1e 5e       	mov.l	r5,@(56,r14)
    1e3e:	1e 60       	mov.l	r6,@(0,r14)
    1e40:	1e 61       	mov.l	r6,@(4,r14)
    1e42:	1e 62       	mov.l	r6,@(8,r14)
    1e44:	1e 64       	mov.l	r6,@(16,r14)
    1e46:	1e 65       	mov.l	r6,@(20,r14)
    1e48:	1e 66       	mov.l	r6,@(24,r14)
    1e4a:	1e 68       	mov.l	r6,@(32,r14)
    1e4c:	1e 69       	mov.l	r6,@(36,r14)
    1e4e:	1e 6b       	mov.l	r6,@(44,r14)
    1e50:	1e 6c       	mov.l	r6,@(48,r14)
    1e52:	1e 6d       	mov.l	r6,@(52,r14)
    1e54:	1e 6f       	mov.l	r6,@(60,r14)
    1e56:	1e 70       	mov.l	r7,@(0,r14)
    1e58:	1e 71       	mov.l	r7,@(4,r14)
    1e5a:	1e 73       	mov.l	r7,@(12,r14)
    1e5c:	1e 74       	mov.l	r7,@(16,r14)
    1e5e:	1e 76       	mov.l	r7,@(24,r14)
    1e60:	1e 77       	mov.l	r7,@(28,r14)
    1e62:	1e 78       	mov.l	r7,@(32,r14)
    1e64:	1e 7a       	mov.l	r7,@(40,r14)
    1e66:	1e 7b       	mov.l	r7,@(44,r14)
    1e68:	1e 7c       	mov.l	r7,@(48,r14)
    1e6a:	1e 7e       	mov.l	r7,@(56,r14)
    1e6c:	1e 7f       	mov.l	r7,@(60,r14)
    1e6e:	1e 81       	mov.l	r8,@(4,r14)
    1e70:	1e 82       	mov.l	r8,@(8,r14)
    1e72:	1e 83       	mov.l	r8,@(12,r14)
    1e74:	1e 85       	mov.l	r8,@(20,r14)
    1e76:	1e 86       	mov.l	r8,@(24,r14)
    1e78:	1e 87       	mov.l	r8,@(28,r14)
    1e7a:	1e 89       	mov.l	r8,@(36,r14)
    1e7c:	1e 8a       	mov.l	r8,@(40,r14)
    1e7e:	1e 8b       	mov.l	r8,@(44,r14)
    1e80:	1e 8d       	mov.l	r8,@(52,r14)
    1e82:	1e 8e       	mov.l	r8,@(56,r14)
    1e84:	1e 90       	mov.l	r9,@(0,r14)
    1e86:	1e 91       	mov.l	r9,@(4,r14)
    1e88:	1e 92       	mov.l	r9,@(8,r14)
    1e8a:	1e 94       	mov.l	r9,@(16,r14)
    1e8c:	1e 95       	mov.l	r9,@(20,r14)
    1e8e:	1e 96       	mov.l	r9,@(24,r14)
    1e90:	1e 98       	mov.l	r9,@(32,r14)
    1e92:	1e 99       	mov.l	r9,@(36,r14)
    1e94:	1e 9a       	mov.l	r9,@(40,r14)
    1e96:	1e 9c       	mov.l	r9,@(48,r14)
    1e98:	1e 9d       	mov.l	r9,@(52,r14)
    1e9a:	1e 9f       	mov.l	r9,@(60,r14)
    1e9c:	1e a0       	mov.l	r10,@(0,r14)
    1e9e:	1e a1       	mov.l	r10,@(4,r14)
    1ea0:	1e a3       	mov.l	r10,@(12,r14)
    1ea2:	1e a4       	mov.l	r10,@(16,r14)
    1ea4:	1e a5       	mov.l	r10,@(20,r14)
    1ea6:	1e a7       	mov.l	r10,@(28,r14)
    1ea8:	1e a8       	mov.l	r10,@(32,r14)
    1eaa:	1e a9       	mov.l	r10,@(36,r14)
    1eac:	1e ab       	mov.l	r10,@(44,r14)
    1eae:	1e ac       	mov.l	r10,@(48,r14)
    1eb0:	1e ad       	mov.l	r10,@(52,r14)
    1eb2:	1e af       	mov.l	r10,@(60,r14)
    1eb4:	1e b0       	mov.l	r11,@(0,r14)
    1eb6:	1e b2       	mov.l	r11,@(8,r14)
    1eb8:	1e b3       	mov.l	r11,@(12,r14)
    1eba:	1e b4       	mov.l	r11,@(16,r14)
    1ebc:	1e b6       	mov.l	r11,@(24,r14)
    1ebe:	1e b7       	mov.l	r11,@(28,r14)
    1ec0:	1e b8       	mov.l	r11,@(32,r14)
    1ec2:	1e ba       	mov.l	r11,@(40,r14)
    1ec4:	1e bb       	mov.l	r11,@(44,r14)
    1ec6:	1e bc       	mov.l	r11,@(48,r14)
    1ec8:	1e be       	mov.l	r11,@(56,r14)
    1eca:	1e bf       	mov.l	r11,@(60,r14)
    1ecc:	1e c0       	mov.l	r12,@(0,r14)
    1ece:	1e c2       	mov.l	r12,@(8,r14)
    1ed0:	1e c3       	mov.l	r12,@(12,r14)
    1ed2:	1e c4       	mov.l	r12,@(16,r14)
    1ed4:	1e c6       	mov.l	r12,@(24,r14)
    1ed6:	1e c7       	mov.l	r12,@(28,r14)
    1ed8:	1e c8       	mov.l	r12,@(32,r14)
    1eda:	1e ca       	mov.l	r12,@(40,r14)
    1edc:	1e cb       	mov.l	r12,@(44,r14)
    1ede:	1e cd       	mov.l	r12,@(52,r14)
    1ee0:	1e ce       	mov.l	r12,@(56,r14)
    1ee2:	1e cf       	mov.l	r12,@(60,r14)
    1ee4:	1e d1       	mov.l	r13,@(4,r14)
    1ee6:	1e d2       	mov.l	r13,@(8,r14)
    1ee8:	1e d3       	mov.l	r13,@(12,r14)
    1eea:	1e d5       	mov.l	r13,@(20,r14)
    1eec:	1e d6       	mov.l	r13,@(24,r14)
    1eee:	1e d7       	mov.l	r13,@(28,r14)
    1ef0:	1e d9       	mov.l	r13,@(36,r14)
    1ef2:	1e da       	mov.l	r13,@(40,r14)
    1ef4:	1e db       	mov.l	r13,@(44,r14)
    1ef6:	1e dd       	mov.l	r13,@(52,r14)
    1ef8:	1e de       	mov.l	r13,@(56,r14)
    1efa:	1e df       	mov.l	r13,@(60,r14)
    1efc:	1e e1       	mov.l	r14,@(4,r14)
    1efe:	1e e2       	mov.l	r14,@(8,r14)
    1f00:	1e e3       	mov.l	r14,@(12,r14)
    1f02:	1e e5       	mov.l	r14,@(20,r14)
    1f04:	1e e6       	mov.l	r14,@(24,r14)
    1f06:	1e e7       	mov.l	r14,@(28,r14)
    1f08:	1e e9       	mov.l	r14,@(36,r14)
    1f0a:	1e ea       	mov.l	r14,@(40,r14)
    1f0c:	1e eb       	mov.l	r14,@(44,r14)
    1f0e:	1e ed       	mov.l	r14,@(52,r14)
    1f10:	1e ee       	mov.l	r14,@(56,r14)
    1f12:	1e ef       	mov.l	r14,@(60,r14)
    1f14:	1e f1       	mov.l	r15,@(4,r14)
    1f16:	1e f2       	mov.l	r15,@(8,r14)
    1f18:	1e f4       	mov.l	r15,@(16,r14)
    1f1a:	1e f5       	mov.l	r15,@(20,r14)
    1f1c:	1e f6       	mov.l	r15,@(24,r14)
    1f1e:	1e f8       	mov.l	r15,@(32,r14)
    1f20:	1e f9       	mov.l	r15,@(36,r14)
    1f22:	1e fa       	mov.l	r15,@(40,r14)
    1f24:	1e fc       	mov.l	r15,@(48,r14)
    1f26:	1e fd       	mov.l	r15,@(52,r14)
    1f28:	1e fe       	mov.l	r15,@(56,r14)
    1f2a:	1f 00       	mov.l	r0,@(0,r15)
    1f2c:	1f 01       	mov.l	r0,@(4,r15)
    1f2e:	1f 02       	mov.l	r0,@(8,r15)
    1f30:	1f 04       	mov.l	r0,@(16,r15)
    1f32:	1f 05       	mov.l	r0,@(20,r15)
    1f34:	1f 06       	mov.l	r0,@(24,r15)
    1f36:	1f 08       	mov.l	r0,@(32,r15)
    1f38:	1f 09       	mov.l	r0,@(36,r15)
    1f3a:	1f 0a       	mov.l	r0,@(40,r15)
    1f3c:	1f 0c       	mov.l	r0,@(48,r15)
    1f3e:	1f 0d       	mov.l	r0,@(52,r15)
    1f40:	1f 0e       	mov.l	r0,@(56,r15)
    1f42:	1f 10       	mov.l	r1,@(0,r15)
    1f44:	1f 11       	mov.l	r1,@(4,r15)
    1f46:	1f 12       	mov.l	r1,@(8,r15)
    1f48:	1f 14       	mov.l	r1,@(16,r15)
    1f4a:	1f 15       	mov.l	r1,@(20,r15)
    1f4c:	1f 16       	mov.l	r1,@(24,r15)
    1f4e:	1f 18       	mov.l	r1,@(32,r15)
    1f50:	1f 19       	mov.l	r1,@(36,r15)
    1f52:	1f 1a       	mov.l	r1,@(40,r15)
    1f54:	1f 1c       	mov.l	r1,@(48,r15)
    1f56:	1f 1d       	mov.l	r1,@(52,r15)
    1f58:	1f 1e       	mov.l	r1,@(56,r15)
    1f5a:	1f 20       	mov.l	r2,@(0,r15)
    1f5c:	1f 21       	mov.l	r2,@(4,r15)
    1f5e:	1f 22       	mov.l	r2,@(8,r15)
    1f60:	1f 23       	mov.l	r2,@(12,r15)
    1f62:	1f 25       	mov.l	r2,@(20,r15)
    1f64:	1f 26       	mov.l	r2,@(24,r15)
    1f66:	1f 27       	mov.l	r2,@(28,r15)
    1f68:	1f 29       	mov.l	r2,@(36,r15)
    1f6a:	1f 2a       	mov.l	r2,@(40,r15)
    1f6c:	1f 2b       	mov.l	r2,@(44,r15)
    1f6e:	1f 2d       	mov.l	r2,@(52,r15)
    1f70:	1f 2e       	mov.l	r2,@(56,r15)
    1f72:	1f 2f       	mov.l	r2,@(60,r15)
    1f74:	1f 31       	mov.l	r3,@(4,r15)
    1f76:	1f 32       	mov.l	r3,@(8,r15)
    1f78:	1f 33       	mov.l	r3,@(12,r15)
    1f7a:	1f 35       	mov.l	r3,@(20,r15)
    1f7c:	1f 36       	mov.l	r3,@(24,r15)
    1f7e:	1f 37       	mov.l	r3,@(28,r15)
    1f80:	1f 39       	mov.l	r3,@(36,r15)
    1f82:	1f 3a       	mov.l	r3,@(40,r15)
    1f84:	1f 3b       	mov.l	r3,@(44,r15)
    1f86:	1f 3d       	mov.l	r3,@(52,r15)
    1f88:	1f 3e       	mov.l	r3,@(56,r15)
    1f8a:	1f 3f       	mov.l	r3,@(60,r15)
    1f8c:	1f 41       	mov.l	r4,@(4,r15)
    1f8e:	1f 42       	mov.l	r4,@(8,r15)
    1f90:	1f 43       	mov.l	r4,@(12,r15)
    1f92:	1f 45       	mov.l	r4,@(20,r15)
    1f94:	1f 46       	mov.l	r4,@(24,r15)
    1f96:	1f 47       	mov.l	r4,@(28,r15)
    1f98:	1f 49       	mov.l	r4,@(36,r15)
    1f9a:	1f 4a       	mov.l	r4,@(40,r15)
    1f9c:	1f 4b       	mov.l	r4,@(44,r15)
    1f9e:	1f 4c       	mov.l	r4,@(48,r15)
    1fa0:	1f 4e       	mov.l	r4,@(56,r15)
    1fa2:	1f 4f       	mov.l	r4,@(60,r15)
    1fa4:	1f 50       	mov.l	r5,@(0,r15)
    1fa6:	1f 52       	mov.l	r5,@(8,r15)
    1fa8:	1f 53       	mov.l	r5,@(12,r15)
    1faa:	1f 54       	mov.l	r5,@(16,r15)
    1fac:	1f 56       	mov.l	r5,@(24,r15)
    1fae:	1f 57       	mov.l	r5,@(28,r15)
    1fb0:	1f 58       	mov.l	r5,@(32,r15)
    1fb2:	1f 5a       	mov.l	r5,@(40,r15)
    1fb4:	1f 5b       	mov.l	r5,@(44,r15)
    1fb6:	1f 5c       	mov.l	r5,@(48,r15)
    1fb8:	1f 5e       	mov.l	r5,@(56,r15)
    1fba:	1f 5f       	mov.l	r5,@(60,r15)
    1fbc:	1f 60       	mov.l	r6,@(0,r15)
    1fbe:	1f 62       	mov.l	r6,@(8,r15)
    1fc0:	1f 63       	mov.l	r6,@(12,r15)
    1fc2:	1f 64       	mov.l	r6,@(16,r15)
    1fc4:	1f 65       	mov.l	r6,@(20,r15)
    1fc6:	1f 67       	mov.l	r6,@(28,r15)
    1fc8:	1f 68       	mov.l	r6,@(32,r15)
    1fca:	1f 69       	mov.l	r6,@(36,r15)
    1fcc:	1f 6b       	mov.l	r6,@(44,r15)
    1fce:	1f 6c       	mov.l	r6,@(48,r15)
    1fd0:	1f 6d       	mov.l	r6,@(52,r15)
    1fd2:	1f 6f       	mov.l	r6,@(60,r15)
    1fd4:	1f 70       	mov.l	r7,@(0,r15)
    1fd6:	1f 71       	mov.l	r7,@(4,r15)
    1fd8:	1f 73       	mov.l	r7,@(12,r15)
    1fda:	1f 74       	mov.l	r7,@(16,r15)
    1fdc:	1f 75       	mov.l	r7,@(20,r15)
    1fde:	1f 76       	mov.l	r7,@(24,r15)
    1fe0:	1f 78       	mov.l	r7,@(32,r15)
    1fe2:	1f 79       	mov.l	r7,@(36,r15)
    1fe4:	1f 7a       	mov.l	r7,@(40,r15)
    1fe6:	1f 7c       	mov.l	r7,@(48,r15)
    1fe8:	1f 7d       	mov.l	r7,@(52,r15)
    1fea:	1f 7e       	mov.l	r7,@(56,r15)
    1fec:	1f 80       	mov.l	r8,@(0,r15)
    1fee:	1f 81       	mov.l	r8,@(4,r15)
    1ff0:	1f 82       	mov.l	r8,@(8,r15)
    1ff2:	1f 84       	mov.l	r8,@(16,r15)
    1ff4:	1f 85       	mov.l	r8,@(20,r15)
    1ff6:	1f 86       	mov.l	r8,@(24,r15)
    1ff8:	1f 87       	mov.l	r8,@(28,r15)
    1ffa:	1f 89       	mov.l	r8,@(36,r15)
    1ffc:	1f 8a       	mov.l	r8,@(40,r15)
    1ffe:	1f 8b       	mov.l	r8,@(44,r15)
    2000:	1f 8d       	mov.l	r8,@(52,r15)
    2002:	1f 8e       	mov.l	r8,@(56,r15)
    2004:	1f 8f       	mov.l	r8,@(60,r15)
    2006:	1f 91       	mov.l	r9,@(4,r15)
    2008:	1f 92       	mov.l	r9,@(8,r15)
    200a:	1f 93       	mov.l	r9,@(12,r15)
    200c:	1f 94       	mov.l	r9,@(16,r15)
    200e:	1f 96       	mov.l	r9,@(24,r15)
    2010:	1f 97       	mov.l	r9,@(28,r15)
    2012:	1f 98       	mov.l	r9,@(32,r15)
    2014:	1f 9a       	mov.l	r9,@(40,r15)
    2016:	1f 9b       	mov.l	r9,@(44,r15)
    2018:	1f 9c       	mov.l	r9,@(48,r15)
    201a:	1f 9e       	mov.l	r9,@(56,r15)
    201c:	1f 9f       	mov.l	r9,@(60,r15)
    201e:	1f a0       	mov.l	r10,@(0,r15)
    2020:	1f a1       	mov.l	r10,@(4,r15)
    2022:	1f a3       	mov.l	r10,@(12,r15)
    2024:	1f a4       	mov.l	r10,@(16,r15)
    2026:	1f a5       	mov.l	r10,@(20,r15)
    2028:	1f a7       	mov.l	r10,@(28,r15)
    202a:	1f a8       	mov.l	r10,@(32,r15)
    202c:	1f a9       	mov.l	r10,@(36,r15)
    202e:	1f aa       	mov.l	r10,@(40,r15)
    2030:	1f ac       	mov.l	r10,@(48,r15)
    2032:	1f ad       	mov.l	r10,@(52,r15)
    2034:	1f ae       	mov.l	r10,@(56,r15)
    2036:	1f b0       	mov.l	r11,@(0,r15)
    2038:	1f b1       	mov.l	r11,@(4,r15)
    203a:	1f b2       	mov.l	r11,@(8,r15)
    203c:	1f b4       	mov.l	r11,@(16,r15)
    203e:	1f b5       	mov.l	r11,@(20,r15)
    2040:	1f b6       	mov.l	r11,@(24,r15)
    2042:	1f b7       	mov.l	r11,@(28,r15)
    2044:	1f b9       	mov.l	r11,@(36,r15)
    2046:	1f ba       	mov.l	r11,@(40,r15)
    2048:	1f bb       	mov.l	r11,@(44,r15)
    204a:	1f bd       	mov.l	r11,@(52,r15)
    204c:	1f be       	mov.l	r11,@(56,r15)
    204e:	1f bf       	mov.l	r11,@(60,r15)
    2050:	1f c0       	mov.l	r12,@(0,r15)
    2052:	1f c2       	mov.l	r12,@(8,r15)
    2054:	1f c3       	mov.l	r12,@(12,r15)
    2056:	1f c4       	mov.l	r12,@(16,r15)
    2058:	1f c6       	mov.l	r12,@(24,r15)
    205a:	1f c7       	mov.l	r12,@(28,r15)
    205c:	1f c8       	mov.l	r12,@(32,r15)
    205e:	1f c9       	mov.l	r12,@(36,r15)
    2060:	1f cb       	mov.l	r12,@(44,r15)
    2062:	1f cc       	mov.l	r12,@(48,r15)
    2064:	1f cd       	mov.l	r12,@(52,r15)
    2066:	1f cf       	mov.l	r12,@(60,r15)
    2068:	1f d0       	mov.l	r13,@(0,r15)
    206a:	1f d1       	mov.l	r13,@(4,r15)
    206c:	1f d2       	mov.l	r13,@(8,r15)
    206e:	1f d4       	mov.l	r13,@(16,r15)
    2070:	1f d5       	mov.l	r13,@(20,r15)
    2072:	1f d6       	mov.l	r13,@(24,r15)
    2074:	1f d8       	mov.l	r13,@(32,r15)
    2076:	1f d9       	mov.l	r13,@(36,r15)
    2078:	1f da       	mov.l	r13,@(40,r15)
    207a:	1f db       	mov.l	r13,@(44,r15)
    207c:	1f dd       	mov.l	r13,@(52,r15)
    207e:	1f de       	mov.l	r13,@(56,r15)
    2080:	1f df       	mov.l	r13,@(60,r15)
    2082:	1f e1       	mov.l	r14,@(4,r15)
    2084:	1f e2       	mov.l	r14,@(8,r15)
    2086:	1f e3       	mov.l	r14,@(12,r15)
    2088:	1f e4       	mov.l	r14,@(16,r15)
    208a:	1f e6       	mov.l	r14,@(24,r15)
    208c:	1f e7       	mov.l	r14,@(28,r15)
    208e:	1f e8       	mov.l	r14,@(32,r15)
    2090:	1f ea       	mov.l	r14,@(40,r15)
    2092:	1f eb       	mov.l	r14,@(44,r15)
    2094:	1f ec       	mov.l	r14,@(48,r15)
    2096:	1f ed       	mov.l	r14,@(52,r15)
    2098:	1f ef       	mov.l	r14,@(60,r15)
    209a:	1f f0       	mov.l	r15,@(0,r15)
    209c:	1f f1       	mov.l	r15,@(4,r15)
    209e:	1f f2       	mov.l	r15,@(8,r15)
    20a0:	1f f4       	mov.l	r15,@(16,r15)
    20a2:	1f f5       	mov.l	r15,@(20,r15)
    20a4:	1f f6       	mov.l	r15,@(24,r15)
    20a6:	1f f8       	mov.l	r15,@(32,r15)
    20a8:	1f f9       	mov.l	r15,@(36,r15)
    20aa:	1f fa       	mov.l	r15,@(40,r15)
    20ac:	1f fb       	mov.l	r15,@(44,r15)
    20ae:	1f fd       	mov.l	r15,@(52,r15)
    20b0:	1f fe       	mov.l	r15,@(56,r15)
    20b2:	1f ff       	mov.l	r15,@(60,r15)
    20b4:	20 00       	mov.b	r0,@r0
