
sglG26.o:     file format coff-sh


Disassembly of section SLPROG:

00000000 <_sddrv_129i>:
       0:	00 00       	.word 0x0000
       2:	a0 00       	bra	6 <_sddrv_129i+0x6>
       4:	00 00       	.word 0x0000
       6:	10 00       	mov.l	r0,@(0,r0)
       8:	00 00       	.word 0x0000
       a:	16 82       	mov.l	r8,@(8,r6)
       c:	00 00       	.word 0x0000
       e:	16 8c       	mov.l	r8,@(48,r6)
      10:	00 00       	.word 0x0000
      12:	16 96       	mov.l	r9,@(24,r6)
      14:	00 00       	.word 0x0000
      16:	16 96       	mov.l	r9,@(24,r6)
      18:	00 00       	.word 0x0000
      1a:	16 96       	mov.l	r9,@(24,r6)
      1c:	00 00       	.word 0x0000
      1e:	16 96       	mov.l	r9,@(24,r6)
      20:	00 00       	.word 0x0000
      22:	16 96       	mov.l	r9,@(24,r6)
      24:	00 00       	.word 0x0000
      26:	16 96       	mov.l	r9,@(24,r6)
      28:	00 00       	.word 0x0000
      2a:	16 96       	mov.l	r9,@(24,r6)
      2c:	00 00       	.word 0x0000
      2e:	16 96       	mov.l	r9,@(24,r6)
      30:	00 00       	.word 0x0000
      32:	16 96       	mov.l	r9,@(24,r6)
      34:	00 00       	.word 0x0000
      36:	16 96       	mov.l	r9,@(24,r6)
      38:	00 00       	.word 0x0000
      3a:	16 96       	mov.l	r9,@(24,r6)
      3c:	00 00       	.word 0x0000
      3e:	16 96       	mov.l	r9,@(24,r6)
      40:	00 00       	.word 0x0000
      42:	16 96       	mov.l	r9,@(24,r6)
      44:	00 00       	.word 0x0000
      46:	16 96       	mov.l	r9,@(24,r6)
      48:	00 00       	.word 0x0000
      4a:	16 96       	mov.l	r9,@(24,r6)
      4c:	00 00       	.word 0x0000
      4e:	16 96       	mov.l	r9,@(24,r6)
      50:	00 00       	.word 0x0000
      52:	16 96       	mov.l	r9,@(24,r6)
      54:	00 00       	.word 0x0000
      56:	16 96       	mov.l	r9,@(24,r6)
      58:	00 00       	.word 0x0000
      5a:	16 96       	mov.l	r9,@(24,r6)
      5c:	00 00       	.word 0x0000
      5e:	16 96       	mov.l	r9,@(24,r6)
      60:	00 00       	.word 0x0000
      62:	16 96       	mov.l	r9,@(24,r6)
      64:	00 00       	.word 0x0000
      66:	16 96       	mov.l	r9,@(24,r6)
      68:	00 00       	.word 0x0000
      6a:	14 0e       	mov.l	r0,@(56,r4)
      6c:	00 00       	.word 0x0000
      6e:	16 96       	mov.l	r9,@(24,r6)
      70:	00 00       	.word 0x0000
      72:	16 96       	mov.l	r9,@(24,r6)
      74:	00 00       	.word 0x0000
      76:	16 96       	mov.l	r9,@(24,r6)
      78:	00 00       	.word 0x0000
      7a:	16 96       	mov.l	r9,@(24,r6)
      7c:	00 00       	.word 0x0000
      7e:	16 96       	mov.l	r9,@(24,r6)
      80:	00 00       	.word 0x0000
      82:	16 96       	mov.l	r9,@(24,r6)
      84:	00 00       	.word 0x0000
      86:	16 96       	mov.l	r9,@(24,r6)
      88:	00 00       	.word 0x0000
      8a:	16 96       	mov.l	r9,@(24,r6)
      8c:	00 00       	.word 0x0000
      8e:	16 96       	mov.l	r9,@(24,r6)
      90:	00 00       	.word 0x0000
      92:	16 96       	mov.l	r9,@(24,r6)
      94:	00 00       	.word 0x0000
      96:	16 96       	mov.l	r9,@(24,r6)
      98:	00 00       	.word 0x0000
      9a:	16 96       	mov.l	r9,@(24,r6)
      9c:	00 00       	.word 0x0000
      9e:	16 96       	mov.l	r9,@(24,r6)
      a0:	00 00       	.word 0x0000
      a2:	16 96       	mov.l	r9,@(24,r6)
      a4:	00 00       	.word 0x0000
      a6:	16 96       	mov.l	r9,@(24,r6)
      a8:	00 00       	.word 0x0000
      aa:	16 96       	mov.l	r9,@(24,r6)
      ac:	00 00       	.word 0x0000
      ae:	16 96       	mov.l	r9,@(24,r6)
      b0:	00 00       	.word 0x0000
      b2:	16 96       	mov.l	r9,@(24,r6)
      b4:	00 00       	.word 0x0000
      b6:	16 96       	mov.l	r9,@(24,r6)
      b8:	00 00       	.word 0x0000
      ba:	16 96       	mov.l	r9,@(24,r6)
      bc:	00 00       	.word 0x0000
      be:	16 96       	mov.l	r9,@(24,r6)
      c0:	00 00       	.word 0x0000
      c2:	16 96       	mov.l	r9,@(24,r6)
      c4:	00 00       	.word 0x0000
      c6:	16 96       	mov.l	r9,@(24,r6)
      c8:	00 00       	.word 0x0000
      ca:	16 96       	mov.l	r9,@(24,r6)
      cc:	00 00       	.word 0x0000
      ce:	16 96       	mov.l	r9,@(24,r6)
      d0:	00 00       	.word 0x0000
      d2:	16 96       	mov.l	r9,@(24,r6)
      d4:	00 00       	.word 0x0000
      d6:	16 96       	mov.l	r9,@(24,r6)
      d8:	00 00       	.word 0x0000
      da:	16 96       	mov.l	r9,@(24,r6)
      dc:	00 00       	.word 0x0000
      de:	16 96       	mov.l	r9,@(24,r6)
      e0:	00 00       	.word 0x0000
      e2:	16 96       	mov.l	r9,@(24,r6)
      e4:	00 00       	.word 0x0000
      e6:	16 96       	mov.l	r9,@(24,r6)
      e8:	00 00       	.word 0x0000
      ea:	16 96       	mov.l	r9,@(24,r6)
      ec:	00 00       	.word 0x0000
      ee:	16 96       	mov.l	r9,@(24,r6)
      f0:	00 00       	.word 0x0000
      f2:	16 96       	mov.l	r9,@(24,r6)
      f4:	00 00       	.word 0x0000
      f6:	16 96       	mov.l	r9,@(24,r6)
      f8:	00 00       	.word 0x0000
      fa:	16 96       	mov.l	r9,@(24,r6)
      fc:	00 00       	.word 0x0000
      fe:	16 96       	mov.l	r9,@(24,r6)
     100:	00 00       	.word 0x0000
     102:	16 96       	mov.l	r9,@(24,r6)
     104:	00 00       	.word 0x0000
     106:	16 96       	mov.l	r9,@(24,r6)
     108:	00 00       	.word 0x0000
     10a:	16 96       	mov.l	r9,@(24,r6)
     10c:	00 00       	.word 0x0000
     10e:	16 96       	mov.l	r9,@(24,r6)
     110:	00 00       	.word 0x0000
     112:	16 96       	mov.l	r9,@(24,r6)
     114:	00 00       	.word 0x0000
     116:	16 96       	mov.l	r9,@(24,r6)
     118:	00 00       	.word 0x0000
     11a:	16 96       	mov.l	r9,@(24,r6)
     11c:	00 00       	.word 0x0000
     11e:	16 96       	mov.l	r9,@(24,r6)
     120:	00 00       	.word 0x0000
     122:	16 96       	mov.l	r9,@(24,r6)
     124:	00 00       	.word 0x0000
     126:	16 96       	mov.l	r9,@(24,r6)
     128:	00 00       	.word 0x0000
     12a:	16 96       	mov.l	r9,@(24,r6)
     12c:	00 00       	.word 0x0000
     12e:	16 96       	mov.l	r9,@(24,r6)
     130:	00 00       	.word 0x0000
     132:	16 96       	mov.l	r9,@(24,r6)
     134:	00 00       	.word 0x0000
     136:	16 96       	mov.l	r9,@(24,r6)
     138:	00 00       	.word 0x0000
     13a:	16 96       	mov.l	r9,@(24,r6)
     13c:	00 00       	.word 0x0000
     13e:	16 96       	mov.l	r9,@(24,r6)
     140:	00 00       	.word 0x0000
     142:	16 96       	mov.l	r9,@(24,r6)
     144:	00 00       	.word 0x0000
     146:	16 96       	mov.l	r9,@(24,r6)
     148:	00 00       	.word 0x0000
     14a:	16 96       	mov.l	r9,@(24,r6)
     14c:	00 00       	.word 0x0000
     14e:	16 96       	mov.l	r9,@(24,r6)
     150:	00 00       	.word 0x0000
     152:	16 96       	mov.l	r9,@(24,r6)
     154:	00 00       	.word 0x0000
     156:	16 96       	mov.l	r9,@(24,r6)
     158:	00 00       	.word 0x0000
     15a:	16 96       	mov.l	r9,@(24,r6)
     15c:	00 00       	.word 0x0000
     15e:	16 96       	mov.l	r9,@(24,r6)
     160:	00 00       	.word 0x0000
     162:	16 96       	mov.l	r9,@(24,r6)
     164:	00 00       	.word 0x0000
     166:	16 96       	mov.l	r9,@(24,r6)
     168:	00 00       	.word 0x0000
     16a:	16 96       	mov.l	r9,@(24,r6)
     16c:	00 00       	.word 0x0000
     16e:	16 96       	mov.l	r9,@(24,r6)
     170:	00 00       	.word 0x0000
     172:	16 96       	mov.l	r9,@(24,r6)
     174:	00 00       	.word 0x0000
     176:	16 96       	mov.l	r9,@(24,r6)
     178:	00 00       	.word 0x0000
     17a:	16 96       	mov.l	r9,@(24,r6)
     17c:	00 00       	.word 0x0000
     17e:	16 96       	mov.l	r9,@(24,r6)
     180:	00 00       	.word 0x0000
     182:	16 96       	mov.l	r9,@(24,r6)
     184:	00 00       	.word 0x0000
     186:	16 96       	mov.l	r9,@(24,r6)
     188:	00 00       	.word 0x0000
     18a:	16 96       	mov.l	r9,@(24,r6)
     18c:	00 00       	.word 0x0000
     18e:	16 96       	mov.l	r9,@(24,r6)
     190:	00 00       	.word 0x0000
     192:	16 96       	mov.l	r9,@(24,r6)
     194:	00 00       	.word 0x0000
     196:	16 96       	mov.l	r9,@(24,r6)
     198:	00 00       	.word 0x0000
     19a:	16 96       	mov.l	r9,@(24,r6)
     19c:	00 00       	.word 0x0000
     19e:	16 96       	mov.l	r9,@(24,r6)
     1a0:	00 00       	.word 0x0000
     1a2:	16 96       	mov.l	r9,@(24,r6)
     1a4:	00 00       	.word 0x0000
     1a6:	16 96       	mov.l	r9,@(24,r6)
     1a8:	00 00       	.word 0x0000
     1aa:	16 96       	mov.l	r9,@(24,r6)
     1ac:	00 00       	.word 0x0000
     1ae:	16 96       	mov.l	r9,@(24,r6)
     1b0:	00 00       	.word 0x0000
     1b2:	16 96       	mov.l	r9,@(24,r6)
     1b4:	00 00       	.word 0x0000
     1b6:	16 96       	mov.l	r9,@(24,r6)
     1b8:	00 00       	.word 0x0000
     1ba:	16 96       	mov.l	r9,@(24,r6)
     1bc:	00 00       	.word 0x0000
     1be:	16 96       	mov.l	r9,@(24,r6)
     1c0:	00 00       	.word 0x0000
     1c2:	16 96       	mov.l	r9,@(24,r6)
     1c4:	00 00       	.word 0x0000
     1c6:	16 96       	mov.l	r9,@(24,r6)
     1c8:	00 00       	.word 0x0000
     1ca:	16 96       	mov.l	r9,@(24,r6)
     1cc:	00 00       	.word 0x0000
     1ce:	16 96       	mov.l	r9,@(24,r6)
     1d0:	00 00       	.word 0x0000
     1d2:	16 96       	mov.l	r9,@(24,r6)
     1d4:	00 00       	.word 0x0000
     1d6:	16 96       	mov.l	r9,@(24,r6)
     1d8:	00 00       	.word 0x0000
     1da:	16 96       	mov.l	r9,@(24,r6)
     1dc:	00 00       	.word 0x0000
     1de:	16 96       	mov.l	r9,@(24,r6)
     1e0:	00 00       	.word 0x0000
     1e2:	16 96       	mov.l	r9,@(24,r6)
     1e4:	00 00       	.word 0x0000
     1e6:	16 96       	mov.l	r9,@(24,r6)
     1e8:	00 00       	.word 0x0000
     1ea:	16 96       	mov.l	r9,@(24,r6)
     1ec:	00 00       	.word 0x0000
     1ee:	16 96       	mov.l	r9,@(24,r6)
     1f0:	00 00       	.word 0x0000
     1f2:	16 96       	mov.l	r9,@(24,r6)
     1f4:	00 00       	.word 0x0000
     1f6:	16 96       	mov.l	r9,@(24,r6)
     1f8:	00 00       	.word 0x0000
     1fa:	16 96       	mov.l	r9,@(24,r6)
     1fc:	00 00       	.word 0x0000
     1fe:	16 96       	mov.l	r9,@(24,r6)
     200:	00 00       	.word 0x0000
     202:	16 96       	mov.l	r9,@(24,r6)
     204:	00 00       	.word 0x0000
     206:	16 96       	mov.l	r9,@(24,r6)
     208:	00 00       	.word 0x0000
     20a:	16 96       	mov.l	r9,@(24,r6)
     20c:	00 00       	.word 0x0000
     20e:	16 96       	mov.l	r9,@(24,r6)
     210:	00 00       	.word 0x0000
     212:	16 96       	mov.l	r9,@(24,r6)
     214:	00 00       	.word 0x0000
     216:	16 96       	mov.l	r9,@(24,r6)
     218:	00 00       	.word 0x0000
     21a:	16 96       	mov.l	r9,@(24,r6)
     21c:	00 00       	.word 0x0000
     21e:	16 96       	mov.l	r9,@(24,r6)
     220:	00 00       	.word 0x0000
     222:	16 96       	mov.l	r9,@(24,r6)
     224:	00 00       	.word 0x0000
     226:	16 96       	mov.l	r9,@(24,r6)
     228:	00 00       	.word 0x0000
     22a:	16 96       	mov.l	r9,@(24,r6)
     22c:	00 00       	.word 0x0000
     22e:	16 96       	mov.l	r9,@(24,r6)
     230:	00 00       	.word 0x0000
     232:	16 96       	mov.l	r9,@(24,r6)
     234:	00 00       	.word 0x0000
     236:	16 96       	mov.l	r9,@(24,r6)
     238:	00 00       	.word 0x0000
     23a:	16 96       	mov.l	r9,@(24,r6)
     23c:	00 00       	.word 0x0000
     23e:	16 96       	mov.l	r9,@(24,r6)
     240:	00 00       	.word 0x0000
     242:	16 96       	mov.l	r9,@(24,r6)
     244:	00 00       	.word 0x0000
     246:	16 96       	mov.l	r9,@(24,r6)
     248:	00 00       	.word 0x0000
     24a:	16 96       	mov.l	r9,@(24,r6)
     24c:	00 00       	.word 0x0000
     24e:	16 96       	mov.l	r9,@(24,r6)
     250:	00 00       	.word 0x0000
     252:	16 96       	mov.l	r9,@(24,r6)
     254:	00 00       	.word 0x0000
     256:	16 96       	mov.l	r9,@(24,r6)
     258:	00 00       	.word 0x0000
     25a:	16 96       	mov.l	r9,@(24,r6)
     25c:	00 00       	.word 0x0000
     25e:	16 96       	mov.l	r9,@(24,r6)
     260:	00 00       	.word 0x0000
     262:	16 96       	mov.l	r9,@(24,r6)
     264:	00 00       	.word 0x0000
     266:	16 96       	mov.l	r9,@(24,r6)
     268:	00 00       	.word 0x0000
     26a:	16 96       	mov.l	r9,@(24,r6)
     26c:	00 00       	.word 0x0000
     26e:	16 96       	mov.l	r9,@(24,r6)
     270:	00 00       	.word 0x0000
     272:	16 96       	mov.l	r9,@(24,r6)
     274:	00 00       	.word 0x0000
     276:	16 96       	mov.l	r9,@(24,r6)
     278:	00 00       	.word 0x0000
     27a:	16 96       	mov.l	r9,@(24,r6)
     27c:	00 00       	.word 0x0000
     27e:	16 96       	mov.l	r9,@(24,r6)
     280:	00 00       	.word 0x0000
     282:	16 96       	mov.l	r9,@(24,r6)
     284:	00 00       	.word 0x0000
     286:	16 96       	mov.l	r9,@(24,r6)
     288:	00 00       	.word 0x0000
     28a:	16 96       	mov.l	r9,@(24,r6)
     28c:	00 00       	.word 0x0000
     28e:	16 96       	mov.l	r9,@(24,r6)
     290:	00 00       	.word 0x0000
     292:	16 96       	mov.l	r9,@(24,r6)
     294:	00 00       	.word 0x0000
     296:	16 96       	mov.l	r9,@(24,r6)
     298:	00 00       	.word 0x0000
     29a:	16 96       	mov.l	r9,@(24,r6)
     29c:	00 00       	.word 0x0000
     29e:	16 96       	mov.l	r9,@(24,r6)
     2a0:	00 00       	.word 0x0000
     2a2:	16 96       	mov.l	r9,@(24,r6)
     2a4:	00 00       	.word 0x0000
     2a6:	16 96       	mov.l	r9,@(24,r6)
     2a8:	00 00       	.word 0x0000
     2aa:	16 96       	mov.l	r9,@(24,r6)
     2ac:	00 00       	.word 0x0000
     2ae:	16 96       	mov.l	r9,@(24,r6)
     2b0:	00 00       	.word 0x0000
     2b2:	16 96       	mov.l	r9,@(24,r6)
     2b4:	00 00       	.word 0x0000
     2b6:	16 96       	mov.l	r9,@(24,r6)
     2b8:	00 00       	.word 0x0000
     2ba:	16 96       	mov.l	r9,@(24,r6)
     2bc:	00 00       	.word 0x0000
     2be:	16 96       	mov.l	r9,@(24,r6)
     2c0:	00 00       	.word 0x0000
     2c2:	16 96       	mov.l	r9,@(24,r6)
     2c4:	00 00       	.word 0x0000
     2c6:	16 96       	mov.l	r9,@(24,r6)
     2c8:	00 00       	.word 0x0000
     2ca:	16 96       	mov.l	r9,@(24,r6)
     2cc:	00 00       	.word 0x0000
     2ce:	16 96       	mov.l	r9,@(24,r6)
     2d0:	00 00       	.word 0x0000
     2d2:	16 96       	mov.l	r9,@(24,r6)
     2d4:	00 00       	.word 0x0000
     2d6:	16 96       	mov.l	r9,@(24,r6)
     2d8:	00 00       	.word 0x0000
     2da:	16 96       	mov.l	r9,@(24,r6)
     2dc:	00 00       	.word 0x0000
     2de:	16 96       	mov.l	r9,@(24,r6)
     2e0:	00 00       	.word 0x0000
     2e2:	16 96       	mov.l	r9,@(24,r6)
     2e4:	00 00       	.word 0x0000
     2e6:	16 96       	mov.l	r9,@(24,r6)
     2e8:	00 00       	.word 0x0000
     2ea:	16 96       	mov.l	r9,@(24,r6)
     2ec:	00 00       	.word 0x0000
     2ee:	16 96       	mov.l	r9,@(24,r6)
     2f0:	00 00       	.word 0x0000
     2f2:	16 96       	mov.l	r9,@(24,r6)
     2f4:	00 00       	.word 0x0000
     2f6:	16 96       	mov.l	r9,@(24,r6)
     2f8:	00 00       	.word 0x0000
     2fa:	16 96       	mov.l	r9,@(24,r6)
     2fc:	00 00       	.word 0x0000
     2fe:	16 96       	mov.l	r9,@(24,r6)
     300:	00 00       	.word 0x0000
     302:	16 96       	mov.l	r9,@(24,r6)
     304:	00 00       	.word 0x0000
     306:	16 96       	mov.l	r9,@(24,r6)
     308:	00 00       	.word 0x0000
     30a:	16 96       	mov.l	r9,@(24,r6)
     30c:	00 00       	.word 0x0000
     30e:	16 96       	mov.l	r9,@(24,r6)
     310:	00 00       	.word 0x0000
     312:	16 96       	mov.l	r9,@(24,r6)
     314:	00 00       	.word 0x0000
     316:	16 96       	mov.l	r9,@(24,r6)
     318:	00 00       	.word 0x0000
     31a:	16 96       	mov.l	r9,@(24,r6)
     31c:	00 00       	.word 0x0000
     31e:	16 96       	mov.l	r9,@(24,r6)
     320:	00 00       	.word 0x0000
     322:	16 96       	mov.l	r9,@(24,r6)
     324:	00 00       	.word 0x0000
     326:	16 96       	mov.l	r9,@(24,r6)
     328:	00 00       	.word 0x0000
     32a:	16 96       	mov.l	r9,@(24,r6)
     32c:	00 00       	.word 0x0000
     32e:	16 96       	mov.l	r9,@(24,r6)
     330:	00 00       	.word 0x0000
     332:	16 96       	mov.l	r9,@(24,r6)
     334:	00 00       	.word 0x0000
     336:	16 96       	mov.l	r9,@(24,r6)
     338:	00 00       	.word 0x0000
     33a:	16 96       	mov.l	r9,@(24,r6)
     33c:	00 00       	.word 0x0000
     33e:	16 96       	mov.l	r9,@(24,r6)
     340:	00 00       	.word 0x0000
     342:	16 96       	mov.l	r9,@(24,r6)
     344:	00 00       	.word 0x0000
     346:	16 96       	mov.l	r9,@(24,r6)
     348:	00 00       	.word 0x0000
     34a:	16 96       	mov.l	r9,@(24,r6)
     34c:	00 00       	.word 0x0000
     34e:	16 96       	mov.l	r9,@(24,r6)
     350:	00 00       	.word 0x0000
     352:	16 96       	mov.l	r9,@(24,r6)
     354:	00 00       	.word 0x0000
     356:	16 96       	mov.l	r9,@(24,r6)
     358:	00 00       	.word 0x0000
     35a:	16 96       	mov.l	r9,@(24,r6)
     35c:	00 00       	.word 0x0000
     35e:	16 96       	mov.l	r9,@(24,r6)
     360:	00 00       	.word 0x0000
     362:	16 96       	mov.l	r9,@(24,r6)
     364:	00 00       	.word 0x0000
     366:	16 96       	mov.l	r9,@(24,r6)
     368:	00 00       	.word 0x0000
     36a:	16 96       	mov.l	r9,@(24,r6)
     36c:	00 00       	.word 0x0000
     36e:	16 96       	mov.l	r9,@(24,r6)
     370:	00 00       	.word 0x0000
     372:	16 96       	mov.l	r9,@(24,r6)
     374:	00 00       	.word 0x0000
     376:	16 96       	mov.l	r9,@(24,r6)
     378:	00 00       	.word 0x0000
     37a:	16 96       	mov.l	r9,@(24,r6)
     37c:	00 00       	.word 0x0000
     37e:	16 96       	mov.l	r9,@(24,r6)
     380:	00 00       	.word 0x0000
     382:	16 96       	mov.l	r9,@(24,r6)
     384:	00 00       	.word 0x0000
     386:	16 96       	mov.l	r9,@(24,r6)
     388:	00 00       	.word 0x0000
     38a:	16 96       	mov.l	r9,@(24,r6)
     38c:	00 00       	.word 0x0000
     38e:	16 96       	mov.l	r9,@(24,r6)
     390:	00 00       	.word 0x0000
     392:	16 96       	mov.l	r9,@(24,r6)
     394:	00 00       	.word 0x0000
     396:	16 96       	mov.l	r9,@(24,r6)
     398:	00 00       	.word 0x0000
     39a:	16 96       	mov.l	r9,@(24,r6)
     39c:	00 00       	.word 0x0000
     39e:	16 96       	mov.l	r9,@(24,r6)
     3a0:	00 00       	.word 0x0000
     3a2:	16 96       	mov.l	r9,@(24,r6)
     3a4:	00 00       	.word 0x0000
     3a6:	16 96       	mov.l	r9,@(24,r6)
     3a8:	00 00       	.word 0x0000
     3aa:	16 96       	mov.l	r9,@(24,r6)
     3ac:	00 00       	.word 0x0000
     3ae:	16 96       	mov.l	r9,@(24,r6)
     3b0:	00 00       	.word 0x0000
     3b2:	16 96       	mov.l	r9,@(24,r6)
     3b4:	00 00       	.word 0x0000
     3b6:	16 96       	mov.l	r9,@(24,r6)
     3b8:	00 00       	.word 0x0000
     3ba:	16 96       	mov.l	r9,@(24,r6)
     3bc:	00 00       	.word 0x0000
     3be:	16 96       	mov.l	r9,@(24,r6)
     3c0:	00 00       	.word 0x0000
     3c2:	16 96       	mov.l	r9,@(24,r6)
     3c4:	00 00       	.word 0x0000
     3c6:	16 96       	mov.l	r9,@(24,r6)
     3c8:	00 00       	.word 0x0000
     3ca:	16 96       	mov.l	r9,@(24,r6)
     3cc:	00 00       	.word 0x0000
     3ce:	16 96       	mov.l	r9,@(24,r6)
     3d0:	00 00       	.word 0x0000
     3d2:	16 96       	mov.l	r9,@(24,r6)
     3d4:	00 00       	.word 0x0000
     3d6:	16 96       	mov.l	r9,@(24,r6)
     3d8:	00 00       	.word 0x0000
     3da:	16 96       	mov.l	r9,@(24,r6)
     3dc:	00 00       	.word 0x0000
     3de:	16 96       	mov.l	r9,@(24,r6)
     3e0:	00 00       	.word 0x0000
     3e2:	16 96       	mov.l	r9,@(24,r6)
     3e4:	00 00       	.word 0x0000
     3e6:	16 96       	mov.l	r9,@(24,r6)
     3e8:	00 00       	.word 0x0000
     3ea:	16 96       	mov.l	r9,@(24,r6)
     3ec:	00 00       	.word 0x0000
     3ee:	16 96       	mov.l	r9,@(24,r6)
     3f0:	00 00       	.word 0x0000
     3f2:	16 96       	mov.l	r9,@(24,r6)
     3f4:	00 00       	.word 0x0000
     3f6:	16 96       	mov.l	r9,@(24,r6)
     3f8:	00 00       	.word 0x0000
     3fa:	16 96       	mov.l	r9,@(24,r6)
     3fc:	00 00       	.word 0x0000
     3fe:	16 96       	mov.l	r9,@(24,r6)
     400:	00 00       	.word 0x0000
     402:	04 40       	.word 0x0440
     404:	00 00       	.word 0x0000
     406:	07 00       	.word 0x0700
     408:	00 00       	.word 0x0000
     40a:	05 00       	.word 0x0500
     40c:	00 00       	.word 0x0000
     40e:	06 00       	.word 0x0600
     410:	00 00       	.word 0x0000
     412:	00 00       	.word 0x0000
     414:	04 80       	.word 0x0480
	...
     442:	10 00       	mov.l	r0,@(0,r0)
     444:	00 00       	.word 0x0000
     446:	60 00       	mov.b	@r0,r0
     448:	00 00       	.word 0x0000
     44a:	a0 00       	bra	44e <_sddrv_129i+0x44e>
     44c:	00 00       	.word 0x0000
     44e:	10 00       	mov.l	r0,@(0,r0)
     450:	00 00       	.word 0x0000
     452:	70 00       	add	#0,r0
     454:	00 00       	.word 0x0000
     456:	30 00       	cmp/eq	r0,r0
	...
     500:	ff ff       	.word 0xffff
     502:	ff ff       	.word 0xffff
     504:	ff ff       	.word 0xffff
     506:	ff ff       	.word 0xffff
     508:	ff ff       	.word 0xffff
     50a:	ff ff       	.word 0xffff
     50c:	ff ff       	.word 0xffff
     50e:	ff ff       	.word 0xffff
     510:	ff ff       	.word 0xffff
     512:	ff ff       	.word 0xffff
     514:	ff ff       	.word 0xffff
     516:	ff ff       	.word 0xffff
     518:	ff ff       	.word 0xffff
     51a:	ff ff       	.word 0xffff
     51c:	ff ff       	.word 0xffff
     51e:	ff ff       	.word 0xffff
     520:	ff ff       	.word 0xffff
     522:	ff ff       	.word 0xffff
     524:	ff ff       	.word 0xffff
     526:	ff ff       	.word 0xffff
     528:	ff ff       	.word 0xffff
     52a:	ff ff       	.word 0xffff
     52c:	ff ff       	.word 0xffff
     52e:	ff ff       	.word 0xffff
     530:	ff ff       	.word 0xffff
     532:	ff ff       	.word 0xffff
     534:	ff ff       	.word 0xffff
     536:	ff ff       	.word 0xffff
     538:	ff ff       	.word 0xffff
     53a:	ff ff       	.word 0xffff
     53c:	ff ff       	.word 0xffff
     53e:	ff ff       	.word 0xffff
     540:	ff ff       	.word 0xffff
     542:	ff ff       	.word 0xffff
     544:	ff ff       	.word 0xffff
     546:	ff ff       	.word 0xffff
     548:	ff ff       	.word 0xffff
     54a:	ff ff       	.word 0xffff
     54c:	ff ff       	.word 0xffff
     54e:	ff ff       	.word 0xffff
     550:	ff ff       	.word 0xffff
     552:	ff ff       	.word 0xffff
     554:	ff ff       	.word 0xffff
     556:	ff ff       	.word 0xffff
     558:	ff ff       	.word 0xffff
     55a:	ff ff       	.word 0xffff
     55c:	ff ff       	.word 0xffff
     55e:	ff ff       	.word 0xffff
     560:	ff ff       	.word 0xffff
     562:	ff ff       	.word 0xffff
     564:	ff ff       	.word 0xffff
     566:	ff ff       	.word 0xffff
     568:	ff ff       	.word 0xffff
     56a:	ff ff       	.word 0xffff
     56c:	ff ff       	.word 0xffff
     56e:	ff ff       	.word 0xffff
     570:	ff ff       	.word 0xffff
     572:	ff ff       	.word 0xffff
     574:	ff ff       	.word 0xffff
     576:	ff ff       	.word 0xffff
     578:	ff ff       	.word 0xffff
     57a:	ff ff       	.word 0xffff
     57c:	ff ff       	.word 0xffff
     57e:	ff ff       	.word 0xffff
     580:	ff ff       	.word 0xffff
     582:	ff ff       	.word 0xffff
     584:	ff ff       	.word 0xffff
     586:	ff ff       	.word 0xffff
     588:	ff ff       	.word 0xffff
     58a:	ff ff       	.word 0xffff
     58c:	ff ff       	.word 0xffff
     58e:	ff ff       	.word 0xffff
     590:	ff ff       	.word 0xffff
     592:	ff ff       	.word 0xffff
     594:	ff ff       	.word 0xffff
     596:	ff ff       	.word 0xffff
     598:	ff ff       	.word 0xffff
     59a:	ff ff       	.word 0xffff
     59c:	ff ff       	.word 0xffff
     59e:	ff ff       	.word 0xffff
     5a0:	ff ff       	.word 0xffff
     5a2:	ff ff       	.word 0xffff
     5a4:	ff ff       	.word 0xffff
     5a6:	ff ff       	.word 0xffff
     5a8:	ff ff       	.word 0xffff
     5aa:	ff ff       	.word 0xffff
     5ac:	ff ff       	.word 0xffff
     5ae:	ff ff       	.word 0xffff
     5b0:	ff ff       	.word 0xffff
     5b2:	ff ff       	.word 0xffff
     5b4:	ff ff       	.word 0xffff
     5b6:	ff ff       	.word 0xffff
     5b8:	ff ff       	.word 0xffff
     5ba:	ff ff       	.word 0xffff
     5bc:	ff ff       	.word 0xffff
     5be:	ff ff       	.word 0xffff
     5c0:	ff ff       	.word 0xffff
     5c2:	ff ff       	.word 0xffff
     5c4:	ff ff       	.word 0xffff
     5c6:	ff ff       	.word 0xffff
     5c8:	ff ff       	.word 0xffff
     5ca:	ff ff       	.word 0xffff
     5cc:	ff ff       	.word 0xffff
     5ce:	ff ff       	.word 0xffff
     5d0:	ff ff       	.word 0xffff
     5d2:	ff ff       	.word 0xffff
     5d4:	ff ff       	.word 0xffff
     5d6:	ff ff       	.word 0xffff
     5d8:	ff ff       	.word 0xffff
     5da:	ff ff       	.word 0xffff
     5dc:	ff ff       	.word 0xffff
     5de:	ff ff       	.word 0xffff
     5e0:	ff ff       	.word 0xffff
     5e2:	ff ff       	.word 0xffff
     5e4:	ff ff       	.word 0xffff
     5e6:	ff ff       	.word 0xffff
     5e8:	ff ff       	.word 0xffff
     5ea:	ff ff       	.word 0xffff
     5ec:	ff ff       	.word 0xffff
     5ee:	ff ff       	.word 0xffff
     5f0:	ff ff       	.word 0xffff
     5f2:	ff ff       	.word 0xffff
     5f4:	ff ff       	.word 0xffff
     5f6:	ff ff       	.word 0xffff
     5f8:	ff ff       	.word 0xffff
     5fa:	ff ff       	.word 0xffff
     5fc:	ff ff       	.word 0xffff
     5fe:	ff ff       	.word 0xffff
     600:	53 45       	mov.l	@(20,r4),r3
     602:	47 41       	.word 0x4741
     604:	53 45       	mov.l	@(20,r4),r3
     606:	47 41       	.word 0x4741
     608:	53 45       	mov.l	@(20,r4),r3
     60a:	47 41       	.word 0x4741
     60c:	53 45       	mov.l	@(20,r4),r3
     60e:	47 41       	.word 0x4741
     610:	53 45       	mov.l	@(20,r4),r3
     612:	47 41       	.word 0x4741
     614:	53 45       	mov.l	@(20,r4),r3
     616:	47 41       	.word 0x4741
     618:	53 45       	mov.l	@(20,r4),r3
     61a:	47 41       	.word 0x4741
     61c:	53 45       	mov.l	@(20,r4),r3
     61e:	47 41       	.word 0x4741
     620:	53 45       	mov.l	@(20,r4),r3
     622:	47 41       	.word 0x4741
     624:	53 45       	mov.l	@(20,r4),r3
     626:	47 41       	.word 0x4741
     628:	53 45       	mov.l	@(20,r4),r3
     62a:	47 41       	.word 0x4741
     62c:	53 45       	mov.l	@(20,r4),r3
     62e:	47 41       	.word 0x4741
     630:	53 45       	mov.l	@(20,r4),r3
     632:	47 41       	.word 0x4741
     634:	53 45       	mov.l	@(20,r4),r3
     636:	47 41       	.word 0x4741
     638:	53 45       	mov.l	@(20,r4),r3
     63a:	47 41       	.word 0x4741
     63c:	53 45       	mov.l	@(20,r4),r3
     63e:	47 41       	.word 0x4741
     640:	53 45       	mov.l	@(20,r4),r3
     642:	47 41       	.word 0x4741
     644:	53 45       	mov.l	@(20,r4),r3
     646:	47 41       	.word 0x4741
     648:	53 45       	mov.l	@(20,r4),r3
     64a:	47 41       	.word 0x4741
     64c:	53 45       	mov.l	@(20,r4),r3
     64e:	47 41       	.word 0x4741
     650:	53 45       	mov.l	@(20,r4),r3
     652:	47 41       	.word 0x4741
     654:	53 45       	mov.l	@(20,r4),r3
     656:	47 41       	.word 0x4741
     658:	53 45       	mov.l	@(20,r4),r3
     65a:	47 41       	.word 0x4741
     65c:	53 45       	mov.l	@(20,r4),r3
     65e:	47 41       	.word 0x4741
     660:	53 45       	mov.l	@(20,r4),r3
     662:	47 41       	.word 0x4741
     664:	53 45       	mov.l	@(20,r4),r3
     666:	47 41       	.word 0x4741
     668:	53 45       	mov.l	@(20,r4),r3
     66a:	47 41       	.word 0x4741
     66c:	53 45       	mov.l	@(20,r4),r3
     66e:	47 41       	.word 0x4741
     670:	53 45       	mov.l	@(20,r4),r3
     672:	47 41       	.word 0x4741
     674:	53 45       	mov.l	@(20,r4),r3
     676:	47 41       	.word 0x4741
     678:	53 45       	mov.l	@(20,r4),r3
     67a:	47 41       	.word 0x4741
     67c:	53 45       	mov.l	@(20,r4),r3
     67e:	47 41       	.word 0x4741
     680:	0d 0a       	sts	mach,r13
     682:	0d 0a       	sts	mach,r13
     684:	0d 0a       	sts	mach,r13
     686:	0d 0a       	sts	mach,r13
     688:	0d 0a       	sts	mach,r13
     68a:	0d 0a       	sts	mach,r13
     68c:	0d 0a       	sts	mach,r13
     68e:	0d 0a       	sts	mach,r13
     690:	0d 0a       	sts	mach,r13
     692:	0d 0a       	sts	mach,r13
     694:	0d 0a       	sts	mach,r13
     696:	0d 0a       	sts	mach,r13
     698:	0d 0a       	sts	mach,r13
     69a:	0d 0a       	sts	mach,r13
     69c:	0d 0a       	sts	mach,r13
     69e:	0d 0a       	sts	mach,r13
     6a0:	0d 0a       	sts	mach,r13
     6a2:	0d 0a       	sts	mach,r13
     6a4:	0d 0a       	sts	mach,r13
     6a6:	0d 0a       	sts	mach,r13
     6a8:	0d 0a       	sts	mach,r13
     6aa:	0d 0a       	sts	mach,r13
     6ac:	0d 0a       	sts	mach,r13
     6ae:	0d 0a       	sts	mach,r13
     6b0:	0d 0a       	sts	mach,r13
     6b2:	0d 0a       	sts	mach,r13
     6b4:	0d 0a       	sts	mach,r13
     6b6:	0d 0a       	sts	mach,r13
     6b8:	0d 0a       	sts	mach,r13
     6ba:	0d 0a       	sts	mach,r13
     6bc:	0d 0a       	sts	mach,r13
     6be:	0d 0a       	sts	mach,r13
     6c0:	0d 0a       	sts	mach,r13
     6c2:	0d 0a       	sts	mach,r13
     6c4:	0d 0a       	sts	mach,r13
     6c6:	0d 0a       	sts	mach,r13
     6c8:	0d 0a       	sts	mach,r13
     6ca:	0d 0a       	sts	mach,r13
     6cc:	0d 0a       	sts	mach,r13
     6ce:	0d 0a       	sts	mach,r13
     6d0:	0d 0a       	sts	mach,r13
     6d2:	0d 0a       	sts	mach,r13
     6d4:	0d 0a       	sts	mach,r13
     6d6:	0d 0a       	sts	mach,r13
     6d8:	0d 0a       	sts	mach,r13
     6da:	0d 0a       	sts	mach,r13
     6dc:	0d 0a       	sts	mach,r13
     6de:	0d 0a       	sts	mach,r13
     6e0:	0d 0a       	sts	mach,r13
     6e2:	0d 0a       	sts	mach,r13
     6e4:	0d 0a       	sts	mach,r13
     6e6:	0d 0a       	sts	mach,r13
     6e8:	0d 0a       	sts	mach,r13
     6ea:	0d 0a       	sts	mach,r13
     6ec:	0d 0a       	sts	mach,r13
     6ee:	0d 0a       	sts	mach,r13
     6f0:	0d 0a       	sts	mach,r13
     6f2:	0d 0a       	sts	mach,r13
     6f4:	0d 0a       	sts	mach,r13
     6f6:	0d 0a       	sts	mach,r13
     6f8:	0d 0a       	sts	mach,r13
     6fa:	0d 0a       	sts	mach,r13
     6fc:	0d 0a       	sts	mach,r13
     6fe:	0d 0a       	sts	mach,r13
	...
    1000:	46 fc       	shad	r15,r6
    1002:	27 00       	mov.b	r0,@r7
    1004:	0c b9       	.word 0x0cb9
    1006:	53 45       	mov.l	@(20,r4),r3
    1008:	47 41       	.word 0x4741
    100a:	00 00       	.word 0x0000
    100c:	5b dc       	mov.l	@(48,r13),r11
    100e:	66 f0       	mov.b	@r15,r6
    1010:	70 00       	add	#0,r0
    1012:	22 00       	mov.b	r0,@r2
    1014:	24 00       	mov.b	r0,@r4
    1016:	26 00       	mov.b	r0,@r6
    1018:	28 00       	mov.b	r0,@r8
    101a:	2a 00       	mov.b	r0,@r10
    101c:	2c 00       	mov.b	r0,@r12
    101e:	60 40       	mov.b	@r4,r0
    1020:	76 65       	add	#101,r6
    1022:	72 31       	add	#49,r2
    1024:	2e 32       	mov.l	r3,@r14
    1026:	39 69       	.word 0x3969
    1028:	39 35       	dmulu.l	r3,r9
    102a:	2f 30       	mov.b	r3,@r15
    102c:	33 2f       	addv	r2,r3
    102e:	31 33       	cmp/ge	r3,r1
    1030:	53 41       	mov.l	@(4,r4),r3
    1032:	54 55       	mov.l	@(20,r5),r4
    1034:	52 4e       	mov.l	@(56,r4),r2
    1036:	28 53       	.word 0x2853
    1038:	29 20       	mov.b	r2,@r9
    103a:	73 61       	add	#97,r3
    103c:	6d 70       	mov.b	@r7,r13
    103e:	6c 65       	mov.w	@r6+,r12
    1040:	4e 61       	.word 0x4e61
    1042:	6f 20       	mov.b	@r2,r15
    1044:	56 30       	mov.l	@(0,r3),r6
    1046:	2e 30       	mov.b	r3,@r14
    1048:	30 69       	.word 0x3069
    104a:	20 20       	mov.b	r2,@r0
    104c:	20 20       	mov.b	r2,@r0
    104e:	20 20       	mov.b	r2,@r0
    1050:	4b 61       	.word 0x4b61
    1052:	73 20       	add	#32,r3
    1054:	56 30       	mov.l	@(0,r3),r6
    1056:	2e 30       	mov.b	r3,@r14
    1058:	30 62       	cmp/hs	r6,r0
    105a:	20 20       	mov.b	r2,@r0
    105c:	20 20       	mov.b	r2,@r0
    105e:	20 20       	mov.b	r2,@r0
    1060:	2e 00       	mov.b	r0,@r14
    1062:	20 40       	mov.b	r4,@r0
    1064:	22 40       	mov.b	r4,@r2
    1066:	24 40       	mov.b	r4,@r4
    1068:	26 40       	mov.b	r4,@r6
    106a:	28 40       	mov.b	r4,@r8
    106c:	2a 40       	mov.b	r4,@r10
    106e:	2c 40       	mov.b	r4,@r12
    1070:	4d f8       	.word 0x4df8
    1072:	70 00       	add	#0,r0
    1074:	4f f9       	.word 0x4ff9
    1076:	00 00       	.word 0x0000
    1078:	a0 00       	bra	107c <_sddrv_129i+0x107c>
    107a:	4b f9       	.word 0x4bf9
    107c:	00 10       	.word 0x0010
    107e:	00 00       	.word 0x0000
    1080:	4e ba       	.word 0x4eba
    1082:	22 50       	mov.b	r5,@r2
    1084:	4e ba       	.word 0x4eba
    1086:	23 80       	mov.b	r8,@r3
    1088:	1b 7c       	mov.l	r7,@(48,r11)
    108a:	00 02       	stc	sr,r0
    108c:	04 00       	.word 0x0400
    108e:	46 fc       	shad	r15,r6
    1090:	20 00       	mov.b	r0,@r0
    1092:	54 6e       	mov.l	@(56,r6),r4
    1094:	18 64       	mov.l	r6,@(16,r8)
    1096:	70 00       	add	#0,r0
    1098:	10 2e       	mov.l	r2,@(56,r0)
    109a:	18 42       	mov.l	r4,@(8,r8)
    109c:	d0 40       	mov.l	11a0 <_sddrv_129i+0x11a0>,r0	! 8340007
    109e:	d0 40       	mov.l	11a0 <_sddrv_129i+0x11a0>,r0	! 8340007
    10a0:	72 00       	add	#0,r2
    10a2:	12 2e       	mov.l	r2,@(56,r2)
    10a4:	18 40       	mov.l	r4,@(0,r8)
    10a6:	d2 41       	mov.l	11ac <_sddrv_129i+0x11ac>,r2	! 1a344001
    10a8:	d2 41       	mov.l	11b0 <_sddrv_129i+0x11b0>,r2	! e94d8a74
    10aa:	b2 40       	bsr	152e <_sddrv_129i+0x152e>
    10ac:	67 04       	mov.b	@r0+,r7
    10ae:	4e ba       	.word 0x4eba
    10b0:	12 06       	mov.l	r0,@(24,r2)
    10b2:	10 38       	mov.l	r3,@(32,r0)
    10b4:	04 e1       	.word 0x04e1
    10b6:	d0 00       	mov.l	10b8 <_sddrv_129i+0x10b8>,r0	! 6a1e7800
    10b8:	6a 1e       	exts.b	r1,r10
    10ba:	78 00       	add	#0,r8
    10bc:	18 2e       	mov.l	r2,@(56,r8)
    10be:	18 43       	mov.l	r4,@(12,r8)
    10c0:	b8 2e       	bsr	120 <_sddrv_129i+0x120>
    10c2:	18 41       	mov.l	r4,@(4,r8)
    10c4:	67 12       	mov.l	@r1,r7
    10c6:	45 ee       	ldc	r5,r6_bank
    10c8:	1f 00       	mov.l	r0,@(0,r15)
    10ca:	10 32       	mov.l	r3,@(8,r0)
    10cc:	40 00       	shll	r0
    10ce:	1b 40       	mov.l	r4,@(0,r11)
    10d0:	04 07       	mul.l	r0,r4
    10d2:	52 04       	mov.l	@(16,r0),r2
    10d4:	1d 44       	mov.l	r4,@(16,r13)
    10d6:	18 43       	mov.l	r4,@(12,r8)
    10d8:	4e ba       	.word 0x4eba
    10da:	01 22       	stc	vbr,r1
    10dc:	30 2d       	dmuls.l	r2,r0
    10de:	04 20       	.word 0x0420
    10e0:	02 40       	.word 0x0240
    10e2:	00 40       	.word 0x0040
    10e4:	67 ac       	extu.b	r10,r7
    10e6:	3b 7c       	add	r7,r11
    10e8:	00 a7       	mul.l	r10,r0
    10ea:	04 18       	.word 0x0418
    10ec:	3b 7c       	add	r7,r11
    10ee:	00 40       	.word 0x0040
    10f0:	04 22       	stc	vbr,r4
    10f2:	52 2e       	mov.l	@(56,r2),r2
    10f4:	18 27       	mov.l	r2,@(28,r8)
    10f6:	4e 71       	.word 0x4e71
    10f8:	4e 71       	.word 0x4e71
    10fa:	4e 71       	.word 0x4e71
    10fc:	4e ba       	.word 0x4eba
    10fe:	00 7e       	mov.l	@(r0,r7),r0
    1100:	4e ba       	.word 0x4eba
    1102:	00 62       	stc	r6_bank,r0
    1104:	10 38       	mov.l	r3,@(32,r0)
    1106:	04 83       	pref	@r4
    1108:	b0 2e       	bsr	1168 <_sddrv_129i+0x1168>
    110a:	18 31       	mov.l	r3,@(4,r8)
    110c:	67 00       	mov.b	@r0,r7
    110e:	00 52       	stc	r5_bank,r0
    1110:	1d 40       	mov.l	r4,@(0,r13)
    1112:	18 31       	mov.l	r3,@(4,r8)
    1114:	6b 28       	swap.b	r2,r11
    1116:	4e ba       	.word 0x4eba
    1118:	03 ec       	mov.b	@(r0,r14),r3
    111a:	78 00       	add	#0,r8
    111c:	49 ee       	ldc	r9,r6_bank
    111e:	10 00       	mov.l	r0,@(0,r0)
    1120:	7e 1f       	add	#31,r14
    1122:	3a 34       	div1	r3,r10
    1124:	40 06       	lds.l	@r0+,mach
    1126:	1c 34       	mov.l	r3,@(16,r12)
    1128:	40 04       	rotl	r0
    112a:	e2 4c       	mov	#76,r2
    112c:	1b 86       	mov.l	r8,@(24,r11)
    112e:	40 16       	lds.l	@r0+,macl
    1130:	d8 44       	mov.l	1244 <_sddrv_129i+0x1244>,r8	! 80640
    1132:	06 44       	mov.b	r4,@(r0,r6)
    1134:	00 40       	.word 0x0040
    1136:	51 cf       	mov.l	@(60,r12),r1
    1138:	ff ea       	fmov	fr14,@r15
    113a:	60 00       	mov.b	@r0,r0
    113c:	00 24       	mov.b	r2,@(r0,r0)
    113e:	78 00       	add	#0,r8
    1140:	7e 11       	add	#17,r14
    1142:	02 75       	mov.w	r7,@(r0,r2)
    1144:	e0 e0       	mov	#-32,r0
    1146:	40 16       	lds.l	@r0+,macl
    1148:	06 44       	mov.b	r4,@(r0,r6)
    114a:	00 20       	.word 0x0020
    114c:	51 cf       	mov.l	@(60,r12),r1
    114e:	ff f4       	fcmp/eq	fr15,fr15
    1150:	7e 0d       	add	#13,r14
    1152:	02 35       	mov.w	r3,@(r0,r2)
    1154:	00 e0       	.word 0x00e0
    1156:	40 16       	lds.l	@r0+,macl
    1158:	06 44       	mov.b	r4,@(r0,r6)
    115a:	00 20       	.word 0x0020
    115c:	51 cf       	mov.l	@(60,r12),r1
    115e:	ff f4       	fcmp/eq	fr15,fr15
    1160:	60 00       	mov.b	@r0,r0
    1162:	ff 30       	fadd	fr3,fr15
    1164:	10 2e       	mov.l	r2,@(56,r0)
    1166:	18 27       	mov.l	r2,@(28,r8)
    1168:	02 00       	.word 0x0200
    116a:	00 03       	bsrf	r0
    116c:	66 0c       	extu.b	r0,r6
    116e:	42 47       	ldc.l	@r2+,spc
    1170:	1e 2e       	mov.l	r2,@(56,r14)
    1172:	18 30       	mov.l	r3,@(0,r8)
    1174:	67 04       	mov.b	@r0+,r7
    1176:	4e ba       	.word 0x4eba
    1178:	0e 18       	.word 0x0e18
    117a:	4e 75       	.word 0x4e75
    117c:	78 00       	add	#0,r8
    117e:	3a 3c       	add	r3,r10
    1180:	01 00       	.word 0x0100
    1182:	10 2e       	mov.l	r2,@(56,r0)
    1184:	18 27       	mov.l	r2,@(28,r8)
    1186:	02 40       	.word 0x0240
    1188:	00 03       	bsrf	r0
    118a:	d0 40       	mov.l	128c <_sddrv_129i+0x128c>,r0	! 59406a72
    118c:	4e fb       	.word 0x4efb
    118e:	00 02       	stc	sr,r0
    1190:	d8 45       	mov.l	12a8 <_sddrv_129i+0x12a8>,r8	! 22344010
    1192:	d8 45       	mov.l	12a8 <_sddrv_129i+0x12a8>,r8	! 22344010
    1194:	d8 45       	mov.l	12ac <_sddrv_129i+0x12ac>,r8	! 44812981
    1196:	49 ee       	ldc	r9,r6_bank
    1198:	10 00       	mov.l	r0,@(0,r0)
    119a:	7e 07       	add	#7,r14
    119c:	3a 04       	div1	r0,r10
    119e:	da 45       	mov.l	12b4 <_sddrv_129i+0x12b4>,r10	! 2c344014
    11a0:	08 34       	mov.b	r3,@(r0,r8)
    11a2:	00 07       	mul.l	r0,r0
    11a4:	50 34       	mov.l	@(16,r3),r0
    11a6:	66 4a       	negc	r4,r6
    11a8:	d8 44       	mov.l	12bc <_sddrv_129i+0x12bc>,r8	! 58420242
    11aa:	42 45       	.word 0x4245
    11ac:	1a 34       	mov.l	r3,@(16,r10)
    11ae:	40 01       	shlr	r0
    11b0:	e9 4d       	mov	#77,r9
    11b2:	8a 74       	.word 0x8a74
    11b4:	40 06       	lds.l	@r0+,mach
    11b6:	3a 36       	cmp/hi	r3,r10
    11b8:	50 08       	mov.l	@(32,r0),r0
    11ba:	20 34       	mov.b	r3,@-r0
    11bc:	40 08       	shll2	r0
    11be:	66 04       	mov.b	@r0+,r6
    11c0:	e2 4c       	mov	#76,r2
    11c2:	60 2e       	exts.b	r2,r0
    11c4:	24 40       	mov.b	r4,@r4
    11c6:	08 34       	mov.b	r3,@(r0,r8)
    11c8:	00 05       	mov.w	r0,@(r0,r0)
    11ca:	40 00       	shll	r0
    11cc:	67 04       	mov.b	@r0+,r7
    11ce:	4e ba       	.word 0x4eba
    11d0:	00 a6       	mov.l	r10,@(r0,r0)
    11d2:	08 34       	mov.b	r3,@(r0,r8)
    11d4:	00 06       	mov.l	r0,@(r0,r0)
    11d6:	40 00       	shll	r0
    11d8:	67 04       	mov.b	@r0+,r7
    11da:	4e ba       	.word 0x4eba
    11dc:	01 3c       	mov.b	@(r0,r3),r1
    11de:	ba 74       	bsr	6ca <_sddrv_129i+0x6ca>
    11e0:	40 38       	.word 0x4038
    11e2:	66 04       	mov.b	@r0+,r6
    11e4:	e2 4c       	mov	#76,r2
    11e6:	60 0a       	negc	r0,r0
    11e8:	39 85       	dmulu.l	r8,r9
    11ea:	40 38       	.word 0x4038
    11ec:	e2 4c       	mov	#76,r2
    11ee:	4e ba       	.word 0x4eba
    11f0:	1d 56       	mov.l	r5,@(24,r13)
    11f2:	06 44       	mov.b	r4,@(r0,r6)
    11f4:	00 20       	.word 0x0020
    11f6:	51 cf       	mov.l	@(60,r12),r1
    11f8:	ff a4       	fcmp/eq	fr10,fr15
    11fa:	4e 75       	.word 0x4e75
    11fc:	10 38       	mov.l	r3,@(32,r0)
    11fe:	04 e1       	.word 0x04e1
    1200:	6a 12       	mov.l	@r1,r10
    1202:	10 38       	mov.l	r3,@(32,r0)
    1204:	04 e0       	.word 0x04e0
    1206:	6a 0a       	negc	r0,r10
    1208:	4e ba       	.word 0x4eba
    120a:	00 0a       	sts	mach,r0
    120c:	02 38       	.word 0x0238
    120e:	00 7f       	mac.l	@r7+,@r0+
    1210:	04 e0       	.word 0x04e0
    1212:	4e 75       	.word 0x4e75
    1214:	30 3c       	add	r3,r0
    1216:	07 00       	.word 0x0700
    1218:	30 40       	cmp/eq	r4,r0
    121a:	1e 10       	mov.l	r1,@(0,r14)
    121c:	67 50       	mov.b	@r5,r7
    121e:	54 88       	mov.l	@(32,r8),r4
    1220:	3d 40       	cmp/eq	r4,r13
    1222:	18 34       	mov.l	r3,@(16,r8)
    1224:	48 e7       	ldc.l	@r8+,r6_bank
    1226:	80 40       	mov.b	r0,@(0,r4)
    1228:	30 2e       	addc	r2,r0
    122a:	18 3a       	mov.l	r3,@(40,r8)
    122c:	02 40       	.word 0x0240
    122e:	07 f0       	.word 0x07f0
    1230:	43 f8       	.word 0x43f8
    1232:	08 00       	.word 0x0800
    1234:	d2 c0       	mov.l	1538 <_sddrv_129i+0x1538>,r2	! 8f80000
    1236:	32 e8       	sub	r14,r2
    1238:	ff fe       	fmac	fr0,fr15,fr15
    123a:	22 e8       	tst	r14,r2
    123c:	00 00       	.word 0x0000
    123e:	22 e8       	tst	r14,r2
    1240:	00 04       	mov.b	r0,@(r0,r0)
    1242:	22 e8       	tst	r14,r2
    1244:	00 08       	clrt	
    1246:	06 40       	.word 0x0640
    1248:	00 10       	.word 0x0010
    124a:	3d 40       	cmp/eq	r4,r13
    124c:	18 3a       	mov.l	r3,@(40,r8)
    124e:	31 c0       	cmp/eq	r12,r1
    1250:	04 1a       	sts	macl,r4
    1252:	32 ae       	addc	r10,r2
    1254:	18 38       	mov.l	r3,@(32,r8)
    1256:	3d 7c       	add	r7,r13
    1258:	00 00       	.word 0x0000
    125a:	18 38       	mov.l	r3,@(32,r8)
    125c:	4c df       	mac.w	@r13+,@r12+
    125e:	02 01       	.word 0x0201
    1260:	4e ba       	.word 0x4eba
    1262:	04 a6       	mov.l	r10,@(r0,r4)
    1264:	30 2e       	addc	r2,r0
    1266:	18 34       	mov.l	r3,@(16,r8)
    1268:	30 40       	cmp/eq	r4,r0
    126a:	30 bc       	add	r11,r0
    126c:	00 00       	.word 0x0000
    126e:	06 00       	.word 0x0600
    1270:	00 10       	.word 0x0010
    1272:	6a a4       	mov.b	@r10+,r10
    1274:	4e 75       	.word 0x4e75
    1276:	30 34       	div1	r3,r0
    1278:	40 18       	shll8	r0
    127a:	67 0c       	extu.b	r0,r7
    127c:	59 40       	mov.l	@(0,r4),r9
    127e:	64 02       	mov.l	@r0,r4
    1280:	42 40       	.word 0x4240
    1282:	39 80       	cmp/eq	r8,r9
    1284:	40 18       	shll8	r0
    1286:	4e 75       	.word 0x4e75
    1288:	30 34       	div1	r3,r0
    128a:	40 1c       	shad	r1,r0
    128c:	59 40       	mov.l	@(0,r4),r9
    128e:	6a 72       	mov.l	@r7,r10
    1290:	34 00       	cmp/eq	r0,r4
    1292:	d0 74       	mov.l	1464 <_sddrv_129i+0x1464>,r0	! f41f8
    1294:	40 1a       	lds	r0,macl
    1296:	39 80       	cmp/eq	r8,r9
    1298:	40 1c       	shad	r1,r0
    129a:	72 00       	add	#0,r2
    129c:	30 34       	div1	r3,r0
    129e:	40 1e       	ldc	r0,gbr
    12a0:	67 12       	mov.l	@r1,r7
    12a2:	53 40       	mov.l	@(0,r4),r3
    12a4:	39 80       	cmp/eq	r8,r9
    12a6:	40 1e       	ldc	r0,gbr
    12a8:	22 34       	mov.b	r3,@-r2
    12aa:	40 10       	dt	r0
    12ac:	44 81       	.word 0x4481
    12ae:	29 81       	mov.w	r8,@r9
    12b0:	40 10       	dt	r0
    12b2:	44 81       	.word 0x4481
    12b4:	2c 34       	mov.b	r3,@-r12
    12b6:	40 14       	.word 0x4014
    12b8:	20 34       	mov.b	r3,@-r0
    12ba:	40 0c       	shad	r0,r0
    12bc:	58 42       	mov.l	@(8,r4),r8
    12be:	02 42       	stc	spc,r2
    12c0:	00 03       	bsrf	r0
    12c2:	d4 42       	mov.l	13cc <_sddrv_129i+0x13cc>,r4	! 60024e71
    12c4:	4e fb       	.word 0x4efb
    12c6:	20 02       	mov.l	r0,@r0
    12c8:	60 22       	mov.l	@r2,r0
    12ca:	60 18       	swap.b	r1,r0
    12cc:	60 0c       	extu.b	r0,r0
    12ce:	d0 86       	mov.l	14e8 <_sddrv_129i+0x14e8>,r0	! d0c0e748
    12d0:	d0 86       	mov.l	14ec <_sddrv_129i+0x14ec>,r0	! d0c0b1c9
    12d2:	d0 86       	mov.l	14ec <_sddrv_129i+0x14ec>,r0	! d0c0b1c9
    12d4:	dc 81       	mov.l	14dc <_sddrv_129i+0x14dc>,r12	! 2248d2e8
    12d6:	44 86       	.word 0x4486
    12d8:	60 1c       	extu.b	r1,r0
    12da:	d0 86       	mov.l	14f4 <_sddrv_129i+0x14f4>,r0	! 187e24d8
    12dc:	d0 86       	mov.l	14f8 <_sddrv_129i+0x14f8>,r0	! 24d824d8
    12de:	dc 81       	mov.l	14e4 <_sddrv_129i+0x14e4>,r12	! d040
    12e0:	44 86       	.word 0x4486
    12e2:	60 10       	mov.b	@r1,r0
    12e4:	d0 86       	mov.l	1500 <_sddrv_129i+0x1500>,r0	! 423
    12e6:	dc 81       	mov.l	14ec <_sddrv_129i+0x14ec>,r12	! d0c0b1c9
    12e8:	44 86       	.word 0x4486
    12ea:	60 06       	mov.l	@r0+,r0
    12ec:	dc 81       	mov.l	14f4 <_sddrv_129i+0x14f4>,r12	! 187e24d8
    12ee:	44 86       	.word 0x4486
    12f0:	d0 86       	mov.l	150c <_sddrv_129i+0x150c>,r0	! 18316b10
    12f2:	d0 86       	mov.l	150c <_sddrv_129i+0x150c>,r0	! 18316b10
    12f4:	d0 86       	mov.l	1510 <_sddrv_129i+0x1510>,r0	! 42441b98
    12f6:	d0 86       	mov.l	1510 <_sddrv_129i+0x1510>,r0	! 42441b98
    12f8:	29 86       	mov.l	r8,@-r9
    12fa:	40 14       	.word 0x4014
    12fc:	29 80       	mov.b	r8,@r9
    12fe:	40 0c       	shad	r0,r0
    1300:	60 10       	mov.b	@r1,r0
    1302:	39 80       	cmp/eq	r8,r9
    1304:	40 1c       	shad	r1,r0
    1306:	2c 34       	mov.b	r3,@-r12
    1308:	40 14       	.word 0x4014
    130a:	dc 86       	mov.l	1524 <_sddrv_129i+0x1524>,r12	! 20000e0
    130c:	dc 86       	mov.l	1528 <_sddrv_129i+0x1528>,r12	! 1b804017
    130e:	dd b4       	mov.l	15e0 <_sddrv_129i+0x15e0>,r13	! 7003e3c
    1310:	40 0c       	shad	r0,r0
    1312:	da 74       	mov.l	14e4 <_sddrv_129i+0x14e4>,r10	! d040
    1314:	40 0c       	shad	r0,r0
    1316:	4e 75       	.word 0x4e75
    1318:	42 40       	.word 0x4240
    131a:	10 34       	mov.l	r3,@(16,r0)
    131c:	40 2e       	ldc	r0,vbr
    131e:	22 3c       	cmp/str	r3,r2
    1320:	80 00       	mov.b	r0,@(0,r0)
    1322:	00 00       	.word 0x0000
    1324:	02 40       	.word 0x0240
    1326:	00 07       	mul.l	r0,r0
    1328:	d0 40       	mov.l	142c <_sddrv_129i+0x142c>,r0	! 4224df8
    132a:	d0 40       	mov.l	142c <_sddrv_129i+0x142c>,r0	! 4224df8
    132c:	4e fb       	.word 0x4efb
    132e:	00 02       	stc	sr,r0
    1330:	4e 75       	.word 0x4e75
    1332:	4e 75       	.word 0x4e75
    1334:	60 00       	mov.b	@r0,r0
    1336:	00 1a       	sts	macl,r0
    1338:	60 00       	mov.b	@r0,r0
    133a:	00 24       	mov.b	r2,@(r0,r0)
    133c:	60 00       	mov.b	@r0,r0
    133e:	00 28       	clrmac	
    1340:	60 00       	mov.b	@r0,r0
    1342:	00 2c       	mov.b	@(r0,r2),r0
    1344:	60 00       	mov.b	@r0,r0
    1346:	00 88       	.word 0x0088
    1348:	60 00       	mov.b	@r0,r0
    134a:	00 8c       	mov.b	@(r0,r8),r0
    134c:	60 00       	mov.b	@r0,r0
    134e:	00 80       	.word 0x0080
    1350:	59 74       	mov.l	@(16,r7),r9
    1352:	40 2c       	shad	r2,r0
    1354:	64 7a       	negc	r7,r4
    1356:	22 74       	mov.b	r7,@-r2
    1358:	40 30       	.word 0x4030
    135a:	54 49       	mov.l	@(36,r4),r4
    135c:	60 3c       	extu.b	r3,r0
    135e:	22 74       	mov.b	r7,@-r2
    1360:	40 30       	.word 0x4030
    1362:	58 49       	mov.l	@(36,r4),r8
    1364:	60 0e       	exts.b	r0,r0
    1366:	22 74       	mov.b	r7,@-r2
    1368:	40 30       	.word 0x4030
    136a:	5c 49       	mov.l	@(36,r4),r12
    136c:	60 06       	mov.l	@r0+,r0
    136e:	22 74       	mov.b	r7,@-r2
    1370:	40 30       	.word 0x4030
    1372:	50 49       	mov.l	@(36,r4),r0
    1374:	20 34       	mov.b	r3,@-r0
    1376:	40 20       	shal	r0
    1378:	24 34       	mov.b	r3,@-r4
    137a:	40 28       	shll16	r0
    137c:	d0 81       	mov.l	1584 <_sddrv_129i+0x1584>,r0	! 78001144
    137e:	d4 81       	mov.l	1584 <_sddrv_129i+0x1584>,r4	! 78001144
    1380:	2c 34       	mov.b	r3,@-r12
    1382:	40 24       	rotcl	r0
    1384:	6a 08       	swap.b	r0,r10
    1386:	d0 86       	mov.l	15a0 <_sddrv_129i+0x15a0>,r0	! 43f90000
    1388:	b4 80       	bsr	1c8c <_sddrv_129i+0x1c8c>
    138a:	65 3a       	negc	r3,r5
    138c:	60 06       	mov.l	@r0+,r0
    138e:	d0 86       	mov.l	15a8 <_sddrv_129i+0x15a8>,r0	! ff6700
    1390:	b0 82       	bsr	1498 <_sddrv_129i+0x1498>
    1392:	65 32       	mov.l	@r3,r5
    1394:	94 81       	mov.w	149a <_sddrv_129i+0x149a>,r4	! 2
    1396:	29 82       	mov.l	r8,@r9
    1398:	40 20       	shal	r0
    139a:	52 34       	mov.l	@(16,r3),r2
    139c:	40 2e       	ldc	r0,vbr
    139e:	10 19       	mov.l	r1,@(36,r0)
    13a0:	66 06       	mov.l	@r0+,r6
    13a2:	10 19       	mov.l	r1,@(36,r0)
    13a4:	67 00       	mov.b	@r0,r7
    13a6:	ff 72       	fmul	fr7,fr15
    13a8:	4e ba       	.word 0x4eba
    13aa:	27 8e       	mulu.w	r8,r7
    13ac:	48 40       	.word 0x4840
    13ae:	42 40       	.word 0x4240
    13b0:	e8 80       	mov	#-128,r8
    13b2:	29 80       	mov.b	r8,@r9
    13b4:	40 24       	rotcl	r0
    13b6:	10 11       	mov.l	r1,@(4,r0)
    13b8:	4e ba       	.word 0x4eba
    13ba:	29 9c       	cmp/str	r9,r9
    13bc:	48 40       	.word 0x4840
    13be:	42 40       	.word 0x4240
    13c0:	29 80       	mov.b	r8,@r9
    13c2:	40 28       	shll16	r0
    13c4:	60 0a       	negc	r0,r0
    13c6:	90 81       	mov.w	14cc <_sddrv_129i+0x14cc>,r0	! 3d43
    13c8:	29 80       	mov.b	r8,@r9
    13ca:	40 20       	shal	r0
    13cc:	60 02       	mov.l	@r0,r0
    13ce:	4e 71       	.word 0x4e71
    13d0:	da 74       	mov.l	15a4 <_sddrv_129i+0x15a4>,r10	! b0000240
    13d2:	40 20       	shal	r0
    13d4:	4e 75       	.word 0x4e75
    13d6:	20 34       	mov.b	r3,@-r0
    13d8:	40 20       	shal	r0
    13da:	24 34       	mov.b	r3,@-r4
    13dc:	40 28       	shll16	r0
    13de:	d0 81       	mov.l	15e4 <_sddrv_129i+0x15e4>,r0	! 13f7000
    13e0:	d4 81       	mov.l	15e8 <_sddrv_129i+0x15e8>,r4	! 20c051cf
    13e2:	2c 34       	mov.b	r3,@-r12
    13e4:	40 24       	rotcl	r0
    13e6:	6a 08       	swap.b	r0,r10
    13e8:	d0 86       	mov.l	1604 <_sddrv_129i+0x1604>,r0	! fe5e65f6
    13ea:	b4 80       	bsr	1cee <_sddrv_129i+0x1cee>
    13ec:	65 14       	mov.b	@r1+,r5
    13ee:	60 06       	mov.l	@r0+,r0
    13f0:	d0 86       	mov.l	160c <_sddrv_129i+0x160c>,r0	! d06e1800
    13f2:	b0 82       	bsr	14fa <_sddrv_129i+0x14fa>
    13f4:	65 0c       	extu.b	r0,r5
    13f6:	94 81       	mov.w	14fc <_sddrv_129i+0x14fc>,r4	! 24d8
    13f8:	29 82       	mov.l	r8,@r9
    13fa:	40 20       	shal	r0
    13fc:	52 34       	mov.l	@(16,r3),r2
    13fe:	40 2e       	ldc	r0,vbr
    1400:	60 06       	mov.l	@r0+,r0
    1402:	90 81       	mov.w	1508 <_sddrv_129i+0x1508>,r0	! 7e0f
    1404:	29 80       	mov.b	r8,@r9
    1406:	40 20       	shal	r0
    1408:	da 74       	mov.l	15dc <_sddrv_129i+0x15dc>,r10	! ffee41ed
    140a:	40 20       	shal	r0
    140c:	4e 75       	.word 0x4e75
    140e:	48 e7       	ldc.l	@r8+,r6_bank
    1410:	ff fe       	fmac	fr0,fr15,fr15
    1412:	4b f9       	.word 0x4bf9
    1414:	00 10       	.word 0x0010
    1416:	00 00       	.word 0x0000
    1418:	30 2d       	dmuls.l	r2,r0
    141a:	04 20       	.word 0x0420
    141c:	02 40       	.word 0x0240
    141e:	00 80       	.word 0x0080
    1420:	67 1e       	exts.b	r1,r7
    1422:	3b 7c       	add	r7,r11
    1424:	01 d4       	mov.b	r13,@(r0,r1)
    1426:	04 1a       	sts	macl,r4
    1428:	3b 7c       	add	r7,r11
    142a:	00 80       	.word 0x0080
    142c:	04 22       	stc	vbr,r4
    142e:	4d f8       	.word 0x4df8
    1430:	70 00       	add	#0,r0
    1432:	06 6e       	mov.l	@(r0,r6),r6
    1434:	00 c0       	.word 0x00c0
    1436:	18 1a       	mov.l	r1,@(40,r8)
    1438:	52 6e       	mov.l	@(56,r6),r2
    143a:	18 38       	mov.l	r3,@(32,r8)
    143c:	4e ba       	.word 0x4eba
    143e:	2d 34       	mov.b	r3,@-r13
    1440:	4c df       	mac.w	@r13+,@r12+
    1442:	7f ff       	add	#-1,r15
    1444:	4e 73       	stc.l	r7_bank,@-r14
    1446:	10 18       	mov.l	r1,@(32,r0)
    1448:	16 18       	mov.l	r1,@(32,r6)
    144a:	02 43       	.word 0x0243
    144c:	00 7f       	mac.l	@r7+,@r0+
    144e:	3d 43       	cmp/ge	r4,r13
    1450:	18 48       	mov.l	r4,@(32,r8)
    1452:	4e ba       	.word 0x4eba
    1454:	00 0e       	mov.l	@(r0,r0),r0
    1456:	65 00       	mov.b	@r0,r5
    1458:	00 54       	mov.b	r5,@(r0,r0)
    145a:	2d 42       	mov.l	r4,@r13
    145c:	18 4c       	mov.l	r4,@(48,r8)
    145e:	4e fa       	ldc	r14,dbr
    1460:	00 70       	.word 0x0070
    1462:	02 40       	.word 0x0240
    1464:	00 0f       	mac.l	@r0+,@r0+
    1466:	41 f8       	.word 0x41f8
    1468:	05 00       	.word 0x0500
    146a:	7e 1f       	add	#31,r14
    146c:	14 10       	mov.l	r1,@(0,r4)
    146e:	6b 32       	mov.l	@r3,r11
    1470:	16 02       	mov.l	r0,@(8,r6)
    1472:	02 02       	stc	sr,r2
    1474:	00 70       	.word 0x0070
    1476:	66 08       	swap.b	r0,r6
    1478:	02 03       	bsrf	r2
    147a:	00 0f       	mac.l	@r0+,@r0+
    147c:	b6 00       	bsr	2080 <_sddrv_129i+0x2080>
    147e:	67 0a       	negc	r0,r7
    1480:	41 e8       	.word 0x41e8
    1482:	00 08       	clrt	
    1484:	51 cf       	mov.l	@(60,r12),r1
    1486:	ff e6       	fmov	@(r0,r14),fr15
    1488:	60 18       	swap.b	r1,r0
    148a:	34 18       	sub	r1,r4
    148c:	02 42       	stc	spc,r2
    148e:	00 0f       	mac.l	@r0+,@r0+
    1490:	48 42       	.word 0x4842
    1492:	34 18       	sub	r1,r4
    1494:	16 10       	mov.l	r1,@(0,r6)
    1496:	6a 0a       	negc	r0,r10
    1498:	08 b8       	.word 0x08b8
    149a:	00 02       	stc	sr,r0
    149c:	04 23       	braf	r4
    149e:	80 40       	mov.b	r0,@(0,r4)
    14a0:	4e 75       	.word 0x4e75
    14a2:	08 f8       	.word 0x08f8
    14a4:	00 02       	stc	sr,r0
    14a6:	04 23       	braf	r4
    14a8:	00 3c       	mov.b	@(r0,r3),r0
    14aa:	00 01       	.word 0x0001
    14ac:	4e 75       	.word 0x4e75
    14ae:	34 2e       	addc	r2,r4
    14b0:	18 00       	mov.l	r0,@(0,r8)
    14b2:	e9 49       	mov	#73,r9
    14b4:	d4 41       	mov.l	15bc <_sddrv_129i+0x15bc>,r4	! 60f25288
    14b6:	20 36       	mov.l	r3,@-r0
    14b8:	20 04       	mov.b	r0,@-r0
    14ba:	67 00       	mov.b	@r0,r7
    14bc:	00 86       	mov.l	r8,@(r0,r0)
    14be:	08 b8       	.word 0x08b8
    14c0:	00 03       	bsrf	r0
    14c2:	04 23       	braf	r4
    14c4:	2d 40       	mov.b	r4,@r13
    14c6:	18 4c       	mov.l	r4,@(48,r8)
    14c8:	02 43       	.word 0x0243
    14ca:	00 7f       	mac.l	@r7+,@r0+
    14cc:	3d 43       	cmp/ge	r4,r13
    14ce:	18 48       	mov.l	r4,@(32,r8)
    14d0:	20 2e       	mulu.w	r2,r0
    14d2:	18 4c       	mov.l	r4,@(48,r8)
    14d4:	67 62       	mov.l	@r6,r7
    14d6:	20 40       	mov.b	r4,@r0
    14d8:	30 2e       	addc	r2,r0
    14da:	18 48       	mov.l	r4,@(32,r8)
    14dc:	22 48       	tst	r4,r2
    14de:	d2 e8       	mov.l	1880 <_sddrv_129i+0x1880>,r2	! d0404dee
    14e0:	00 02       	stc	sr,r0
    14e2:	d0 e8       	mov.l	1884 <_sddrv_129i+0x1884>,r0	! 1a00dcc0
    14e4:	00 00       	.word 0x0000
    14e6:	d0 40       	mov.l	15e8 <_sddrv_129i+0x15e8>,r0	! 20c051cf
    14e8:	d0 c0       	mov.l	17ec <_sddrv_129i+0x17ec>,r0	! ff964efa
    14ea:	e7 48       	mov	#72,r7
    14ec:	d0 c0       	mov.l	17f0 <_sddrv_129i+0x17f0>,r0	! ff924efa
    14ee:	b1 c9       	bsr	1884 <_sddrv_129i+0x1884>
    14f0:	64 46       	mov.l	@r4+,r4
    14f2:	45 ee       	ldc	r5,r6_bank
    14f4:	18 7e       	mov.l	r7,@(56,r8)
    14f6:	24 d8       	tst	r13,r4
    14f8:	24 d8       	tst	r13,r4
    14fa:	24 d8       	tst	r13,r4
    14fc:	24 d8       	tst	r13,r4
    14fe:	08 b8       	.word 0x08b8
    1500:	00 00       	.word 0x0000
    1502:	04 23       	braf	r4
    1504:	41 ee       	ldc	r1,r6_bank
    1506:	18 7e       	mov.l	r7,@(56,r8)
    1508:	7e 0f       	add	#15,r14
    150a:	18 2e       	mov.l	r2,@(56,r8)
    150c:	18 31       	mov.l	r3,@(4,r8)
    150e:	6b 10       	mov.b	@r1,r11
    1510:	42 44       	.word 0x4244
    1512:	1b 98       	mov.l	r9,@(32,r11)
    1514:	40 17       	ldc.l	@r0+,gbr
    1516:	06 44       	mov.b	r4,@(r0,r6)
    1518:	00 20       	.word 0x0020
    151a:	51 cf       	mov.l	@(60,r12),r1
    151c:	ff f6       	fmov	@(r0,r15),fr15
    151e:	4e 75       	.word 0x4e75
    1520:	42 44       	.word 0x4244
    1522:	10 18       	mov.l	r1,@(32,r0)
    1524:	02 00       	.word 0x0200
    1526:	00 e0       	.word 0x00e0
    1528:	1b 80       	mov.l	r8,@(0,r11)
    152a:	40 17       	ldc.l	@r0+,gbr
    152c:	06 44       	mov.b	r4,@(r0,r6)
    152e:	00 20       	.word 0x0020
    1530:	51 cf       	mov.l	@(60,r12),r1
    1532:	ff f0       	fadd	fr15,fr15
    1534:	80 40       	mov.b	r0,@(0,r4)
    1536:	4e 75       	.word 0x4e75
    1538:	08 f8       	.word 0x08f8
    153a:	00 00       	.word 0x0000
    153c:	04 23       	braf	r4
    153e:	4e fa       	ldc	r14,dbr
    1540:	1e 56       	mov.l	r5,@(24,r14)
    1542:	08 f8       	.word 0x08f8
    1544:	00 03       	bsrf	r0
    1546:	04 23       	braf	r4
    1548:	4e fa       	ldc	r14,dbr
    154a:	1e 4c       	mov.l	r4,@(48,r14)
    154c:	10 18       	mov.l	r1,@(32,r0)
    154e:	02 40       	.word 0x0240
    1550:	00 ff       	mac.l	@r15+,@r0+
    1552:	4e ba       	.word 0x4eba
    1554:	00 06       	mov.l	r0,@(r0,r0)
    1556:	4e fa       	ldc	r14,dbr
    1558:	1d 1a       	mov.l	r1,@(40,r13)
    155a:	41 f8       	.word 0x41f8
    155c:	05 00       	.word 0x0500
    155e:	7e 3f       	add	#63,r14
    1560:	78 00       	add	#0,r8
    1562:	20 c4       	mov.b	r12,@-r0
    1564:	51 cf       	mov.l	@(60,r12),r1
    1566:	ff fc       	fmov	fr15,fr15
    1568:	41 ee       	ldc	r1,r6_bank
    156a:	00 04       	mov.b	r0,@(r0,r0)
    156c:	3e 3c       	add	r3,r14
    156e:	00 ff       	mac.l	@r15+,@r0+
    1570:	78 00       	add	#0,r8
    1572:	20 84       	mov.b	r8,@-r0
    1574:	41 e8       	.word 0x41e8
    1576:	00 10       	.word 0x0010
    1578:	51 cf       	mov.l	@(60,r12),r1
    157a:	ff f8       	fmov	@r15,fr15
    157c:	41 ee       	ldc	r1,r6_bank
    157e:	10 00       	mov.l	r0,@(0,r0)
    1580:	3e 3c       	add	r3,r14
    1582:	00 1f       	mac.l	@r1+,@r0+
    1584:	78 00       	add	#0,r8
    1586:	11 44       	mov.l	r4,@(16,r1)
    1588:	00 00       	.word 0x0000
    158a:	11 44       	mov.l	r4,@(16,r1)
    158c:	00 34       	mov.b	r3,@(r0,r0)
    158e:	21 44       	mov.b	r4,@-r1
    1590:	00 08       	clrt	
    1592:	41 e8       	.word 0x41e8
    1594:	00 40       	.word 0x0040
    1596:	51 cf       	mov.l	@(60,r12),r1
    1598:	ff ee       	fmac	fr0,fr14,fr15
    159a:	41 f9       	.word 0x41f9
    159c:	00 00       	.word 0x0000
    159e:	a0 00       	bra	15a2 <_sddrv_129i+0x15a2>
    15a0:	43 f9       	.word 0x43f9
    15a2:	00 00       	.word 0x0000
    15a4:	b0 00       	bsr	15a8 <_sddrv_129i+0x15a8>
    15a6:	02 40       	.word 0x0240
    15a8:	00 ff       	mac.l	@r15+,@r0+
    15aa:	67 00       	mov.b	@r0,r7
    15ac:	00 18       	sett	
    15ae:	53 40       	mov.l	@(0,r4),r3
    15b0:	12 10       	mov.l	r1,@(0,r2)
    15b2:	6b 0a       	negc	r0,r11
    15b4:	41 e8       	.word 0x41e8
    15b6:	00 08       	clrt	
    15b8:	b3 c8       	bsr	1d4c <_sddrv_129i+0x1d4c>
    15ba:	65 3a       	negc	r3,r5
    15bc:	60 f2       	mov.l	@r15,r0
    15be:	52 88       	mov.l	@(32,r8),r2
    15c0:	51 c8       	mov.l	@(32,r12),r1
    15c2:	ff ee       	fmac	fr0,fr14,fr15
    15c4:	45 f8       	.word 0x45f8
    15c6:	05 00       	.word 0x0500
    15c8:	7e 1f       	add	#31,r14
    15ca:	14 d8       	mov.l	r13,@(32,r4)
    15cc:	14 d8       	mov.l	r13,@(32,r4)
    15ce:	14 d8       	mov.l	r13,@(32,r4)
    15d0:	14 d8       	mov.l	r13,@(32,r4)
    15d2:	14 d8       	mov.l	r13,@(32,r4)
    15d4:	14 d8       	mov.l	r13,@(32,r4)
    15d6:	14 d8       	mov.l	r13,@(32,r4)
    15d8:	14 d8       	mov.l	r13,@(32,r4)
    15da:	51 cf       	mov.l	@(60,r12),r1
    15dc:	ff ee       	fmac	fr0,fr14,fr15
    15de:	41 ed       	shld	r14,r1
    15e0:	07 00       	.word 0x0700
    15e2:	3e 3c       	add	r3,r14
    15e4:	01 3f       	mac.l	@r3+,@r1+
    15e6:	70 00       	add	#0,r0
    15e8:	20 c0       	mov.b	r12,@r0
    15ea:	51 cf       	mov.l	@(60,r12),r1
    15ec:	ff fc       	fmov	fr15,fr15
    15ee:	08 b8       	.word 0x08b8
    15f0:	00 01       	.word 0x0001
    15f2:	04 23       	braf	r4
    15f4:	4e 75       	.word 0x4e75
    15f6:	08 f8       	.word 0x08f8
    15f8:	00 01       	.word 0x0001
    15fa:	04 23       	braf	r4
    15fc:	4e 75       	.word 0x4e75
    15fe:	4e 75       	.word 0x4e75
    1600:	30 03       	cmp/ge	r0,r0
    1602:	4e ba       	.word 0x4eba
    1604:	fe 5e       	fmac	fr0,fr5,fr14
    1606:	65 f6       	mov.l	@r15+,r5
    1608:	30 01       	.word 0x3001
    160a:	e9 48       	mov	#72,r9
    160c:	d0 6e       	mov.l	17c8 <_sddrv_129i+0x17c8>,r0	! 54a4efa
    160e:	18 00       	mov.l	r0,@(0,r8)
    1610:	2d 82       	mov.l	r8,@r13
    1612:	00 04       	mov.b	r0,@(r0,r0)
    1614:	1d bc       	mov.l	r11,@(48,r13)
    1616:	00 7f       	mac.l	@r7+,@r0+
    1618:	00 02       	stc	sr,r0
    161a:	74 00       	add	#0,r4
    161c:	32 2e       	addc	r2,r2
    161e:	18 02       	mov.l	r0,@(8,r8)
    1620:	02 42       	stc	spc,r2
    1622:	00 7f       	mac.l	@r7+,@r0+
    1624:	30 2e       	addc	r2,r0
    1626:	18 0a       	mov.l	r0,@(40,r8)
    1628:	26 36       	mov.l	r3,@-r6
    162a:	00 04       	mov.b	r0,@(r0,r0)
    162c:	67 48       	swap.b	r4,r7
    162e:	20 43       	.word 0x2043
    1630:	08 b8       	.word 0x08b8
    1632:	00 04       	mov.b	r0,@(r0,r0)
    1634:	04 23       	braf	r4
    1636:	36 3c       	add	r3,r6
    1638:	00 08       	clrt	
    163a:	d6 42       	mov.l	1744 <_sddrv_129i+0x1744>,r6	! 4efa0590
    163c:	d6 42       	mov.l	1748 <_sddrv_129i+0x1748>,r6	! 4efa0644
    163e:	b6 68       	bsr	2312 <_sddrv_129i+0x2312>
    1640:	00 00       	.word 0x0000
    1642:	64 26       	mov.l	@r2+,r4
    1644:	08 b8       	.word 0x08b8
    1646:	00 05       	mov.w	r0,@(r0,r0)
    1648:	04 23       	braf	r4
    164a:	1d 82       	mov.l	r8,@(8,r13)
    164c:	00 00       	.word 0x0000
    164e:	76 00       	add	#0,r6
    1650:	3d 83       	cmp/ge	r8,r13
    1652:	00 08       	clrt	
    1654:	16 36       	mov.l	r3,@(24,r6)
    1656:	00 01       	.word 0x0001
    1658:	08 03       	bsrf	r8
    165a:	00 06       	mov.l	r0,@(r0,r0)
    165c:	66 08       	swap.b	r0,r6
    165e:	02 03       	bsrf	r2
    1660:	00 7f       	mac.l	@r7+,@r0+
    1662:	1d 83       	mov.l	r8,@(12,r13)
    1664:	00 01       	.word 0x0001
    1666:	80 40       	mov.b	r0,@(0,r4)
    1668:	4e 75       	.word 0x4e75
    166a:	08 f8       	.word 0x08f8
    166c:	00 05       	mov.w	r0,@(r0,r0)
    166e:	04 23       	braf	r4
    1670:	00 3c       	mov.b	@(r0,r3),r0
    1672:	00 01       	.word 0x0001
    1674:	4e 75       	.word 0x4e75
    1676:	08 f8       	.word 0x08f8
    1678:	00 04       	mov.b	r0,@(r0,r0)
    167a:	04 23       	braf	r4
    167c:	00 3c       	mov.b	@(r0,r3),r0
    167e:	00 01       	.word 0x0001
    1680:	4e 75       	.word 0x4e75
    1682:	08 f8       	.word 0x08f8
    1684:	00 06       	mov.l	r0,@(r0,r0)
    1686:	04 20       	.word 0x0420
    1688:	4e fa       	ldc	r14,dbr
    168a:	f9 76       	fmov	@(r0,r7),fr9
    168c:	08 f8       	.word 0x08f8
    168e:	00 07       	mul.l	r0,r0
    1690:	04 20       	.word 0x0420
    1692:	4e fa       	ldc	r14,dbr
    1694:	f9 6c       	fmov	fr6,fr9
    1696:	08 f8       	.word 0x08f8
    1698:	00 05       	mov.w	r0,@(r0,r0)
    169a:	04 20       	.word 0x0420
    169c:	4e fa       	ldc	r14,dbr
    169e:	f9 62       	fmul	fr6,fr9
    16a0:	72 1a       	add	#26,r2
    16a2:	60 00       	mov.b	@r0,r0
    16a4:	00 5e       	mov.l	@(r0,r5),r0
    16a6:	72 02       	add	#2,r2
    16a8:	60 00       	mov.b	@r0,r0
    16aa:	00 58       	sets	
    16ac:	72 03       	add	#3,r2
    16ae:	60 00       	mov.b	@r0,r0
    16b0:	00 52       	stc	r5_bank,r0
    16b2:	72 04       	add	#4,r2
    16b4:	60 00       	mov.b	@r0,r0
    16b6:	00 4c       	mov.b	@(r0,r4),r0
    16b8:	72 05       	add	#5,r2
    16ba:	60 00       	mov.b	@r0,r0
    16bc:	00 46       	mov.l	r4,@(r0,r0)
    16be:	72 06       	add	#6,r2
    16c0:	60 00       	mov.b	@r0,r0
    16c2:	00 40       	.word 0x0040
    16c4:	72 07       	add	#7,r2
    16c6:	60 00       	mov.b	@r0,r0
    16c8:	00 3a       	stc	sgr,r0
    16ca:	72 08       	add	#8,r2
    16cc:	60 00       	mov.b	@r0,r0
    16ce:	00 34       	mov.b	r3,@(r0,r0)
    16d0:	72 1b       	add	#27,r2
    16d2:	60 00       	mov.b	@r0,r0
    16d4:	00 2e       	mov.l	@(r0,r2),r0
    16d6:	72 1c       	add	#28,r2
    16d8:	60 00       	mov.b	@r0,r0
    16da:	00 28       	clrmac	
    16dc:	72 1d       	add	#29,r2
    16de:	60 00       	mov.b	@r0,r0
    16e0:	00 22       	stc	vbr,r0
    16e2:	72 1e       	add	#30,r2
    16e4:	60 00       	mov.b	@r0,r0
    16e6:	00 1c       	mov.b	@(r0,r1),r0
    16e8:	72 20       	add	#32,r2
    16ea:	60 00       	mov.b	@r0,r0
    16ec:	00 16       	mov.l	r1,@(r0,r0)
    16ee:	72 21       	add	#33,r2
    16f0:	60 00       	mov.b	@r0,r0
    16f2:	00 10       	.word 0x0010
    16f4:	72 23       	add	#35,r2
    16f6:	60 00       	mov.b	@r0,r0
    16f8:	00 0a       	sts	mach,r0
    16fa:	72 24       	add	#36,r2
    16fc:	60 00       	mov.b	@r0,r0
    16fe:	00 04       	mov.b	r0,@(r0,r0)
    1700:	72 25       	add	#37,r2
    1702:	31 c1       	.word 0x31c1
    1704:	04 16       	mov.l	r1,@(r0,r4)
    1706:	4e 75       	.word 0x4e75
    1708:	02 47       	mul.l	r4,r2
    170a:	00 ff       	mac.l	@r15+,@r0+
    170c:	1e 07       	mov.l	r0,@(28,r14)
    170e:	6a 58       	swap.b	r5,r10
    1710:	0c 47       	mul.l	r4,r12
    1712:	00 91       	.word 0x0091
    1714:	64 6c       	extu.b	r6,r4
    1716:	02 47       	mul.l	r4,r2
    1718:	00 0f       	mac.l	@r0+,@r0+
    171a:	de 47       	mov.l	1838 <_sddrv_129i+0x1838>,r14	! 80404e75
    171c:	de 47       	mov.l	183c <_sddrv_129i+0x183c>,r14	! 10184eba
    171e:	4e bb       	.word 0x4ebb
    1720:	70 04       	add	#4,r0
    1722:	60 5e       	exts.b	r5,r0
    1724:	4e fa       	ldc	r14,dbr
    1726:	02 50       	.word 0x0250
    1728:	4e fa       	ldc	r14,dbr
    172a:	02 90       	.word 0x0290
    172c:	4e fa       	ldc	r14,dbr
    172e:	02 d0       	.word 0x02d0
    1730:	4e fa       	ldc	r14,dbr
    1732:	02 d8       	.word 0x02d8
    1734:	4e fa       	ldc	r14,dbr
    1736:	02 dc       	mov.b	@(r0,r13),r2
    1738:	4e fa       	ldc	r14,dbr
    173a:	02 da       	.word 0x02da
    173c:	4e fa       	ldc	r14,dbr
    173e:	05 56       	mov.l	r5,@(r0,r5)
    1740:	4e fa       	ldc	r14,dbr
    1742:	fd 04       	fcmp/eq	fr0,fr13
    1744:	4e fa       	ldc	r14,dbr
    1746:	05 90       	.word 0x0590
    1748:	4e fa       	ldc	r14,dbr
    174a:	06 44       	mov.b	r4,@(r0,r6)
    174c:	4e fa       	ldc	r14,dbr
    174e:	04 a2       	stc	r2_bank,r4
    1750:	4e f9       	.word 0x4ef9
    1752:	00 00       	.word 0x0000
    1754:	17 82       	mov.l	r8,@(8,r7)
    1756:	4e f9       	.word 0x4ef9
    1758:	00 00       	.word 0x0000
    175a:	17 82       	mov.l	r8,@(8,r7)
    175c:	4e fa       	ldc	r14,dbr
    175e:	05 ae       	mov.l	@(r0,r10),r5
    1760:	4e fa       	ldc	r14,dbr
    1762:	00 20       	.word 0x0020
    1764:	4e fa       	ldc	r14,dbr
    1766:	00 1c       	mov.b	@(r0,r1),r0
    1768:	0c 47       	mul.l	r4,r12
    176a:	00 20       	.word 0x0020
    176c:	64 14       	mov.b	@r1+,r4
    176e:	de 47       	mov.l	188c <_sddrv_129i+0x188c>,r14	! 80404e75
    1770:	de 47       	mov.l	1890 <_sddrv_129i+0x1890>,r14	! 4eba2982
    1772:	28 4e       	mulu.w	r4,r8
    1774:	48 e7       	ldc.l	@r8+,r6_bank
    1776:	00 06       	mov.l	r0,@(r0,r0)
    1778:	4e bb       	.word 0x4ebb
    177a:	70 0c       	add	#12,r0
    177c:	4c df       	mac.w	@r13+,@r12+
    177e:	60 00       	mov.b	@r0,r0
    1780:	4e 75       	.word 0x4e75
    1782:	80 40       	mov.b	r0,@(0,r4)
    1784:	4e 75       	.word 0x4e75
    1786:	4e 75       	.word 0x4e75
    1788:	4e 71       	.word 0x4e71
    178a:	4e fa       	ldc	r14,dbr
    178c:	00 7a       	.word 0x007a
    178e:	4e fa       	ldc	r14,dbr
    1790:	00 94       	mov.b	r9,@(r0,r0)
    1792:	4e fa       	ldc	r14,dbr
    1794:	00 9e       	mov.l	@(r0,r9),r0
    1796:	4e fa       	ldc	r14,dbr
    1798:	00 a4       	mov.b	r10,@(r0,r0)
    179a:	4e fa       	ldc	r14,dbr
    179c:	00 aa       	.word 0x00aa
    179e:	4e fa       	ldc	r14,dbr
    17a0:	00 b4       	mov.b	r11,@(r0,r0)
    17a2:	4e fa       	ldc	r14,dbr
    17a4:	00 b8       	.word 0x00b8
    17a6:	4e fa       	ldc	r14,dbr
    17a8:	fd a4       	fcmp/eq	fr10,fr13
    17aa:	4e fa       	ldc	r14,dbr
    17ac:	00 be       	mov.l	@(r0,r11),r0
    17ae:	4e fa       	ldc	r14,dbr
    17b0:	00 e0       	.word 0x00e0
    17b2:	4e fa       	ldc	r14,dbr
    17b4:	00 e4       	mov.b	r14,@(r0,r0)
    17b6:	4e fa       	ldc	r14,dbr
    17b8:	00 e8       	.word 0x00e8
    17ba:	4e fa       	ldc	r14,dbr
    17bc:	00 f6       	mov.l	r15,@(r0,r0)
    17be:	4e fa       	ldc	r14,dbr
    17c0:	01 36       	mov.l	r3,@(r0,r1)
    17c2:	4e fa       	ldc	r14,dbr
    17c4:	ff be       	fmac	fr0,fr11,fr15
    17c6:	4e fa       	ldc	r14,dbr
    17c8:	05 4a       	.word 0x054a
    17ca:	4e fa       	ldc	r14,dbr
    17cc:	05 32       	stc	ssr,r5
    17ce:	4e fa       	ldc	r14,dbr
    17d0:	05 24       	mov.b	r2,@(r0,r5)
    17d2:	4e fa       	ldc	r14,dbr
    17d4:	ff ae       	fmac	fr0,fr10,fr15
    17d6:	4e fa       	ldc	r14,dbr
    17d8:	ff aa       	fmov	fr10,@r15
    17da:	4e fa       	ldc	r14,dbr
    17dc:	ff a6       	fmov	@(r0,r10),fr15
    17de:	4e fa       	ldc	r14,dbr
    17e0:	ff a2       	fmul	fr10,fr15
    17e2:	4e fa       	ldc	r14,dbr
    17e4:	ff 9e       	fmac	fr0,fr9,fr15
    17e6:	4e fa       	ldc	r14,dbr
    17e8:	ff 9a       	fmov	fr9,@r15
    17ea:	4e fa       	ldc	r14,dbr
    17ec:	ff 96       	fmov	@(r0,r9),fr15
    17ee:	4e fa       	ldc	r14,dbr
    17f0:	ff 92       	fmul	fr9,fr15
    17f2:	4e fa       	ldc	r14,dbr
    17f4:	ff 8e       	fmac	fr0,fr8,fr15
    17f6:	4e fa       	ldc	r14,dbr
    17f8:	ff 8a       	fmov	fr8,@r15
    17fa:	4e fa       	ldc	r14,dbr
    17fc:	ff 86       	fmov	@(r0,r8),fr15
    17fe:	4e fa       	ldc	r14,dbr
    1800:	ff 82       	fmul	fr8,fr15
    1802:	4e fa       	ldc	r14,dbr
    1804:	ff 7e       	fmac	fr0,fr7,fr15
    1806:	10 18       	mov.l	r1,@(32,r0)
    1808:	14 18       	mov.l	r1,@(32,r4)
    180a:	16 18       	mov.l	r1,@(32,r6)
    180c:	12 03       	mov.l	r0,@(12,r2)
    180e:	4e ba       	.word 0x4eba
    1810:	07 02       	stc	sr,r7
    1812:	65 0c       	extu.b	r0,r5
    1814:	16 01       	mov.l	r0,@(4,r6)
    1816:	12 18       	mov.l	r1,@(32,r2)
    1818:	14 18       	mov.l	r1,@(32,r4)
    181a:	20 4a       	xor	r4,r0
    181c:	4e ba       	.word 0x4eba
    181e:	26 d2       	mov.l	r13,@r6
    1820:	80 40       	mov.b	r0,@(0,r4)
    1822:	4e 75       	.word 0x4e75
    1824:	10 18       	mov.l	r1,@(32,r0)
    1826:	16 18       	mov.l	r1,@(32,r6)
    1828:	16 18       	mov.l	r1,@(32,r6)
    182a:	4e ba       	.word 0x4eba
    182c:	26 ce       	mulu.w	r12,r6
    182e:	80 40       	mov.b	r0,@(0,r4)
    1830:	4e 75       	.word 0x4e75
    1832:	10 18       	mov.l	r1,@(32,r0)
    1834:	4e ba       	.word 0x4eba
    1836:	26 ce       	mulu.w	r12,r6
    1838:	80 40       	mov.b	r0,@(0,r4)
    183a:	4e 75       	.word 0x4e75
    183c:	10 18       	mov.l	r1,@(32,r0)
    183e:	4e ba       	.word 0x4eba
    1840:	26 ce       	mulu.w	r12,r6
    1842:	80 40       	mov.b	r0,@(0,r4)
    1844:	4e 75       	.word 0x4e75
    1846:	10 18       	mov.l	r1,@(32,r0)
    1848:	12 18       	mov.l	r1,@(32,r2)
    184a:	14 18       	mov.l	r1,@(32,r4)
    184c:	4e ba       	.word 0x4eba
    184e:	26 ca       	xor	r12,r6
    1850:	80 40       	mov.b	r0,@(0,r4)
    1852:	4e 75       	.word 0x4e75
    1854:	4e ba       	.word 0x4eba
    1856:	2a 26       	mov.l	r2,@-r10
    1858:	4e fa       	ldc	r14,dbr
    185a:	1b 14       	mov.l	r1,@(16,r11)
    185c:	10 18       	mov.l	r1,@(32,r0)
    185e:	12 18       	mov.l	r1,@(32,r2)
    1860:	34 18       	sub	r1,r4
    1862:	4e ba       	.word 0x4eba
    1864:	29 cc       	cmp/str	r12,r9
    1866:	80 40       	mov.b	r0,@(0,r4)
    1868:	4e 75       	.word 0x4e75
    186a:	4d f8       	.word 0x4df8
    186c:	70 00       	add	#0,r0
    186e:	40 e7       	ldc.l	@r0+,r6_bank
    1870:	46 fc       	shad	r15,r6
    1872:	27 00       	mov.b	r0,@r7
    1874:	42 40       	.word 0x4240
    1876:	10 2e       	mov.l	r2,@(56,r0)
    1878:	18 40       	mov.l	r4,@(0,r8)
    187a:	52 2e       	mov.l	@(56,r2),r2
    187c:	18 40       	mov.l	r4,@(0,r8)
    187e:	d0 40       	mov.l	1980 <_sddrv_129i+0x1980>,r0	! 202001f
    1880:	d0 40       	mov.l	1984 <_sddrv_129i+0x1984>,r0	! 8002122e
    1882:	4d ee       	ldc	r13,r6_bank
    1884:	1a 00       	mov.l	r0,@(0,r10)
    1886:	dc c0       	mov.l	1b88 <_sddrv_129i+0x1b88>,r12	! 48474247
    1888:	2c d8       	tst	r13,r12
    188a:	46 df       	mac.w	@r13+,@r6+
    188c:	80 40       	mov.b	r0,@(0,r4)
    188e:	4e 75       	.word 0x4e75
    1890:	4e ba       	.word 0x4eba
    1892:	29 82       	mov.l	r8,@r9
    1894:	80 40       	mov.b	r0,@(0,r4)
    1896:	4e 75       	.word 0x4e75
    1898:	4e ba       	.word 0x4eba
    189a:	29 88       	tst	r8,r9
    189c:	80 40       	mov.b	r0,@(0,r4)
    189e:	4e 75       	.word 0x4e75
    18a0:	7e 7f       	add	#127,r14
    18a2:	70 00       	add	#0,r0
    18a4:	41 ed       	shld	r14,r1
    18a6:	08 00       	.word 0x0800
    18a8:	20 c0       	mov.b	r12,@r0
    18aa:	20 c0       	mov.b	r12,@r0
    18ac:	51 cf       	mov.l	@(60,r12),r1
    18ae:	ff fa       	fmov	fr15,@r15
    18b0:	4e 75       	.word 0x4e75
    18b2:	40 e7       	ldc.l	@r0+,r6_bank
    18b4:	46 fc       	shad	r15,r6
    18b6:	27 00       	mov.b	r0,@r7
    18b8:	4d f8       	.word 0x4df8
    18ba:	70 00       	add	#0,r0
    18bc:	30 2e       	addc	r2,r0
    18be:	18 34       	mov.l	r3,@(16,r8)
    18c0:	32 2e       	addc	r2,r2
    18c2:	18 3a       	mov.l	r3,@(40,r8)
    18c4:	34 2e       	addc	r2,r4
    18c6:	18 38       	mov.l	r3,@(32,r8)
    18c8:	48 e7       	ldc.l	@r8+,r6_bank
    18ca:	e0 00       	mov	#0,r0
    18cc:	4e ba       	.word 0x4eba
    18ce:	1a 04       	mov.l	r0,@(16,r10)
    18d0:	4e ba       	.word 0x4eba
    18d2:	1b 34       	mov.l	r3,@(16,r11)
    18d4:	70 00       	add	#0,r0
    18d6:	41 f8       	.word 0x41f8
    18d8:	07 80       	.word 0x0780
    18da:	20 c0       	mov.b	r12,@r0
    18dc:	20 c0       	mov.b	r12,@r0
    18de:	20 c0       	mov.b	r12,@r0
    18e0:	20 c0       	mov.b	r12,@r0
    18e2:	4c df       	mac.w	@r13+,@r12+
    18e4:	00 07       	mul.l	r0,r0
    18e6:	3d 40       	cmp/eq	r4,r13
    18e8:	18 34       	mov.l	r3,@(16,r8)
    18ea:	3d 41       	.word 0x3d41
    18ec:	18 3a       	mov.l	r3,@(40,r8)
    18ee:	3d 42       	cmp/hs	r4,r13
    18f0:	18 38       	mov.l	r3,@(32,r8)
    18f2:	46 df       	mac.w	@r13+,@r6+
    18f4:	4e 75       	.word 0x4e75
    18f6:	4d f8       	.word 0x4df8
    18f8:	70 00       	add	#0,r0
    18fa:	30 10       	cmp/eq	r1,r0
    18fc:	02 40       	.word 0x0240
    18fe:	07 00       	.word 0x0700
    1900:	d0 40       	mov.l	1a04 <_sddrv_129i+0x1a04>,r0	! 1b400401
    1902:	12 28       	mov.l	r2,@(32,r2)
    1904:	00 01       	.word 0x0001
    1906:	6a 14       	mov.b	@r1+,r10
    1908:	41 f6       	ldc.l	@r1+,dbr
    190a:	00 01       	.word 0x0001
    190c:	7e 0f       	add	#15,r14
    190e:	70 3f       	add	#63,r0
    1910:	c1 10       	mov.w	r0,@(32,gbr)
    1912:	41 e8       	.word 0x41e8
    1914:	00 10       	.word 0x0010
    1916:	51 cf       	mov.l	@(60,r12),r1
    1918:	ff f8       	fmov	@r15,fr15
    191a:	4e 75       	.word 0x4e75
    191c:	e4 09       	mov	#9,r4
    191e:	04 01       	.word 0x0401
    1920:	00 10       	.word 0x0010
    1922:	64 06       	mov.l	@r0+,r4
    1924:	46 01       	shlr	r6
    1926:	06 01       	.word 0x0601
    1928:	00 10       	.word 0x0010
    192a:	16 01       	mov.l	r0,@(4,r6)
    192c:	00 01       	.word 0x0001
    192e:	00 c0       	.word 0x00c0
    1930:	43 f6       	ldc.l	@r3+,dbr
    1932:	00 01       	.word 0x0001
    1934:	7e 0f       	add	#15,r14
    1936:	12 81       	mov.l	r8,@(4,r2)
    1938:	43 e9       	.word 0x43e9
    193a:	00 10       	.word 0x0010
    193c:	51 cf       	mov.l	@(60,r12),r1
    193e:	ff f8       	fmov	@r15,fr15
    1940:	18 2e       	mov.l	r2,@(56,r8)
    1942:	18 31       	mov.l	r3,@(4,r8)
    1944:	6a 02       	mov.l	@r0,r10
    1946:	76 00       	add	#0,r6
    1948:	41 ee       	ldc	r1,r6_bank
    194a:	10 00       	mov.l	r0,@(0,r0)
    194c:	7e 1f       	add	#31,r14
    194e:	78 00       	add	#0,r8
    1950:	b0 70       	bsr	1a34 <_sddrv_129i+0x1a34>
    1952:	40 06       	lds.l	@r0+,mach
    1954:	66 16       	mov.l	@r1+,r6
    1956:	e2 4c       	mov	#76,r2
    1958:	14 35       	mov.l	r3,@(20,r4)
    195a:	40 16       	lds.l	@r0+,macl
    195c:	02 02       	stc	sr,r2
    195e:	00 e0       	.word 0x00e0
    1960:	84 03       	mov.b	@(3,r0),r0
    1962:	1b 82       	mov.l	r8,@(8,r11)
    1964:	40 16       	lds.l	@r0+,macl
    1966:	d8 44       	mov.l	1a78 <_sddrv_129i+0x1a78>,r8	! 48474247
    1968:	11 82       	mov.l	r8,@(8,r1)
    196a:	40 04       	rotl	r0
    196c:	06 44       	mov.b	r4,@(r0,r6)
    196e:	00 40       	.word 0x0040
    1970:	51 cf       	mov.l	@(60,r12),r1
    1972:	ff de       	fmac	fr0,fr13,fr15
    1974:	4e 75       	.word 0x4e75
    1976:	10 18       	mov.l	r1,@(32,r0)
    1978:	02 00       	.word 0x0200
    197a:	00 e0       	.word 0x00e0
    197c:	14 2e       	mov.l	r2,@(56,r4)
    197e:	18 8e       	mov.l	r8,@(56,r8)
    1980:	02 02       	stc	sr,r2
    1982:	00 1f       	mac.l	@r1+,@r0+
    1984:	80 02       	mov.b	r0,@(2,r0)
    1986:	12 2e       	mov.l	r2,@(56,r2)
    1988:	18 31       	mov.l	r3,@(4,r8)
    198a:	6a 04       	mov.b	@r0+,r10
    198c:	02 00       	.word 0x0200
    198e:	00 e0       	.word 0x00e0
    1990:	1d 40       	mov.l	r4,@(0,r13)
    1992:	18 8e       	mov.l	r8,@(56,r8)
    1994:	1b 40       	mov.l	r4,@(0,r11)
    1996:	02 17       	mul.l	r1,r2
    1998:	10 18       	mov.l	r1,@(32,r0)
    199a:	02 00       	.word 0x0200
    199c:	00 e0       	.word 0x00e0
    199e:	14 2e       	mov.l	r2,@(56,r4)
    19a0:	18 8f       	mov.l	r8,@(60,r8)
    19a2:	02 02       	stc	sr,r2
    19a4:	00 1f       	mac.l	@r1+,@r0+
    19a6:	80 02       	mov.b	r0,@(2,r0)
    19a8:	12 01       	mov.l	r0,@(4,r2)
    19aa:	6a 04       	mov.b	@r0+,r10
    19ac:	02 00       	.word 0x0200
    19ae:	00 e0       	.word 0x00e0
    19b0:	1d 40       	mov.l	r4,@(0,r13)
    19b2:	18 8f       	mov.l	r8,@(60,r8)
    19b4:	1b 40       	mov.l	r4,@(0,r11)
    19b6:	02 37       	mul.l	r3,r2
    19b8:	4e 75       	.word 0x4e75
    19ba:	10 18       	mov.l	r1,@(32,r0)
    19bc:	02 00       	.word 0x0200
    19be:	00 1f       	mac.l	@r1+,@r0+
    19c0:	14 2e       	mov.l	r2,@(56,r4)
    19c2:	18 8e       	mov.l	r8,@(56,r8)
    19c4:	02 02       	stc	sr,r2
    19c6:	00 e0       	.word 0x00e0
    19c8:	80 02       	mov.b	r0,@(2,r0)
    19ca:	12 2e       	mov.l	r2,@(56,r2)
    19cc:	18 31       	mov.l	r3,@(4,r8)
    19ce:	6a 04       	mov.b	@r0+,r10
    19d0:	02 00       	.word 0x0200
    19d2:	00 e0       	.word 0x00e0
    19d4:	1d 40       	mov.l	r4,@(0,r13)
    19d6:	18 8e       	mov.l	r8,@(56,r8)
    19d8:	1b 40       	mov.l	r4,@(0,r11)
    19da:	02 17       	mul.l	r1,r2
    19dc:	10 18       	mov.l	r1,@(32,r0)
    19de:	02 00       	.word 0x0200
    19e0:	00 1f       	mac.l	@r1+,@r0+
    19e2:	14 2e       	mov.l	r2,@(56,r4)
    19e4:	18 8f       	mov.l	r8,@(60,r8)
    19e6:	02 02       	stc	sr,r2
    19e8:	00 e0       	.word 0x00e0
    19ea:	80 02       	mov.b	r0,@(2,r0)
    19ec:	12 01       	mov.l	r0,@(4,r2)
    19ee:	6a 04       	mov.b	@r0+,r10
    19f0:	02 00       	.word 0x0200
    19f2:	00 e0       	.word 0x00e0
    19f4:	1d 40       	mov.l	r4,@(0,r13)
    19f6:	18 8f       	mov.l	r8,@(60,r8)
    19f8:	1b 40       	mov.l	r4,@(0,r11)
    19fa:	02 37       	mul.l	r3,r2
    19fc:	4e 75       	.word 0x4e75
    19fe:	10 18       	mov.l	r1,@(32,r0)
    1a00:	02 00       	.word 0x0200
    1a02:	00 0f       	mac.l	@r0+,@r0+
    1a04:	1b 40       	mov.l	r4,@(0,r11)
    1a06:	04 01       	.word 0x0401
    1a08:	4e 75       	.word 0x4e75
    1a0a:	42 41       	.word 0x4241
    1a0c:	16 18       	mov.l	r1,@(32,r6)
    1a0e:	4e fa       	ldc	r14,dbr
    1a10:	0d c2       	stc	r4_bank,r13
    1a12:	4e 75       	.word 0x4e75
    1a14:	47 ee       	ldc	r7,r6_bank
    1a16:	18 90       	mov.l	r9,@(0,r8)
    1a18:	45 ee       	ldc	r5,r6_bank
    1a1a:	10 00       	mov.l	r0,@(0,r0)
    1a1c:	1e 28       	mov.l	r2,@(32,r14)
    1a1e:	00 00       	.word 0x0000
    1a20:	6a 00       	mov.b	@r0,r10
    1a22:	01 0c       	mov.b	@(r0,r0),r1
    1a24:	02 47       	mul.l	r4,r2
    1a26:	00 07       	mul.l	r0,r0
    1a28:	de 47       	mov.l	1b48 <_sddrv_129i+0x1b48>,r14	! 8b30007
    1a2a:	18 33       	mov.l	r3,@(12,r8)
    1a2c:	70 00       	add	#0,r0
    1a2e:	08 f3       	.word 0x08f3
    1a30:	00 07       	mul.l	r0,r0
    1a32:	70 00       	add	#0,r0
    1a34:	02 44       	mov.b	r4,@(r0,r2)
    1a36:	00 1f       	mac.l	@r1+,@r0+
    1a38:	ed 4c       	mov	#76,r13
    1a3a:	1a 33       	mov.l	r3,@(12,r10)
    1a3c:	70 01       	add	#1,r0
    1a3e:	08 f3       	.word 0x08f3
    1a40:	00 07       	mul.l	r0,r0
    1a42:	70 01       	add	#1,r0
    1a44:	02 45       	mov.w	r4,@(r0,r2)
    1a46:	00 1f       	mac.l	@r1+,@r0+
    1a48:	ed 4d       	mov	#77,r13
    1a4a:	10 28       	mov.l	r2,@(32,r0)
    1a4c:	00 00       	.word 0x0000
    1a4e:	1e 00       	mov.l	r0,@(0,r14)
    1a50:	02 40       	.word 0x0240
    1a52:	00 07       	mul.l	r0,r0
    1a54:	00 00       	.word 0x0000
    1a56:	00 80       	.word 0x0080
    1a58:	15 80       	mov.l	r8,@(0,r5)
    1a5a:	40 34       	.word 0x4034
    1a5c:	15 80       	mov.l	r8,@(0,r5)
    1a5e:	50 34       	mov.l	@(16,r3),r0
    1a60:	e2 4c       	mov	#76,r2
    1a62:	e2 4d       	mov	#77,r2
    1a64:	1b bc       	mov.l	r11,@(48,r11)
    1a66:	00 10       	.word 0x0010
    1a68:	40 00       	shll	r0
    1a6a:	1b bc       	mov.l	r11,@(48,r11)
    1a6c:	00 10       	.word 0x0010
    1a6e:	50 00       	mov.l	@(0,r0),r0
    1a70:	02 47       	mul.l	r4,r2
    1a72:	00 10       	.word 0x0010
    1a74:	00 47       	mul.l	r4,r0
    1a76:	00 20       	.word 0x0020
    1a78:	48 47       	ldc.l	@r8+,spc
    1a7a:	42 47       	ldc.l	@r2+,spc
    1a7c:	70 00       	add	#0,r0
    1a7e:	3b 80       	cmp/eq	r8,r11
    1a80:	40 04       	rotl	r0
    1a82:	3b 80       	cmp/eq	r8,r11
    1a84:	50 04       	mov.l	@(16,r0),r0
    1a86:	30 28       	sub	r2,r0
    1a88:	00 02       	stc	sr,r0
    1a8a:	e9 88       	mov	#-120,r9
    1a8c:	80 87       	mov.b	r0,@(7,r8)
    1a8e:	2b 80       	mov.b	r8,@r11
    1a90:	40 00       	shll	r0
    1a92:	72 00       	add	#0,r2
    1a94:	2b 81       	mov.w	r8,@r11
    1a96:	40 0c       	shad	r0,r0
    1a98:	2b 81       	mov.w	r8,@r11
    1a9a:	50 0c       	mov.l	@(48,r0),r0
    1a9c:	3b 81       	.word 0x3b81
    1a9e:	40 12       	sts.l	macl,@-r0
    1aa0:	3b 81       	.word 0x3b81
    1aa2:	50 12       	mov.l	@(8,r1),r0
    1aa4:	32 28       	sub	r2,r2
    1aa6:	00 04       	mov.b	r0,@(r0,r0)
    1aa8:	53 41       	mov.l	@(4,r4),r3
    1aaa:	3b 81       	.word 0x3b81
    1aac:	40 06       	lds.l	@r0+,mach
    1aae:	3b 81       	.word 0x3b81
    1ab0:	50 06       	mov.l	@(24,r0),r0
    1ab2:	52 81       	mov.l	@(4,r8),r2
    1ab4:	d0 81       	mov.l	1cbc <_sddrv_129i+0x1cbc>,r0	! 77001
    1ab6:	08 07       	mul.l	r0,r8
    1ab8:	00 14       	mov.b	r1,@(r0,r0)
    1aba:	66 02       	mov.l	@r0,r6
    1abc:	d0 81       	mov.l	1cc4 <_sddrv_129i+0x1cc4>,r0	! ed4c15bc
    1abe:	2b 80       	mov.b	r8,@r11
    1ac0:	50 00       	mov.l	@(0,r0),r0
    1ac2:	10 28       	mov.l	r2,@(32,r0)
    1ac4:	00 01       	.word 0x0001
    1ac6:	02 00       	.word 0x0200
    1ac8:	00 e0       	.word 0x00e0
    1aca:	00 00       	.word 0x0000
    1acc:	00 0f       	mac.l	@r0+,@r0+
    1ace:	08 2e       	mov.l	@(r0,r2),r8
    1ad0:	00 07       	mul.l	r0,r0
    1ad2:	18 31       	mov.l	r3,@(4,r8)
    1ad4:	67 04       	mov.b	@r0+,r7
    1ad6:	02 00       	.word 0x0200
    1ad8:	00 f0       	.word 0x00f0
    1ada:	1b 80       	mov.l	r8,@(0,r11)
    1adc:	40 16       	lds.l	@r0+,macl
    1ade:	d8 44       	mov.l	1bf0 <_sddrv_129i+0x1bf0>,r8	! 45ee1000
    1ae0:	15 80       	mov.l	r8,@(0,r5)
    1ae2:	40 04       	rotl	r0
    1ae4:	e2 4c       	mov	#76,r2
    1ae6:	00 00       	.word 0x0000
    1ae8:	00 10       	.word 0x0010
    1aea:	1b 80       	mov.l	r8,@(0,r11)
    1aec:	50 16       	mov.l	@(24,r1),r0
    1aee:	da 45       	mov.l	1c04 <_sddrv_129i+0x1c04>,r10	! 70006a5a
    1af0:	15 80       	mov.l	r8,@(0,r5)
    1af2:	50 04       	mov.l	@(16,r0),r0
    1af4:	e2 4d       	mov	#77,r2
    1af6:	20 3c       	cmp/str	r3,r0
    1af8:	00 1f       	mac.l	@r1+,@r0+
    1afa:	00 1f       	mac.l	@r1+,@r0+
    1afc:	2b 80       	mov.b	r8,@r11
    1afe:	40 08       	shll2	r0
    1b00:	2b 80       	mov.b	r8,@r11
    1b02:	50 08       	mov.l	@(32,r0),r0
    1b04:	10 28       	mov.l	r2,@(32,r0)
    1b06:	00 08       	clrt	
    1b08:	1b 80       	mov.l	r8,@(0,r11)
    1b0a:	40 15       	cmp/pl	r0
    1b0c:	10 28       	mov.l	r2,@(32,r0)
    1b0e:	00 09       	nop	
    1b10:	1b 80       	mov.l	r8,@(0,r11)
    1b12:	50 15       	mov.l	@(20,r1),r0
    1b14:	30 28       	sub	r2,r0
    1b16:	00 06       	mov.l	r0,@(r0,r0)
    1b18:	3b 80       	cmp/eq	r8,r11
    1b1a:	40 10       	dt	r0
    1b1c:	3b 80       	cmp/eq	r8,r11
    1b1e:	50 10       	mov.l	@(0,r1),r0
    1b20:	1b bc       	mov.l	r11,@(48,r11)
    1b22:	00 08       	clrt	
    1b24:	40 00       	shll	r0
    1b26:	1b bc       	mov.l	r11,@(48,r11)
    1b28:	00 18       	sett	
    1b2a:	50 00       	mov.l	@(0,r0),r0
    1b2c:	4e 75       	.word 0x4e75
    1b2e:	02 47       	mul.l	r4,r2
    1b30:	00 07       	mul.l	r0,r0
    1b32:	de 47       	mov.l	1c50 <_sddrv_129i+0x1c50>,r14	! 40103b80
    1b34:	18 33       	mov.l	r3,@(12,r8)
    1b36:	70 00       	add	#0,r0
    1b38:	08 f3       	.word 0x08f3
    1b3a:	00 07       	mul.l	r0,r0
    1b3c:	70 00       	add	#0,r0
    1b3e:	02 44       	mov.b	r4,@(r0,r2)
    1b40:	00 1f       	mac.l	@r1+,@r0+
    1b42:	ed 4c       	mov	#76,r13
    1b44:	1a 33       	mov.l	r3,@(12,r10)
    1b46:	70 01       	add	#1,r0
    1b48:	08 b3       	ocbwb	@r8
    1b4a:	00 07       	mul.l	r0,r0
    1b4c:	70 01       	add	#1,r0
    1b4e:	02 45       	mov.w	r4,@(r0,r2)
    1b50:	00 1f       	mac.l	@r1+,@r0+
    1b52:	ed 4d       	mov	#77,r13
    1b54:	10 28       	mov.l	r2,@(32,r0)
    1b56:	00 00       	.word 0x0000
    1b58:	1e 00       	mov.l	r0,@(0,r14)
    1b5a:	02 40       	.word 0x0240
    1b5c:	00 07       	mul.l	r0,r0
    1b5e:	00 00       	.word 0x0000
    1b60:	00 80       	.word 0x0080
    1b62:	15 80       	mov.l	r8,@(0,r5)
    1b64:	40 34       	.word 0x4034
    1b66:	10 32       	mov.l	r3,@(8,r0)
    1b68:	50 34       	mov.l	@(16,r3),r0
    1b6a:	15 bc       	mov.l	r11,@(48,r5)
    1b6c:	00 00       	.word 0x0000
    1b6e:	50 34       	mov.l	@(16,r3),r0
    1b70:	e2 4c       	mov	#76,r2
    1b72:	e2 4d       	mov	#77,r2
    1b74:	1b bc       	mov.l	r11,@(48,r11)
    1b76:	00 10       	.word 0x0010
    1b78:	40 00       	shll	r0
    1b7a:	1b bc       	mov.l	r11,@(48,r11)
    1b7c:	00 10       	.word 0x0010
    1b7e:	50 00       	mov.l	@(0,r0),r0
    1b80:	02 47       	mul.l	r4,r2
    1b82:	00 10       	.word 0x0010
    1b84:	00 47       	mul.l	r4,r0
    1b86:	00 20       	.word 0x0020
    1b88:	48 47       	ldc.l	@r8+,spc
    1b8a:	42 47       	ldc.l	@r2+,spc
    1b8c:	70 00       	add	#0,r0
    1b8e:	3b 80       	cmp/eq	r8,r11
    1b90:	40 04       	rotl	r0
    1b92:	30 28       	sub	r2,r0
    1b94:	00 02       	stc	sr,r0
    1b96:	e9 88       	mov	#-120,r9
    1b98:	80 87       	mov.b	r0,@(7,r8)
    1b9a:	2b 80       	mov.b	r8,@r11
    1b9c:	40 00       	shll	r0
    1b9e:	72 00       	add	#0,r2
    1ba0:	2b 81       	mov.w	r8,@r11
    1ba2:	40 0c       	shad	r0,r0
    1ba4:	3b 81       	.word 0x3b81
    1ba6:	40 12       	sts.l	macl,@-r0
    1ba8:	32 28       	sub	r2,r2
    1baa:	00 04       	mov.b	r0,@(r0,r0)
    1bac:	53 41       	mov.l	@(4,r4),r3
    1bae:	3b 81       	.word 0x3b81
    1bb0:	40 06       	lds.l	@r0+,mach
    1bb2:	10 28       	mov.l	r2,@(32,r0)
    1bb4:	00 01       	.word 0x0001
    1bb6:	08 2e       	mov.l	@(r0,r2),r8
    1bb8:	00 07       	mul.l	r0,r0
    1bba:	18 31       	mov.l	r3,@(4,r8)
    1bbc:	67 04       	mov.b	@r0+,r7
    1bbe:	02 00       	.word 0x0200
    1bc0:	00 f0       	.word 0x00f0
    1bc2:	1b 80       	mov.l	r8,@(0,r11)
    1bc4:	40 16       	lds.l	@r0+,macl
    1bc6:	d8 44       	mov.l	1cd8 <_sddrv_129i+0x1cd8>,r8	! 10180c40
    1bc8:	15 80       	mov.l	r8,@(0,r5)
    1bca:	40 04       	rotl	r0
    1bcc:	e2 4c       	mov	#76,r2
    1bce:	20 3c       	cmp/str	r3,r0
    1bd0:	00 1f       	mac.l	@r1+,@r0+
    1bd2:	00 1f       	mac.l	@r1+,@r0+
    1bd4:	2b 80       	mov.b	r8,@r11
    1bd6:	40 08       	shll2	r0
    1bd8:	10 28       	mov.l	r2,@(32,r0)
    1bda:	00 08       	clrt	
    1bdc:	1b 80       	mov.l	r8,@(0,r11)
    1bde:	40 15       	cmp/pl	r0
    1be0:	30 28       	sub	r2,r0
    1be2:	00 06       	mov.l	r0,@(r0,r0)
    1be4:	3b 80       	cmp/eq	r8,r11
    1be6:	40 10       	dt	r0
    1be8:	1b bc       	mov.l	r11,@(48,r11)
    1bea:	00 18       	sett	
    1bec:	40 00       	shll	r0
    1bee:	4e 75       	.word 0x4e75
    1bf0:	45 ee       	ldc	r5,r6_bank
    1bf2:	10 00       	mov.l	r0,@(0,r0)
    1bf4:	47 ee       	ldc	r7,r6_bank
    1bf6:	18 90       	mov.l	r9,@(0,r8)
    1bf8:	1e 28       	mov.l	r2,@(32,r14)
    1bfa:	00 00       	.word 0x0000
    1bfc:	02 47       	mul.l	r4,r2
    1bfe:	00 07       	mul.l	r0,r0
    1c00:	de 47       	mov.l	1d20 <_sddrv_129i+0x1d20>,r14	! 8048e7
    1c02:	18 33       	mov.l	r3,@(12,r8)
    1c04:	70 00       	add	#0,r0
    1c06:	6a 5a       	negc	r5,r10
    1c08:	1a 33       	mov.l	r3,@(12,r10)
    1c0a:	70 01       	add	#1,r0
    1c0c:	6a 56       	mov.l	@r5+,r10
    1c0e:	02 44       	mov.b	r4,@(r0,r2)
    1c10:	00 1f       	mac.l	@r1+,@r0+
    1c12:	02 45       	mov.w	r4,@(r0,r2)
    1c14:	00 1f       	mac.l	@r1+,@r0+
    1c16:	eb 4c       	mov	#76,r11
    1c18:	eb 4d       	mov	#77,r11
    1c1a:	10 28       	mov.l	r2,@(32,r0)
    1c1c:	00 01       	.word 0x0001
    1c1e:	02 00       	.word 0x0200
    1c20:	00 e0       	.word 0x00e0
    1c22:	08 2e       	mov.l	@(r0,r2),r8
    1c24:	00 07       	mul.l	r0,r0
    1c26:	18 31       	mov.l	r3,@(4,r8)
    1c28:	66 04       	mov.b	@r0+,r6
    1c2a:	00 00       	.word 0x0000
    1c2c:	00 0f       	mac.l	@r0+,@r0+
    1c2e:	1b 80       	mov.l	r8,@(0,r11)
    1c30:	40 16       	lds.l	@r0+,macl
    1c32:	d8 44       	mov.l	1d44 <_sddrv_129i+0x1d44>,r8	! 4ebaff56
    1c34:	15 80       	mov.l	r8,@(0,r5)
    1c36:	40 04       	rotl	r0
    1c38:	e2 4c       	mov	#76,r2
    1c3a:	00 00       	.word 0x0000
    1c3c:	00 10       	.word 0x0010
    1c3e:	1b 80       	mov.l	r8,@(0,r11)
    1c40:	50 16       	mov.l	@(24,r1),r0
    1c42:	da 45       	mov.l	1d58 <_sddrv_129i+0x1d58>,r10	! 2171b40
    1c44:	15 80       	mov.l	r8,@(0,r5)
    1c46:	50 04       	mov.l	@(16,r0),r0
    1c48:	e2 4d       	mov	#77,r2
    1c4a:	30 28       	sub	r2,r0
    1c4c:	00 02       	stc	sr,r0
    1c4e:	3b 80       	cmp/eq	r8,r11
    1c50:	40 10       	dt	r0
    1c52:	3b 80       	cmp/eq	r8,r11
    1c54:	50 10       	mov.l	@(0,r1),r0
    1c56:	1b a8       	mov.l	r10,@(32,r11)
    1c58:	00 04       	mov.b	r0,@(r0,r0)
    1c5a:	40 15       	cmp/pl	r0
    1c5c:	1b a8       	mov.l	r10,@(32,r11)
    1c5e:	00 05       	mov.w	r0,@(r0,r0)
    1c60:	50 15       	mov.l	@(20,r1),r0
    1c62:	4e 75       	.word 0x4e75
    1c64:	02 44       	mov.b	r4,@(r0,r2)
    1c66:	00 1f       	mac.l	@r1+,@r0+
    1c68:	eb 4c       	mov	#76,r11
    1c6a:	10 28       	mov.l	r2,@(32,r0)
    1c6c:	00 01       	.word 0x0001
    1c6e:	08 2e       	mov.l	@(r0,r2),r8
    1c70:	00 07       	mul.l	r0,r0
    1c72:	18 31       	mov.l	r3,@(4,r8)
    1c74:	67 04       	mov.b	@r0+,r7
    1c76:	02 00       	.word 0x0200
    1c78:	00 e0       	.word 0x00e0
    1c7a:	1b 80       	mov.l	r8,@(0,r11)
    1c7c:	40 16       	lds.l	@r0+,macl
    1c7e:	d8 44       	mov.l	1d90 <_sddrv_129i+0x1d90>,r8	! c000008
    1c80:	15 80       	mov.l	r8,@(0,r5)
    1c82:	40 04       	rotl	r0
    1c84:	e2 4c       	mov	#76,r2
    1c86:	3b a8       	sub	r10,r11
    1c88:	00 02       	stc	sr,r0
    1c8a:	40 10       	dt	r0
    1c8c:	1b a8       	mov.l	r10,@(32,r11)
    1c8e:	00 04       	mov.b	r0,@(r0,r0)
    1c90:	40 15       	cmp/pl	r0
    1c92:	4e 75       	.word 0x4e75
    1c94:	1e 10       	mov.l	r1,@(0,r14)
    1c96:	02 47       	mul.l	r4,r2
    1c98:	00 07       	mul.l	r0,r0
    1c9a:	de 47       	mov.l	1db8 <_sddrv_129i+0x1db8>,r14	! 4efa00e2
    1c9c:	47 ee       	ldc	r7,r6_bank
    1c9e:	18 90       	mov.l	r9,@(0,r8)
    1ca0:	45 ee       	ldc	r5,r6_bank
    1ca2:	10 00       	mov.l	r0,@(0,r0)
    1ca4:	18 33       	mov.l	r3,@(12,r8)
    1ca6:	70 00       	add	#0,r0
    1ca8:	6a 0a       	negc	r0,r10
    1caa:	08 b3       	ocbwb	@r8
    1cac:	00 07       	mul.l	r0,r0
    1cae:	70 00       	add	#0,r0
    1cb0:	4e ba       	.word 0x4eba
    1cb2:	00 0e       	mov.l	@(r0,r0),r0
    1cb4:	18 33       	mov.l	r3,@(12,r8)
    1cb6:	70 01       	add	#1,r0
    1cb8:	6a 1a       	negc	r1,r10
    1cba:	08 b3       	ocbwb	@r8
    1cbc:	00 07       	mul.l	r0,r0
    1cbe:	70 01       	add	#1,r0
    1cc0:	02 44       	mov.b	r4,@(r0,r2)
    1cc2:	00 1f       	mac.l	@r1+,@r0+
    1cc4:	ed 4c       	mov	#76,r13
    1cc6:	15 bc       	mov.l	r11,@(48,r5)
    1cc8:	00 00       	.word 0x0000
    1cca:	40 34       	.word 0x4034
    1ccc:	e2 4c       	mov	#76,r2
    1cce:	1b bc       	mov.l	r11,@(48,r11)
    1cd0:	00 10       	.word 0x0010
    1cd2:	40 00       	shll	r0
    1cd4:	4e 75       	.word 0x4e75
    1cd6:	42 40       	.word 0x4240
    1cd8:	10 18       	mov.l	r1,@(32,r0)
    1cda:	0c 40       	.word 0x0c40
    1cdc:	00 12       	stc	gbr,r0
    1cde:	64 00       	mov.b	@r0,r4
    1ce0:	00 12       	stc	gbr,r0
    1ce2:	12 10       	mov.l	r1,@(0,r2)
    1ce4:	43 ee       	ldc	r3,r6_bank
    1ce6:	18 7e       	mov.l	r7,@(56,r8)
    1ce8:	13 81       	mov.l	r8,@(4,r3)
    1cea:	00 00       	.word 0x0000
    1cec:	eb 48       	mov	#72,r11
    1cee:	1b 81       	mov.l	r8,@(4,r11)
    1cf0:	00 17       	mul.l	r1,r0
    1cf2:	4e 75       	.word 0x4e75
    1cf4:	10 18       	mov.l	r1,@(32,r0)
    1cf6:	12 18       	mov.l	r1,@(32,r2)
    1cf8:	61 00       	mov.b	@r0,r1
    1cfa:	22 b6       	mov.l	r11,@-r2
    1cfc:	4e 75       	.word 0x4e75
    1cfe:	10 18       	mov.l	r1,@(32,r0)
    1d00:	12 18       	mov.l	r1,@(32,r2)
    1d02:	14 18       	mov.l	r1,@(32,r4)
    1d04:	16 18       	mov.l	r1,@(32,r6)
    1d06:	61 00       	mov.b	@r0,r1
    1d08:	22 f4       	mov.b	r15,@-r2
    1d0a:	4e 75       	.word 0x4e75
    1d0c:	61 00       	mov.b	@r0,r1
    1d0e:	32 6a       	subc	r6,r2
    1d10:	4e 75       	.word 0x4e75
    1d12:	40 e7       	ldc.l	@r0+,r6_bank
    1d14:	46 fc       	shad	r15,r6
    1d16:	27 00       	mov.b	r0,@r7
    1d18:	10 18       	mov.l	r1,@(32,r0)
    1d1a:	53 00       	mov.l	@(0,r0),r3
    1d1c:	66 1c       	extu.b	r1,r6
    1d1e:	48 e7       	ldc.l	@r8+,r6_bank
    1d20:	00 80       	.word 0x0080
    1d22:	48 e7       	ldc.l	@r8+,r6_bank
    1d24:	00 04       	mov.b	r0,@(r0,r0)
    1d26:	4e ba       	.word 0x4eba
    1d28:	25 54       	mov.b	r5,@-r5
    1d2a:	4c df       	mac.w	@r13+,@r12+
    1d2c:	20 00       	mov.b	r0,@r0
    1d2e:	4e ba       	.word 0x4eba
    1d30:	16 3e       	mov.l	r3,@(56,r6)
    1d32:	4e ba       	.word 0x4eba
    1d34:	16 2a       	mov.l	r2,@(40,r6)
    1d36:	4c df       	mac.w	@r13+,@r12+
    1d38:	01 00       	.word 0x0100
    1d3a:	10 18       	mov.l	r1,@(32,r0)
    1d3c:	53 00       	mov.l	@(0,r0),r3
    1d3e:	66 0e       	exts.b	r0,r6
    1d40:	72 07       	add	#7,r2
    1d42:	7e 00       	add	#0,r14
    1d44:	4e ba       	.word 0x4eba
    1d46:	ff 56       	fmov	@(r0,r5),fr15
    1d48:	54 47       	mov.l	@(28,r4),r4
    1d4a:	51 c9       	mov.l	@(36,r12),r1
    1d4c:	ff f8       	fmov	@r15,fr15
    1d4e:	10 18       	mov.l	r1,@(32,r0)
    1d50:	53 00       	mov.l	@(0,r0),r3
    1d52:	66 0a       	negc	r0,r6
    1d54:	70 00       	add	#0,r0
    1d56:	1b 40       	mov.l	r4,@(0,r11)
    1d58:	02 17       	mul.l	r1,r2
    1d5a:	1b 40       	mov.l	r4,@(0,r11)
    1d5c:	02 37       	mul.l	r3,r2
    1d5e:	10 18       	mov.l	r1,@(32,r0)
    1d60:	53 00       	mov.l	@(0,r0),r3
    1d62:	66 1c       	extu.b	r1,r6
    1d64:	4e ba       	.word 0x4eba
    1d66:	16 1c       	mov.l	r1,@(48,r6)
    1d68:	4e ba       	.word 0x4eba
    1d6a:	16 2c       	mov.l	r2,@(48,r6)
    1d6c:	4e ba       	.word 0x4eba
    1d6e:	16 4c       	mov.l	r4,@(48,r6)
    1d70:	4e ba       	.word 0x4eba
    1d72:	16 52       	mov.l	r5,@(8,r6)
    1d74:	4e ba       	.word 0x4eba
    1d76:	16 56       	mov.l	r5,@(24,r6)
    1d78:	4e ba       	.word 0x4eba
    1d7a:	16 5a       	mov.l	r5,@(40,r6)
    1d7c:	4e ba       	.word 0x4eba
    1d7e:	f7 86       	fmov	@(r0,r8),fr7
    1d80:	10 18       	mov.l	r1,@(32,r0)
    1d82:	53 00       	mov.l	@(0,r0),r3
    1d84:	66 04       	mov.b	@r0+,r6
    1d86:	4e ba       	.word 0x4eba
    1d88:	16 0e       	mov.l	r0,@(56,r6)
    1d8a:	46 df       	mac.w	@r13+,@r6+
    1d8c:	4e 75       	.word 0x4e75
    1d8e:	10 18       	mov.l	r1,@(32,r0)
    1d90:	0c 00       	.word 0x0c00
    1d92:	00 08       	clrt	
    1d94:	64 00       	mov.b	@r0,r4
    1d96:	f9 ec       	fmov	fr14,fr9
    1d98:	02 40       	.word 0x0240
    1d9a:	00 07       	mul.l	r0,r0
    1d9c:	d0 40       	mov.l	1ea0 <_sddrv_129i+0x1ea0>,r0	! 6004143c
    1d9e:	d0 40       	mov.l	1ea0 <_sddrv_129i+0x1ea0>,r0	! 6004143c
    1da0:	4e bb       	.word 0x4ebb
    1da2:	00 06       	mov.l	r0,@(r0,r0)
    1da4:	60 00       	mov.b	@r0,r0
    1da6:	f9 dc       	fmov	fr13,fr9
    1da8:	4e fa       	ldc	r14,dbr
    1daa:	00 1e       	mov.l	@(r0,r1),r0
    1dac:	4e fa       	ldc	r14,dbr
    1dae:	00 1e       	mov.l	@(r0,r1),r0
    1db0:	4e fa       	ldc	r14,dbr
    1db2:	00 84       	mov.b	r8,@(r0,r0)
    1db4:	4e fa       	ldc	r14,dbr
    1db6:	00 e0       	.word 0x00e0
    1db8:	4e fa       	ldc	r14,dbr
    1dba:	00 e2       	stc	r6_bank,r0
    1dbc:	4e fa       	ldc	r14,dbr
    1dbe:	00 e4       	mov.b	r14,@(r0,r0)
    1dc0:	4e fa       	ldc	r14,dbr
    1dc2:	f9 c0       	fadd	fr12,fr9
    1dc4:	4e fa       	ldc	r14,dbr
    1dc6:	f9 bc       	fmov	fr11,fr9
    1dc8:	7c 06       	add	#6,r12
    1dca:	60 02       	mov.l	@r0,r0
    1dcc:	7c 0e       	add	#14,r12
    1dce:	40 e7       	ldc.l	@r0+,r6_bank
    1dd0:	46 fc       	shad	r15,r6
    1dd2:	27 00       	mov.b	r0,@r7
    1dd4:	4b f9       	.word 0x4bf9
    1dd6:	00 10       	.word 0x0010
    1dd8:	00 00       	.word 0x0000
    1dda:	41 ed       	shld	r14,r1
    1ddc:	07 00       	.word 0x0700
    1dde:	3e 3c       	add	r3,r14
    1de0:	01 3f       	mac.l	@r3+,@r1+
    1de2:	70 00       	add	#0,r0
    1de4:	20 c0       	mov.b	r12,@r0
    1de6:	51 cf       	mov.l	@(60,r12),r1
    1de8:	ff fc       	fmov	fr15,fr15
    1dea:	36 3c       	add	r3,r6
    1dec:	7f ff       	add	#-1,r15
    1dee:	41 f9       	.word 0x41f9
    1df0:	00 01       	.word 0x0001
    1df2:	00 00       	.word 0x0000
    1df4:	4e ba       	.word 0x4eba
    1df6:	00 12       	stc	gbr,r0
    1df8:	65 06       	mov.l	@r0+,r5
    1dfa:	51 ce       	mov.l	@(56,r12),r1
    1dfc:	ff f8       	fmov	@r15,fr15
    1dfe:	52 43       	mov.l	@(12,r4),r2
    1e00:	31 c3       	cmp/ge	r12,r1
    1e02:	04 18       	.word 0x0418
    1e04:	46 df       	mac.w	@r13+,@r6+
    1e06:	4e 75       	.word 0x4e75
    1e08:	22 3c       	cmp/str	r3,r2
    1e0a:	55 55       	mov.l	@(20,r5),r5
    1e0c:	55 55       	mov.l	@(20,r5),r5
    1e0e:	24 3c       	cmp/str	r3,r4
    1e10:	aa aa       	bra	1368 <_sddrv_129i+0x1368>
    1e12:	aa aa       	bra	136a <_sddrv_129i+0x136a>
    1e14:	3e 3c       	add	r3,r14
    1e16:	3f ff       	addv	r15,r15
    1e18:	20 10       	mov.b	r1,@r0
    1e1a:	20 81       	mov.w	r8,@r0
    1e1c:	b2 90       	bsr	2340 <_sddrv_129i+0x2340>
    1e1e:	66 10       	mov.b	@r1,r6
    1e20:	20 82       	mov.l	r8,@r0
    1e22:	b4 90       	bsr	2746 <_sddrv_129i+0x2746>
    1e24:	66 0a       	negc	r0,r6
    1e26:	20 c0       	mov.b	r12,@r0
    1e28:	51 cf       	mov.l	@(60,r12),r1
    1e2a:	ff ee       	fmac	fr0,fr14,fr15
    1e2c:	80 40       	mov.b	r0,@(0,r4)
    1e2e:	4e 75       	.word 0x4e75
    1e30:	00 3c       	mov.b	@(r0,r3),r0
    1e32:	00 01       	.word 0x0001
    1e34:	4e 75       	.word 0x4e75
    1e36:	4b f9       	.word 0x4bf9
    1e38:	00 10       	.word 0x0010
    1e3a:	00 00       	.word 0x0000
    1e3c:	36 3c       	add	r3,r6
    1e3e:	7f ff       	add	#-1,r15
    1e40:	10 2d       	mov.l	r2,@(52,r0)
    1e42:	04 05       	mov.w	r0,@(r0,r4)
    1e44:	10 2d       	mov.l	r2,@(52,r0)
    1e46:	04 05       	mov.w	r0,@(r0,r4)
    1e48:	10 2d       	mov.l	r2,@(52,r0)
    1e4a:	04 05       	mov.w	r0,@(r0,r4)
    1e4c:	10 2d       	mov.l	r2,@(52,r0)
    1e4e:	04 05       	mov.w	r0,@(r0,r4)
    1e50:	10 3c       	mov.l	r3,@(48,r0)
    1e52:	00 55       	mov.w	r5,@(r0,r0)
    1e54:	4e ba       	.word 0x4eba
    1e56:	00 16       	mov.l	r1,@(r0,r0)
    1e58:	65 0c       	extu.b	r0,r5
    1e5a:	10 3c       	mov.l	r3,@(48,r0)
    1e5c:	00 aa       	.word 0x00aa
    1e5e:	4e ba       	.word 0x4eba
    1e60:	00 0c       	mov.b	@(r0,r0),r0
    1e62:	65 02       	mov.l	@r0,r5
    1e64:	52 43       	mov.l	@(12,r4),r2
    1e66:	31 c3       	cmp/ge	r12,r1
    1e68:	04 18       	.word 0x0418
    1e6a:	4e 75       	.word 0x4e75
    1e6c:	1b 40       	mov.l	r4,@(0,r11)
    1e6e:	04 07       	mul.l	r0,r4
    1e70:	3e 3c       	add	r3,r14
    1e72:	00 80       	.word 0x0080
    1e74:	32 2d       	dmuls.l	r2,r2
    1e76:	04 20       	.word 0x0420
    1e78:	02 01       	.word 0x0201
    1e7a:	00 08       	clrt	
    1e7c:	66 06       	mov.l	@r0+,r6
    1e7e:	51 cf       	mov.l	@(60,r12),r1
    1e80:	ff f4       	fcmp/eq	fr15,fr15
    1e82:	60 0c       	extu.b	r0,r0
    1e84:	12 2d       	mov.l	r2,@(52,r2)
    1e86:	04 05       	mov.w	r0,@(r0,r4)
    1e88:	b2 00       	bsr	228c <_sddrv_129i+0x228c>
    1e8a:	66 04       	mov.b	@r0+,r6
    1e8c:	80 40       	mov.b	r0,@(0,r4)
    1e8e:	4e 75       	.word 0x4e75
    1e90:	00 3c       	mov.b	@(r0,r3),r0
    1e92:	00 01       	.word 0x0001
    1e94:	4e 75       	.word 0x4e75
    1e96:	14 3c       	mov.l	r3,@(48,r4)
    1e98:	00 e0       	.word 0x00e0
    1e9a:	60 0a       	negc	r0,r0
    1e9c:	14 3c       	mov.l	r3,@(48,r4)
    1e9e:	00 ff       	mac.l	@r15+,@r0+
    1ea0:	60 04       	mov.b	@r0+,r0
    1ea2:	14 3c       	mov.l	r3,@(48,r4)
    1ea4:	00 ef       	mac.l	@r14+,@r0+
    1ea6:	41 f9       	.word 0x41f9
    1ea8:	00 00       	.word 0x0000
    1eaa:	1e da       	mov.l	r13,@(40,r14)
    1eac:	22 4d       	xtrct	r4,r2
    1eae:	22 d8       	tst	r13,r2
    1eb0:	22 d8       	tst	r13,r2
    1eb2:	22 d8       	tst	r13,r2
    1eb4:	22 d8       	tst	r13,r2
    1eb6:	22 d8       	tst	r13,r2
    1eb8:	22 d8       	tst	r13,r2
    1eba:	1b 42       	mov.l	r4,@(8,r11)
    1ebc:	00 16       	mov.l	r1,@(r0,r0)
    1ebe:	1a bc       	mov.l	r11,@(48,r10)
    1ec0:	00 18       	sett	
    1ec2:	3e 3c       	add	r3,r14
    1ec4:	20 00       	mov.b	r0,@r0
    1ec6:	3c 3c       	add	r3,r12
    1ec8:	00 10       	.word 0x0010
    1eca:	e1 88       	mov	#-120,r1
    1ecc:	51 ce       	mov.l	@(56,r12),r1
    1ece:	ff fc       	fmov	fr15,fr15
    1ed0:	51 cf       	mov.l	@(60,r12),r1
    1ed2:	ff f4       	fcmp/eq	fr15,fr15
    1ed4:	1a bc       	mov.l	r11,@(48,r10)
    1ed6:	00 10       	.word 0x0010
    1ed8:	4e 75       	.word 0x4e75
    1eda:	10 20       	mov.l	r2,@(0,r0)
    1edc:	1e f2       	mov.l	r15,@(8,r14)
    1ede:	00 00       	.word 0x0000
    1ee0:	00 0f       	mac.l	@r0+,@r0+
    1ee2:	00 1f       	mac.l	@r1+,@r0+
    1ee4:	00 1f       	mac.l	@r1+,@r0+
    1ee6:	00 00       	.word 0x0000
    1ee8:	00 00       	.word 0x0000
    1eea:	70 00       	add	#0,r0
    1eec:	00 00       	.word 0x0000
    1eee:	00 00       	.word 0x0000
    1ef0:	e0 00       	mov	#0,r0
    1ef2:	c0 00       	mov.b	r0,@(0,gbr)
    1ef4:	c0 00       	mov.b	r0,@(0,gbr)
    1ef6:	c0 00       	mov.b	r0,@(0,gbr)
    1ef8:	c0 00       	mov.b	r0,@(0,gbr)
    1efa:	c0 00       	mov.b	r0,@(0,gbr)
    1efc:	c0 00       	mov.b	r0,@(0,gbr)
    1efe:	c0 00       	mov.b	r0,@(0,gbr)
    1f00:	c0 00       	mov.b	r0,@(0,gbr)
    1f02:	40 00       	shll	r0
    1f04:	40 00       	shll	r0
    1f06:	40 00       	shll	r0
    1f08:	40 00       	shll	r0
    1f0a:	40 00       	shll	r0
    1f0c:	40 00       	shll	r0
    1f0e:	40 00       	shll	r0
    1f10:	40 00       	shll	r0
    1f12:	45 f8       	.word 0x45f8
    1f14:	05 00       	.word 0x0500
    1f16:	7a 1f       	add	#31,r10
    1f18:	18 12       	mov.l	r1,@(8,r8)
    1f1a:	6b 1c       	extu.b	r1,r11
    1f1c:	1c 04       	mov.l	r0,@(16,r12)
    1f1e:	02 04       	mov.b	r0,@(r0,r2)
    1f20:	00 70       	.word 0x0070
    1f22:	0c 04       	mov.b	r0,@(r0,r12)
    1f24:	00 10       	.word 0x0010
    1f26:	66 08       	swap.b	r0,r6
    1f28:	02 06       	mov.l	r0,@(r0,r2)
    1f2a:	00 0f       	mac.l	@r0+,@r0+
    1f2c:	b4 06       	bsr	273c <_sddrv_129i+0x273c>
    1f2e:	67 2c       	extu.b	r2,r7
    1f30:	45 ea       	.word 0x45ea
    1f32:	00 08       	clrt	
    1f34:	51 cd       	mov.l	@(52,r12),r1
    1f36:	ff e2       	fmul	fr14,fr15
    1f38:	08 f8       	.word 0x08f8
    1f3a:	00 06       	mov.l	r0,@(r0,r0)
    1f3c:	04 23       	braf	r4
    1f3e:	00 3c       	mov.b	@(r0,r3),r0
    1f40:	00 01       	.word 0x0001
    1f42:	4e 75       	.word 0x4e75
    1f44:	08 f8       	.word 0x08f8
    1f46:	00 07       	mul.l	r0,r0
    1f48:	04 23       	braf	r4
    1f4a:	00 3c       	mov.b	@(r0,r3),r0
    1f4c:	00 01       	.word 0x0001
    1f4e:	4e 75       	.word 0x4e75
    1f50:	08 f8       	.word 0x08f8
    1f52:	00 00       	.word 0x0000
    1f54:	04 22       	stc	vbr,r4
    1f56:	00 3c       	mov.b	@(r0,r3),r0
    1f58:	00 01       	.word 0x0001
    1f5a:	4e 75       	.word 0x4e75
    1f5c:	08 b8       	.word 0x08b8
    1f5e:	00 06       	mov.l	r0,@(r0,r0)
    1f60:	04 23       	braf	r4
    1f62:	24 1a       	xor	r1,r4
    1f64:	18 1a       	mov.l	r1,@(40,r8)
    1f66:	6a e8       	swap.b	r14,r10
    1f68:	08 b8       	.word 0x08b8
    1f6a:	00 00       	.word 0x0000
    1f6c:	04 22       	stc	vbr,r4
    1f6e:	02 82       	stc	r0_bank,r2
    1f70:	00 0f       	mac.l	@r0+,@r0+
    1f72:	ff ff       	.word 0xffff
    1f74:	24 42       	mov.l	r4,@r4
    1f76:	02 43       	.word 0x0243
    1f78:	00 ff       	mac.l	@r15+,@r0+
    1f7a:	b6 52       	bsr	2c22 <_sddrv_129i+0x2c22>
    1f7c:	64 c6       	mov.l	@r12+,r4
    1f7e:	08 b8       	.word 0x08b8
    1f80:	00 07       	mul.l	r0,r0
    1f82:	04 23       	braf	r4
    1f84:	d6 43       	mov.l	2094 <_sddrv_129i+0x2094>,r6	! 241000f
    1f86:	d6 43       	mov.l	2094 <_sddrv_129i+0x2094>,r6	! 241000f
    1f88:	d5 f2       	mov.l	2354 <_sddrv_129i+0x2354>,r5	! 5f64efa
    1f8a:	30 02       	cmp/hs	r0,r0
    1f8c:	80 40       	mov.b	r0,@(0,r4)
    1f8e:	4e 75       	.word 0x4e75
    1f90:	53 47       	mov.l	@(28,r4),r3
    1f92:	20 6e       	mulu.w	r6,r0
    1f94:	18 04       	mov.l	r0,@(16,r8)
    1f96:	45 ee       	ldc	r5,r6_bank
    1f98:	1e 00       	mov.l	r0,@(0,r14)
    1f9a:	10 2a       	mov.l	r2,@(40,r0)
    1f9c:	00 00       	.word 0x0000
    1f9e:	02 40       	.word 0x0240
    1fa0:	00 0c       	mov.b	@(r0,r0),r0
    1fa2:	4e fb       	.word 0x4efb
    1fa4:	00 02       	stc	sr,r0
    1fa6:	60 00       	mov.b	@r0,r0
    1fa8:	01 00       	.word 0x0100
    1faa:	60 00       	mov.b	@r0,r0
    1fac:	00 fc       	mov.b	@(r0,r15),r0
    1fae:	60 00       	mov.b	@r0,r0
    1fb0:	00 c8       	.word 0x00c8
    1fb2:	22 6a       	xor	r6,r2
    1fb4:	00 08       	clrt	
    1fb6:	16 2a       	mov.l	r2,@(40,r6)
    1fb8:	00 06       	mov.l	r0,@(r0,r0)
    1fba:	02 43       	.word 0x0243
    1fbc:	00 07       	mul.l	r0,r0
    1fbe:	d6 43       	mov.l	20cc <_sddrv_129i+0x20cc>,r6	! 84a48584
    1fc0:	30 03       	cmp/ge	r0,r0
    1fc2:	d0 40       	mov.l	20c4 <_sddrv_129i+0x20c4>,r0	! 81e38277
    1fc4:	4e fb       	.word 0x4efb
    1fc6:	00 02       	stc	sr,r0
    1fc8:	60 00       	mov.b	@r0,r0
    1fca:	00 1e       	mov.l	@(r0,r1),r0
    1fcc:	60 00       	mov.b	@r0,r0
    1fce:	00 40       	.word 0x0040
    1fd0:	60 00       	mov.b	@r0,r0
    1fd2:	00 76       	mov.l	r7,@(r0,r0)
    1fd4:	60 00       	mov.b	@r0,r0
    1fd6:	00 72       	stc	r7_bank,r0
    1fd8:	60 00       	mov.b	@r0,r0
    1fda:	00 6e       	mov.l	@(r0,r6),r0
    1fdc:	60 00       	mov.b	@r0,r0
    1fde:	00 98       	.word 0x0098
    1fe0:	60 00       	mov.b	@r0,r0
    1fe2:	00 64       	mov.b	r6,@(r0,r0)
    1fe4:	60 00       	mov.b	@r0,r0
    1fe6:	00 90       	.word 0x0090
    1fe8:	10 29       	mov.l	r2,@(36,r0)
    1fea:	00 07       	mul.l	r0,r0
    1fec:	e1 48       	mov	#72,r1
    1fee:	30 80       	cmp/eq	r8,r0
    1ff0:	06 40       	.word 0x0640
    1ff2:	80 00       	mov.b	r0,@(0,r0)
    1ff4:	35 40       	cmp/eq	r4,r5
    1ff6:	00 02       	stc	sr,r0
    1ff8:	10 29       	mov.l	r2,@(36,r0)
    1ffa:	00 06       	mov.l	r0,@(r0,r0)
    1ffc:	4e ba       	.word 0x4eba
    1ffe:	1b 14       	mov.l	r1,@(16,r11)
    2000:	e4 48       	mov	#72,r4
    2002:	35 40       	cmp/eq	r4,r5
    2004:	00 0c       	mov.b	@(r0,r0),r0
    2006:	52 2a       	mov.l	@(40,r2),r2
    2008:	00 06       	mov.l	r0,@(r0,r0)
    200a:	60 00       	mov.b	@r0,r0
    200c:	00 9c       	mov.b	@(r0,r9),r0
    200e:	51 6a       	mov.l	@(40,r6),r1
    2010:	00 0c       	mov.b	@(r0,r0),r0
    2012:	64 00       	mov.b	@r0,r4
    2014:	00 94       	mov.b	r9,@(r0,r0)
    2016:	38 2a       	subc	r2,r8
    2018:	00 02       	stc	sr,r0
    201a:	35 44       	div1	r4,r5
    201c:	00 02       	stc	sr,r0
    201e:	04 44       	mov.b	r4,@(r0,r4)
    2020:	80 00       	mov.b	r0,@(0,r0)
    2022:	30 84       	div1	r8,r0
    2024:	10 31       	mov.l	r3,@(4,r0)
    2026:	30 06       	cmp/hi	r0,r0
    2028:	4e ba       	.word 0x4eba
    202a:	1a ee       	mov.l	r14,@(56,r10)
    202c:	35 40       	cmp/eq	r4,r5
    202e:	00 04       	mov.b	r0,@(r0,r0)
    2030:	10 31       	mov.l	r3,@(4,r0)
    2032:	30 07       	cmp/gt	r0,r0
    2034:	e1 48       	mov	#72,r1
    2036:	06 40       	.word 0x0640
    2038:	80 00       	mov.b	r0,@(0,r0)
    203a:	35 40       	cmp/eq	r4,r5
    203c:	00 0e       	mov.l	@(r0,r0),r0
    203e:	52 2a       	mov.l	@(40,r2),r2
    2040:	00 06       	mov.l	r0,@(r0,r0)
    2042:	60 00       	mov.b	@r0,r0
    2044:	00 64       	mov.b	r6,@(r0,r0)
    2046:	4e 71       	.word 0x4e71
    2048:	38 2a       	subc	r2,r8
    204a:	00 0e       	mov.l	@(r0,r0),r0
    204c:	32 2a       	subc	r2,r2
    204e:	00 02       	stc	sr,r0
    2050:	30 2a       	subc	r2,r0
    2052:	00 04       	mov.b	r0,@(r0,r0)
    2054:	6b 0a       	negc	r0,r11
    2056:	d2 40       	mov.l	2158 <_sddrv_129i+0x2158>,r2	! 33df36ba
    2058:	65 c0       	mov.b	@r12,r5
    205a:	b8 41       	bsr	10e0 <_sddrv_129i+0x10e0>
    205c:	63 bc       	extu.b	r11,r3
    205e:	60 0a       	negc	r0,r0
    2060:	44 40       	.word 0x4440
    2062:	92 40       	mov.w	20e6 <_sddrv_129i+0x20e6>,r2	! 9593
    2064:	65 b4       	mov.b	@r11+,r5
    2066:	b8 41       	bsr	10ec <_sddrv_129i+0x10ec>
    2068:	64 b0       	mov.b	@r11,r4
    206a:	35 41       	.word 0x3541
    206c:	00 02       	stc	sr,r0
    206e:	04 41       	.word 0x0441
    2070:	80 00       	mov.b	r0,@(0,r0)
    2072:	30 81       	.word 0x3081
    2074:	60 32       	mov.l	@r3,r0
    2076:	60 30       	mov.b	@r3,r0
    2078:	70 00       	add	#0,r0
    207a:	30 2a       	subc	r2,r0
    207c:	00 02       	stc	sr,r0
    207e:	d0 6a       	mov.l	2228 <_sddrv_129i+0x2228>,r0	! 15e212c8
    2080:	00 04       	mov.b	r0,@(r0,r0)
    2082:	35 40       	cmp/eq	r4,r5
    2084:	00 02       	stc	sr,r0
    2086:	02 40       	.word 0x0240
    2088:	ff 00       	fadd	fr0,fr15
    208a:	ee 48       	mov	#72,r14
    208c:	30 3b       	subv	r3,r0
    208e:	00 28       	clrmac	
    2090:	12 2a       	mov.l	r2,@(40,r2)
    2092:	00 01       	.word 0x0001
    2094:	02 41       	.word 0x0241
    2096:	00 0f       	mac.l	@r0+,@r0+
    2098:	67 0c       	extu.b	r0,r7
    209a:	0c 41       	.word 0x0c41
    209c:	00 0f       	mac.l	@r0+,@r0+
    209e:	67 04       	mov.b	@r0+,r7
    20a0:	e2 68       	mov	#104,r2
    20a2:	60 02       	mov.l	@r0,r0
    20a4:	42 40       	.word 0x4240
    20a6:	30 80       	cmp/eq	r8,r0
    20a8:	45 ea       	.word 0x45ea
    20aa:	00 10       	.word 0x0010
    20ac:	41 e8       	.word 0x41e8
    20ae:	00 02       	stc	sr,r0
    20b0:	51 cf       	mov.l	@(60,r12),r1
    20b2:	fe e8       	fmov	@r14,fr14
    20b4:	4e 75       	.word 0x4e75
    20b6:	80 01       	mov.b	r0,@(1,r0)
    20b8:	80 0b       	mov.b	r0,@(11,r0)
    20ba:	80 28       	mov.b	r0,@(8,r2)
    20bc:	80 5a       	mov.b	r0,@(10,r5)
    20be:	80 9f       	mov.b	r0,@(15,r9)
    20c0:	80 f7       	mov.b	r0,@(7,r15)
    20c2:	81 64       	mov.w	r0,@(8,r6)
    20c4:	81 e3       	mov.w	r0,@(6,r14)
    20c6:	82 77       	.word 0x8277
    20c8:	83 1d       	.word 0x831d
    20ca:	83 d7       	.word 0x83d7
    20cc:	84 a4       	mov.b	@(4,r10),r0
    20ce:	85 84       	mov.w	@(8,r8),r0
    20d0:	86 77       	.word 0x8677
    20d2:	87 7c       	.word 0x877c
    20d4:	88 95       	cmp/eq	#-107,r0
    20d6:	89 bf       	bt	2058 <_sddrv_129i+0x2058>
    20d8:	8a fc       	.word 0x8afc
    20da:	8c 4b       	.word 0x8c4b
    20dc:	8d ac       	bt.s	2038 <_sddrv_129i+0x2038>
    20de:	8f 1e       	bf.s	211e <_sddrv_129i+0x211e>
    20e0:	90 a2       	mov.w	2228 <_sddrv_129i+0x2228>,r0	! 15e2
    20e2:	92 0a       	mov.w	20fa <_sddrv_129i+0x20fa>,r2	! aa0b
    20e4:	93 dd       	mov.w	22a2 <_sddrv_129i+0x22a2>,r3	! 83d7
    20e6:	95 93       	mov.w	2210 <_sddrv_129i+0x2210>,r5	! 398c
    20e8:	97 5a       	mov.w	21a0 <_sddrv_129i+0x21a0>,r7	! 7b5c
    20ea:	99 31       	mov.w	2150 <_sddrv_129i+0x2150>,r9	! 2826
    20ec:	9b 18       	mov.w	2120 <_sddrv_129i+0x2120>,r11	! dddd
    20ee:	9d 0f       	mov.w	2110 <_sddrv_129i+0x2110>,r13	! c674
    20f0:	9f 15       	mov.w	211e <_sddrv_129i+0x211e>,r15	! dad8
    20f2:	a1 29       	bra	2348 <_sddrv_129i+0x2348>
    20f4:	a3 4d       	bra	2792 <_sddrv_129i+0x2792>
    20f6:	a5 7e       	bra	2bf6 <_sddrv_129i+0x2bf6>
    20f8:	a7 be       	bra	3078 <_sddrv_129i+0x3078>
    20fa:	aa 0b       	bra	1514 <_sddrv_129i+0x1514>
    20fc:	ac 65       	bra	19ca <_sddrv_129i+0x19ca>
    20fe:	ae cd       	bra	1e9c <_sddrv_129i+0x1e9c>
    2100:	b1 41       	bsr	2386 <_sddrv_129i+0x2386>
    2102:	b3 c1       	bsr	2888 <_sddrv_129i+0x2888>
    2104:	b6 4c       	bsr	2da0 <_sddrv_129i+0x2da0>
    2106:	b8 e4       	bsr	12d2 <_sddrv_129i+0x12d2>
    2108:	bb 86       	bsr	1818 <_sddrv_129i+0x1818>
    210a:	be 32       	bsr	1d72 <_sddrv_129i+0x1d72>
    210c:	c0 e9       	mov.b	r0,@(233,gbr)
    210e:	c3 aa       	trapa	#-86
    2110:	c6 74       	mov.l	@(464,gbr),r0
    2112:	c9 46       	and	#70,r0
    2114:	cc 21       	tst.b	#33,@(r0,gbr)
    2116:	cf 05       	or.b	#5,@(r0,gbr)
    2118:	d1 ef       	mov.l	24d8 <_sddrv_129i+0x24d8>,r1	! 964efa
    211a:	d4 e1       	mov.l	24a0 <_sddrv_129i+0x24a0>,r4	! ce4efb
    211c:	d7 da       	mov.l	2488 <_sddrv_129i+0x2488>,r7	! e64efa
    211e:	da d8       	mov.l	2480 <_sddrv_129i+0x2480>,r10	! ee4efa
    2120:	dd dd       	mov.l	2498 <_sddrv_129i+0x2498>,r13	! d64efa
    2122:	e0 e6       	mov	#-26,r0
    2124:	e3 f5       	mov	#-11,r3
    2126:	e7 07       	mov	#7,r7
    2128:	ea 1e       	mov	#30,r10
    212a:	ed 38       	mov	#56,r13
    212c:	f0 55       	fcmp/gt	fr5,fr0
    212e:	f3 74       	fcmp/eq	fr7,fr3
    2130:	f6 96       	fmov	@(r0,r9),fr6
    2132:	f9 b8       	fmov	@r11,fr9
    2134:	fc dc       	fmov	fr13,fr12
    2136:	00 00       	.word 0x0000
    2138:	03 24       	mov.b	r2,@(r0,r3)
    213a:	06 48       	.word 0x0648
    213c:	09 6a       	sts	fpscr,r9
    213e:	0c 8c       	mov.b	@(r0,r8),r12
    2140:	0f ab       	.word 0x0fab
    2142:	12 c8       	mov.l	r12,@(32,r2)
    2144:	15 e2       	mov.l	r14,@(8,r5)
    2146:	18 f9       	mov.l	r15,@(36,r8)
    2148:	1c 0b       	mov.l	r0,@(44,r12)
    214a:	1f 1a       	mov.l	r1,@(40,r15)
    214c:	22 23       	.word 0x2223
    214e:	25 28       	tst	r2,r5
    2150:	28 26       	mov.l	r2,@-r8
    2152:	2b 1f       	muls.w	r1,r11
    2154:	2e 11       	mov.w	r1,@r14
    2156:	30 fb       	subv	r15,r0
    2158:	33 df       	addv	r13,r3
    215a:	36 ba       	subc	r11,r6
    215c:	39 8c       	add	r8,r9
    215e:	3c 56       	cmp/hi	r5,r12
    2160:	3f 17       	cmp/gt	r1,r15
    2162:	41 ce       	ldc	r1,r4_bank
    2164:	44 7a       	.word 0x447a
    2166:	47 1c       	shad	r1,r7
    2168:	49 b4       	.word 0x49b4
    216a:	4c 3f       	mac.w	@r3+,@r12+
    216c:	4e bf       	mac.w	@r11+,@r14+
    216e:	51 33       	mov.l	@(12,r3),r1
    2170:	53 9b       	mov.l	@(44,r9),r3
    2172:	55 f5       	mov.l	@(20,r15),r5
    2174:	58 42       	mov.l	@(8,r4),r8
    2176:	5a 82       	mov.l	@(8,r8),r10
    2178:	5c b3       	mov.l	@(12,r11),r12
    217a:	5e d7       	mov.l	@(28,r13),r14
    217c:	60 eb       	neg	r14,r0
    217e:	62 f1       	mov.w	@r15,r2
    2180:	64 e8       	swap.b	r14,r4
    2182:	66 cf       	exts.w	r12,r6
    2184:	68 a6       	mov.l	@r10+,r8
    2186:	6a 6d       	extu.w	r6,r10
    2188:	6c 23       	mov	r2,r12
    218a:	6d f6       	mov.l	@r15+,r13
    218c:	6f 5e       	exts.b	r5,r15
    218e:	70 e2       	add	#-30,r0
    2190:	72 54       	add	#84,r2
    2192:	73 b5       	add	#-75,r3
    2194:	75 04       	add	#4,r5
    2196:	76 41       	add	#65,r6
    2198:	77 6b       	add	#107,r7
    219a:	78 84       	add	#-124,r8
    219c:	79 89       	add	#-119,r9
    219e:	7a 7c       	add	#124,r10
    21a0:	7b 5c       	add	#92,r11
    21a2:	7c 29       	add	#41,r12
    21a4:	7c e3       	add	#-29,r12
    21a6:	7d 89       	add	#-119,r13
    21a8:	7e 1d       	add	#29,r14
    21aa:	7e 9c       	add	#-100,r14
    21ac:	7f 09       	add	#9,r15
    21ae:	7f 61       	add	#97,r15
    21b0:	7f a6       	add	#-90,r15
    21b2:	7f d8       	add	#-40,r15
    21b4:	7f f5       	add	#-11,r15
    21b6:	7f ff       	add	#-1,r15
    21b8:	7f f5       	add	#-11,r15
    21ba:	7f d8       	add	#-40,r15
    21bc:	7f a6       	add	#-90,r15
    21be:	7f 61       	add	#97,r15
    21c0:	7f 09       	add	#9,r15
    21c2:	7e 9c       	add	#-100,r14
    21c4:	7e 1d       	add	#29,r14
    21c6:	7d 89       	add	#-119,r13
    21c8:	7c e3       	add	#-29,r12
    21ca:	7c 29       	add	#41,r12
    21cc:	7b 5c       	add	#92,r11
    21ce:	7a 7c       	add	#124,r10
    21d0:	79 89       	add	#-119,r9
    21d2:	78 84       	add	#-124,r8
    21d4:	77 6b       	add	#107,r7
    21d6:	76 41       	add	#65,r6
    21d8:	75 04       	add	#4,r5
    21da:	73 b5       	add	#-75,r3
    21dc:	72 54       	add	#84,r2
    21de:	70 e2       	add	#-30,r0
    21e0:	6f 5e       	exts.b	r5,r15
    21e2:	6d f6       	mov.l	@r15+,r13
    21e4:	6c 23       	mov	r2,r12
    21e6:	6a 6d       	extu.w	r6,r10
    21e8:	68 a6       	mov.l	@r10+,r8
    21ea:	66 cf       	exts.w	r12,r6
    21ec:	64 e8       	swap.b	r14,r4
    21ee:	62 f1       	mov.w	@r15,r2
    21f0:	60 eb       	neg	r14,r0
    21f2:	5e d7       	mov.l	@(28,r13),r14
    21f4:	5c b3       	mov.l	@(12,r11),r12
    21f6:	5a 82       	mov.l	@(8,r8),r10
    21f8:	58 42       	mov.l	@(8,r4),r8
    21fa:	55 f5       	mov.l	@(20,r15),r5
    21fc:	53 9b       	mov.l	@(44,r9),r3
    21fe:	51 33       	mov.l	@(12,r3),r1
    2200:	4e bf       	mac.w	@r11+,@r14+
    2202:	4c 3f       	mac.w	@r3+,@r12+
    2204:	49 b4       	.word 0x49b4
    2206:	47 1c       	shad	r1,r7
    2208:	44 7a       	.word 0x447a
    220a:	41 ce       	ldc	r1,r4_bank
    220c:	3f 17       	cmp/gt	r1,r15
    220e:	3c 56       	cmp/hi	r5,r12
    2210:	39 8c       	add	r8,r9
    2212:	36 ba       	subc	r11,r6
    2214:	33 df       	addv	r13,r3
    2216:	30 fb       	subv	r15,r0
    2218:	2e 11       	mov.w	r1,@r14
    221a:	2b 1f       	muls.w	r1,r11
    221c:	28 26       	mov.l	r2,@-r8
    221e:	25 28       	tst	r2,r5
    2220:	22 23       	.word 0x2223
    2222:	1f 1a       	mov.l	r1,@(40,r15)
    2224:	1c 0b       	mov.l	r0,@(44,r12)
    2226:	18 f9       	mov.l	r15,@(36,r8)
    2228:	15 e2       	mov.l	r14,@(8,r5)
    222a:	12 c8       	mov.l	r12,@(32,r2)
    222c:	0f ab       	.word 0x0fab
    222e:	0c 8c       	mov.b	@(r0,r8),r12
    2230:	09 6a       	sts	fpscr,r9
    2232:	06 48       	.word 0x0648
    2234:	03 24       	mov.b	r2,@(r0,r3)
    2236:	00 00       	.word 0x0000
    2238:	fc dc       	fmov	fr13,fr12
    223a:	f9 b8       	fmov	@r11,fr9
    223c:	f6 96       	fmov	@(r0,r9),fr6
    223e:	f3 74       	fcmp/eq	fr7,fr3
    2240:	f0 55       	fcmp/gt	fr5,fr0
    2242:	ed 38       	mov	#56,r13
    2244:	ea 1e       	mov	#30,r10
    2246:	e7 07       	mov	#7,r7
    2248:	e3 f5       	mov	#-11,r3
    224a:	e0 e6       	mov	#-26,r0
    224c:	dd dd       	mov.l	25c4 <_sddrv_129i+0x25c4>,r13	! 34010642
    224e:	da d8       	mov.l	25b0 <_sddrv_129i+0x25b0>,r10	! 1b831017
    2250:	d7 da       	mov.l	25bc <_sddrv_129i+0x25bc>,r7	! 220203
    2252:	d4 e1       	mov.l	25d8 <_sddrv_129i+0x25d8>,r4	! eb491b83
    2254:	d1 ef       	mov.l	2614 <_sddrv_129i+0x2614>,r1	! 4051cf
    2256:	cf 05       	or.b	#5,@(r0,gbr)
    2258:	cc 21       	tst.b	#33,@(r0,gbr)
    225a:	c9 46       	and	#70,r0
    225c:	c6 74       	mov.l	@(464,gbr),r0
    225e:	c3 aa       	trapa	#-86
    2260:	c0 e9       	mov.b	r0,@(233,gbr)
    2262:	be 32       	bsr	1eca <_sddrv_129i+0x1eca>
    2264:	bb 86       	bsr	1974 <_sddrv_129i+0x1974>
    2266:	b8 e4       	bsr	1432 <_sddrv_129i+0x1432>
    2268:	b6 4c       	bsr	2f04 <_sddrv_129i+0x2f04>
    226a:	b3 c1       	bsr	29f0 <_sddrv_129i+0x29f0>
    226c:	b1 41       	bsr	24f2 <_sddrv_129i+0x24f2>
    226e:	ae cd       	bra	200c <_sddrv_129i+0x200c>
    2270:	ac 65       	bra	1b3e <_sddrv_129i+0x1b3e>
    2272:	aa 0b       	bra	168c <_sddrv_129i+0x168c>
    2274:	a7 be       	bra	31f4 <_sddrv_129i+0x31f4>
    2276:	a5 7e       	bra	2d76 <_sddrv_129i+0x2d76>
    2278:	a3 4d       	bra	2916 <_sddrv_129i+0x2916>
    227a:	a1 29       	bra	24d0 <_sddrv_129i+0x24d0>
    227c:	9f 15       	mov.w	22aa <_sddrv_129i+0x22aa>,r15	! 8164
    227e:	9d 0f       	mov.w	22a0 <_sddrv_129i+0x22a0>,r13	! 84a4
    2280:	9b 18       	mov.w	22b4 <_sddrv_129i+0x22b4>,r11	! 800b
    2282:	99 31       	mov.w	22e8 <_sddrv_129i+0x22e8>,r9	! 201
    2284:	97 5a       	mov.w	233c <_sddrv_129i+0x233c>,r7	! d42
    2286:	95 93       	mov.w	23b0 <_sddrv_129i+0x23b0>,r5	! 2a6
    2288:	93 dd       	mov.w	2446 <_sddrv_129i+0x2446>,r3	! 4efa
    228a:	92 0a       	mov.w	22a2 <_sddrv_129i+0x22a2>,r2	! 83d7
    228c:	90 a2       	mov.w	23d4 <_sddrv_129i+0x23d4>,r0	! 2002
    228e:	8f 1e       	bf.s	22ce <_sddrv_129i+0x22ce>
    2290:	8d ac       	bt.s	21ec <_sddrv_129i+0x21ec>
    2292:	8c 4b       	.word 0x8c4b
    2294:	8a fc       	.word 0x8afc
    2296:	89 bf       	bt	2218 <_sddrv_129i+0x2218>
    2298:	88 95       	cmp/eq	#-107,r0
    229a:	87 7c       	.word 0x877c
    229c:	86 77       	.word 0x8677
    229e:	85 84       	mov.w	@(8,r8),r0
    22a0:	84 a4       	mov.b	@(4,r10),r0
    22a2:	83 d7       	.word 0x83d7
    22a4:	83 1d       	.word 0x831d
    22a6:	82 77       	.word 0x8277
    22a8:	81 e3       	mov.w	r0,@(6,r14)
    22aa:	81 64       	mov.w	r0,@(8,r6)
    22ac:	80 f7       	mov.b	r0,@(7,r15)
    22ae:	80 9f       	mov.b	r0,@(15,r9)
    22b0:	80 5a       	mov.b	r0,@(10,r5)
    22b2:	80 28       	mov.b	r0,@(8,r2)
    22b4:	80 0b       	mov.b	r0,@(11,r0)
    22b6:	70 00       	add	#0,r0
    22b8:	10 2e       	mov.l	r2,@(56,r0)
    22ba:	18 42       	mov.l	r4,@(8,r8)
    22bc:	52 2e       	mov.l	@(56,r2),r2
    22be:	18 42       	mov.l	r4,@(8,r8)
    22c0:	d0 40       	mov.l	23c4 <_sddrv_129i+0x23c4>,r0	! 1aa4efa
    22c2:	d0 40       	mov.l	23c4 <_sddrv_129i+0x23c4>,r0	! 1aa4efa
    22c4:	43 ee       	ldc	r3,r6_bank
    22c6:	1a 00       	mov.l	r0,@(0,r10)
    22c8:	d2 c0       	mov.l	25cc <_sddrv_129i+0x25cc>,r2	! 20000200
    22ca:	45 ee       	ldc	r5,r6_bank
    22cc:	1f 00       	mov.l	r0,@(0,r15)
    22ce:	78 00       	add	#0,r8
    22d0:	18 2e       	mov.l	r2,@(56,r8)
    22d2:	18 41       	mov.l	r4,@(4,r8)
    22d4:	10 38       	mov.l	r3,@(32,r0)
    22d6:	04 e1       	.word 0x04e1
    22d8:	d0 00       	mov.l	22dc <_sddrv_129i+0x22dc>,r0	! 1011e908
    22da:	6a 2c       	extu.b	r2,r10
    22dc:	10 11       	mov.l	r1,@(4,r0)
    22de:	e9 08       	mov	#8,r9
    22e0:	00 00       	.word 0x0000
    22e2:	00 80       	.word 0x0080
    22e4:	12 29       	mov.l	r2,@(36,r2)
    22e6:	00 01       	.word 0x0001
    22e8:	02 01       	.word 0x0201
    22ea:	00 0f       	mac.l	@r0+,@r0+
    22ec:	80 01       	mov.b	r0,@(1,r0)
    22ee:	15 80       	mov.l	r8,@(0,r5)
    22f0:	40 00       	shll	r0
    22f2:	52 04       	mov.l	@(16,r0),r2
    22f4:	15 a9       	mov.l	r10,@(36,r5)
    22f6:	00 02       	stc	sr,r0
    22f8:	40 00       	shll	r0
    22fa:	52 04       	mov.l	@(16,r0),r2
    22fc:	15 a9       	mov.l	r10,@(36,r5)
    22fe:	00 03       	bsrf	r0
    2300:	40 00       	shll	r0
    2302:	52 04       	mov.l	@(16,r0),r2
    2304:	1d 44       	mov.l	r4,@(16,r13)
    2306:	18 41       	mov.l	r4,@(4,r8)
    2308:	10 19       	mov.l	r1,@(36,r0)
    230a:	12 19       	mov.l	r1,@(36,r2)
    230c:	14 01       	mov.l	r0,@(4,r4)
    230e:	02 42       	stc	spc,r2
    2310:	00 e0       	.word 0x00e0
    2312:	e9 4a       	mov	#74,r9
    2314:	3d 42       	cmp/hs	r4,r13
    2316:	18 00       	mov.l	r0,@(0,r8)
    2318:	02 41       	.word 0x0241
    231a:	00 1f       	mac.l	@r1+,@r0+
    231c:	34 01       	.word 0x3401
    231e:	e9 4a       	mov	#74,r9
    2320:	d4 6e       	mov.l	24dc <_sddrv_129i+0x24dc>,r4	! 924efa
    2322:	18 00       	mov.l	r0,@(0,r8)
    2324:	3d 42       	cmp/hs	r4,r13
    2326:	18 0a       	mov.l	r0,@(40,r8)
    2328:	3d 41       	.word 0x3d41
    232a:	18 02       	mov.l	r0,@(8,r8)
    232c:	14 19       	mov.l	r1,@(36,r4)
    232e:	16 11       	mov.l	r1,@(4,r6)
    2330:	02 40       	.word 0x0240
    2332:	00 07       	mul.l	r0,r0
    2334:	e5 48       	mov	#72,r5
    2336:	4e fb       	.word 0x4efb
    2338:	00 02       	stc	sr,r0
    233a:	4e fa       	ldc	r14,dbr
    233c:	0d 42       	stc	spc,r13
    233e:	4e fa       	ldc	r14,dbr
    2340:	07 1c       	mov.b	@(r0,r1),r7
    2342:	4e fa       	ldc	r14,dbr
    2344:	f3 92       	fmul	fr9,fr3
    2346:	4e fa       	ldc	r14,dbr
    2348:	00 12       	stc	gbr,r0
    234a:	4e fa       	ldc	r14,dbr
    234c:	f2 d4       	fcmp/eq	fr13,fr2
    234e:	4e fa       	ldc	r14,dbr
    2350:	f3 8c       	fmov	fr8,fr3
    2352:	4e fa       	ldc	r14,dbr
    2354:	05 f6       	mov.l	r15,@(r0,r5)
    2356:	4e fa       	ldc	r14,dbr
    2358:	f3 8a       	fmov	fr8,@r3
    235a:	38 02       	cmp/hs	r0,r8
    235c:	02 42       	stc	spc,r2
    235e:	00 0f       	mac.l	@r0+,@r0+
    2360:	d4 42       	mov.l	246c <_sddrv_129i+0x246c>,r4	! 1024efa
    2362:	d4 42       	mov.l	246c <_sddrv_129i+0x246c>,r4	! 1024efa
    2364:	02 44       	mov.b	r4,@(r0,r2)
    2366:	00 70       	.word 0x0070
    2368:	e4 4c       	mov	#76,r4
    236a:	4e fb       	.word 0x4efb
    236c:	40 02       	sts.l	mach,@-r0
    236e:	4e fa       	ldc	r14,dbr
    2370:	00 1e       	mov.l	@(r0,r1),r0
    2372:	4e fa       	ldc	r14,dbr
    2374:	00 5e       	mov.l	@(r0,r5),r0
    2376:	4e fa       	ldc	r14,dbr
    2378:	00 9e       	mov.l	@(r0,r9),r0
    237a:	4e fa       	ldc	r14,dbr
    237c:	00 e2       	stc	r6_bank,r0
    237e:	4e fa       	ldc	r14,dbr
    2380:	01 22       	stc	vbr,r1
    2382:	4e fa       	ldc	r14,dbr
    2384:	01 62       	stc	r6_bank,r1
    2386:	4e fa       	ldc	r14,dbr
    2388:	00 d2       	stc	r5_bank,r0
    238a:	4e fa       	ldc	r14,dbr
    238c:	01 9e       	mov.l	@(r0,r9),r1
    238e:	4e fb       	.word 0x4efb
    2390:	20 02       	mov.l	r0,@r0
    2392:	4e fa       	ldc	r14,dbr
    2394:	01 da       	.word 0x01da
    2396:	4e fa       	ldc	r14,dbr
    2398:	02 48       	.word 0x0248
    239a:	4e fa       	ldc	r14,dbr
    239c:	01 d2       	stc	r5_bank,r1
    239e:	4e fa       	ldc	r14,dbr
    23a0:	01 ce       	mov.l	@(r0,r12),r1
    23a2:	4e fa       	ldc	r14,dbr
    23a4:	01 ca       	.word 0x01ca
    23a6:	4e fa       	ldc	r14,dbr
    23a8:	01 c6       	mov.l	r12,@(r0,r1)
    23aa:	4e fa       	ldc	r14,dbr
    23ac:	01 c2       	stc	r4_bank,r1
    23ae:	4e fa       	ldc	r14,dbr
    23b0:	02 a6       	mov.l	r10,@(r0,r2)
    23b2:	4e fa       	ldc	r14,dbr
    23b4:	01 ba       	.word 0x01ba
    23b6:	4e fa       	ldc	r14,dbr
    23b8:	01 b6       	mov.l	r11,@(r0,r1)
    23ba:	4e fa       	ldc	r14,dbr
    23bc:	02 f2       	stc	r7_bank,r2
    23be:	4e fa       	ldc	r14,dbr
    23c0:	02 96       	mov.l	r9,@(r0,r2)
    23c2:	4e fa       	ldc	r14,dbr
    23c4:	01 aa       	.word 0x01aa
    23c6:	4e fa       	ldc	r14,dbr
    23c8:	01 a6       	mov.l	r10,@(r0,r1)
    23ca:	4e fa       	ldc	r14,dbr
    23cc:	01 a2       	stc	r2_bank,r1
    23ce:	4e fa       	ldc	r14,dbr
    23d0:	01 9e       	mov.l	@(r0,r9),r1
    23d2:	4e fb       	.word 0x4efb
    23d4:	20 02       	mov.l	r0,@r0
    23d6:	4e fa       	ldc	r14,dbr
    23d8:	f0 d6       	fmov	@(r0,r13),fr0
    23da:	4e fa       	ldc	r14,dbr
    23dc:	01 9a       	.word 0x019a
    23de:	4e fa       	ldc	r14,dbr
    23e0:	01 8e       	mov.l	@(r0,r8),r1
    23e2:	4e fa       	ldc	r14,dbr
    23e4:	01 8a       	.word 0x018a
    23e6:	4e fa       	ldc	r14,dbr
    23e8:	01 86       	mov.l	r8,@(r0,r1)
    23ea:	4e fa       	ldc	r14,dbr
    23ec:	01 82       	stc	r0_bank,r1
    23ee:	4e fa       	ldc	r14,dbr
    23f0:	01 7e       	mov.l	@(r0,r7),r1
    23f2:	4e fa       	ldc	r14,dbr
    23f4:	01 7a       	.word 0x017a
    23f6:	4e fa       	ldc	r14,dbr
    23f8:	01 76       	mov.l	r7,@(r0,r1)
    23fa:	4e fa       	ldc	r14,dbr
    23fc:	01 72       	stc	r7_bank,r1
    23fe:	4e fa       	ldc	r14,dbr
    2400:	01 6e       	mov.l	@(r0,r6),r1
    2402:	4e fa       	ldc	r14,dbr
    2404:	01 6a       	sts	fpscr,r1
    2406:	4e fa       	ldc	r14,dbr
    2408:	01 66       	mov.l	r6,@(r0,r1)
    240a:	4e fa       	ldc	r14,dbr
    240c:	01 62       	stc	r6_bank,r1
    240e:	4e fa       	ldc	r14,dbr
    2410:	01 5e       	mov.l	@(r0,r5),r1
    2412:	4e fa       	ldc	r14,dbr
    2414:	01 5a       	sts	fpul,r1
    2416:	4e fb       	.word 0x4efb
    2418:	20 02       	mov.l	r0,@r0
    241a:	4e fa       	ldc	r14,dbr
    241c:	f1 e4       	fcmp/eq	fr14,fr1
    241e:	4e fa       	ldc	r14,dbr
    2420:	01 4e       	mov.l	@(r0,r4),r1
    2422:	4e fa       	ldc	r14,dbr
    2424:	01 4a       	.word 0x014a
    2426:	4e fa       	ldc	r14,dbr
    2428:	01 46       	mov.l	r4,@(r0,r1)
    242a:	4e fa       	ldc	r14,dbr
    242c:	01 42       	stc	spc,r1
    242e:	4e fa       	ldc	r14,dbr
    2430:	01 3e       	mov.l	@(r0,r3),r1
    2432:	4e fa       	ldc	r14,dbr
    2434:	01 3a       	stc	sgr,r1
    2436:	4e fa       	ldc	r14,dbr
    2438:	01 36       	mov.l	r3,@(r0,r1)
    243a:	4e fa       	ldc	r14,dbr
    243c:	01 32       	stc	ssr,r1
    243e:	4e fa       	ldc	r14,dbr
    2440:	01 2e       	mov.l	@(r0,r2),r1
    2442:	4e fa       	ldc	r14,dbr
    2444:	01 2a       	sts	pr,r1
    2446:	4e fa       	ldc	r14,dbr
    2448:	01 26       	mov.l	r2,@(r0,r1)
    244a:	4e fa       	ldc	r14,dbr
    244c:	01 22       	stc	vbr,r1
    244e:	4e fa       	ldc	r14,dbr
    2450:	01 1e       	mov.l	@(r0,r1),r1
    2452:	4e fa       	ldc	r14,dbr
    2454:	01 1a       	sts	macl,r1
    2456:	4e fa       	ldc	r14,dbr
    2458:	01 16       	mov.l	r1,@(r0,r1)
    245a:	4e fb       	.word 0x4efb
    245c:	20 06       	mov.l	r0,@-r0
    245e:	4e fb       	.word 0x4efb
    2460:	20 02       	mov.l	r0,@r0
    2462:	4e fa       	ldc	r14,dbr
    2464:	01 0a       	sts	mach,r1
    2466:	4e fa       	ldc	r14,dbr
    2468:	01 06       	mov.l	r0,@(r0,r1)
    246a:	4e fa       	ldc	r14,dbr
    246c:	01 02       	stc	sr,r1
    246e:	4e fa       	ldc	r14,dbr
    2470:	00 fe       	mov.l	@(r0,r15),r0
    2472:	4e fa       	ldc	r14,dbr
    2474:	00 fa       	stc	dbr,r0
    2476:	4e fa       	ldc	r14,dbr
    2478:	00 f6       	mov.l	r15,@(r0,r0)
    247a:	4e fa       	ldc	r14,dbr
    247c:	00 f2       	stc	r7_bank,r0
    247e:	4e fa       	ldc	r14,dbr
    2480:	00 ee       	mov.l	@(r0,r14),r0
    2482:	4e fa       	ldc	r14,dbr
    2484:	00 ea       	.word 0x00ea
    2486:	4e fa       	ldc	r14,dbr
    2488:	00 e6       	mov.l	r14,@(r0,r0)
    248a:	4e fa       	ldc	r14,dbr
    248c:	00 e2       	stc	r6_bank,r0
    248e:	4e fa       	ldc	r14,dbr
    2490:	00 de       	mov.l	@(r0,r13),r0
    2492:	4e fa       	ldc	r14,dbr
    2494:	00 da       	.word 0x00da
    2496:	4e fa       	ldc	r14,dbr
    2498:	00 d6       	mov.l	r13,@(r0,r0)
    249a:	4e fa       	ldc	r14,dbr
    249c:	00 d2       	stc	r5_bank,r0
    249e:	4e fa       	ldc	r14,dbr
    24a0:	00 ce       	mov.l	@(r0,r12),r0
    24a2:	4e fb       	.word 0x4efb
    24a4:	20 02       	mov.l	r0,@r0
    24a6:	4e fa       	ldc	r14,dbr
    24a8:	02 82       	stc	r0_bank,r2
    24aa:	4e fa       	ldc	r14,dbr
    24ac:	00 c2       	stc	r4_bank,r0
    24ae:	4e fa       	ldc	r14,dbr
    24b0:	00 be       	mov.l	@(r0,r11),r0
    24b2:	4e fa       	ldc	r14,dbr
    24b4:	00 ba       	.word 0x00ba
    24b6:	4e fa       	ldc	r14,dbr
    24b8:	00 b6       	mov.l	r11,@(r0,r0)
    24ba:	4e fa       	ldc	r14,dbr
    24bc:	00 b2       	stc	r3_bank,r0
    24be:	4e fa       	ldc	r14,dbr
    24c0:	00 ae       	mov.l	@(r0,r10),r0
    24c2:	4e fa       	ldc	r14,dbr
    24c4:	00 f2       	stc	r7_bank,r0
    24c6:	4e fa       	ldc	r14,dbr
    24c8:	00 a6       	mov.l	r10,@(r0,r0)
    24ca:	4e fa       	ldc	r14,dbr
    24cc:	00 a2       	stc	r2_bank,r0
    24ce:	4e fa       	ldc	r14,dbr
    24d0:	00 9e       	mov.l	@(r0,r9),r0
    24d2:	4e fa       	ldc	r14,dbr
    24d4:	00 9a       	.word 0x009a
    24d6:	4e fa       	ldc	r14,dbr
    24d8:	00 96       	mov.l	r9,@(r0,r0)
    24da:	4e fa       	ldc	r14,dbr
    24dc:	00 92       	stc	r1_bank,r0
    24de:	4e fa       	ldc	r14,dbr
    24e0:	00 8e       	mov.l	@(r0,r8),r0
    24e2:	4e fa       	ldc	r14,dbr
    24e4:	00 8a       	.word 0x008a
    24e6:	4e fb       	.word 0x4efb
    24e8:	20 02       	mov.l	r0,@r0
    24ea:	4e fa       	ldc	r14,dbr
    24ec:	04 fc       	mov.b	@(r0,r15),r4
    24ee:	4e fa       	ldc	r14,dbr
    24f0:	05 02       	stc	sr,r5
    24f2:	4e fa       	ldc	r14,dbr
    24f4:	05 20       	.word 0x0520
    24f6:	4e fa       	ldc	r14,dbr
    24f8:	05 3e       	mov.l	@(r0,r3),r5
    24fa:	4e fa       	ldc	r14,dbr
    24fc:	00 72       	stc	r7_bank,r0
    24fe:	4e fa       	ldc	r14,dbr
    2500:	00 6e       	mov.l	@(r0,r6),r0
    2502:	4e fa       	ldc	r14,dbr
    2504:	00 6a       	sts	fpscr,r0
    2506:	4e fa       	ldc	r14,dbr
    2508:	00 66       	mov.l	r6,@(r0,r0)
    250a:	4e fa       	ldc	r14,dbr
    250c:	00 62       	stc	r6_bank,r0
    250e:	4e fa       	ldc	r14,dbr
    2510:	00 5e       	mov.l	@(r0,r5),r0
    2512:	4e fa       	ldc	r14,dbr
    2514:	00 5a       	sts	fpul,r0
    2516:	4e fa       	ldc	r14,dbr
    2518:	02 ba       	.word 0x02ba
    251a:	4e fa       	ldc	r14,dbr
    251c:	00 52       	stc	r5_bank,r0
    251e:	4e fa       	ldc	r14,dbr
    2520:	00 4e       	mov.l	@(r0,r4),r0
    2522:	4e fa       	ldc	r14,dbr
    2524:	00 4a       	.word 0x004a
    2526:	4e fa       	ldc	r14,dbr
    2528:	00 46       	mov.l	r4,@(r0,r0)
    252a:	4e fb       	.word 0x4efb
    252c:	20 02       	mov.l	r0,@r0
    252e:	4e fa       	ldc	r14,dbr
    2530:	00 3e       	mov.l	@(r0,r3),r0
    2532:	4e fa       	ldc	r14,dbr
    2534:	00 3a       	stc	sgr,r0
    2536:	4e fa       	ldc	r14,dbr
    2538:	00 36       	mov.l	r3,@(r0,r0)
    253a:	4e fa       	ldc	r14,dbr
    253c:	00 32       	stc	ssr,r0
    253e:	4e fa       	ldc	r14,dbr
    2540:	00 2e       	mov.l	@(r0,r2),r0
    2542:	4e fa       	ldc	r14,dbr
    2544:	00 2a       	sts	pr,r0
    2546:	4e fa       	ldc	r14,dbr
    2548:	00 26       	mov.l	r2,@(r0,r0)
    254a:	4e fa       	ldc	r14,dbr
    254c:	00 22       	stc	vbr,r0
    254e:	4e fa       	ldc	r14,dbr
    2550:	00 1e       	mov.l	@(r0,r1),r0
    2552:	4e fa       	ldc	r14,dbr
    2554:	00 1a       	sts	macl,r0
    2556:	4e fa       	ldc	r14,dbr
    2558:	00 16       	mov.l	r1,@(r0,r0)
    255a:	4e fa       	ldc	r14,dbr
    255c:	00 c0       	.word 0x00c0
    255e:	4e fa       	ldc	r14,dbr
    2560:	00 0e       	mov.l	@(r0,r0),r0
    2562:	4e fa       	ldc	r14,dbr
    2564:	00 0a       	sts	mach,r0
    2566:	4e fa       	ldc	r14,dbr
    2568:	00 06       	mov.l	r0,@(r0,r0)
    256a:	4e fa       	ldc	r14,dbr
    256c:	00 02       	stc	sr,r0
    256e:	08 f8       	.word 0x08f8
    2570:	00 06       	mov.l	r0,@(r0,r0)
    2572:	04 22       	stc	vbr,r4
    2574:	4e 75       	.word 0x4e75
    2576:	0c 01       	.word 0x0c01
    2578:	00 12       	stc	gbr,r0
    257a:	64 00       	mov.b	@r0,r4
    257c:	00 38       	ldtlb	
    257e:	02 03       	bsrf	r2
    2580:	00 7f       	mac.l	@r7+,@r0+
    2582:	e4 0b       	mov	#11,r4
    2584:	04 03       	bsrf	r4
    2586:	00 10       	.word 0x0010
    2588:	64 06       	mov.l	@r0+,r4
    258a:	46 03       	stc.l	sr,@-r6
    258c:	06 03       	bsrf	r6
    258e:	00 10       	.word 0x0010
    2590:	14 2e       	mov.l	r2,@(56,r4)
    2592:	18 31       	mov.l	r3,@(4,r8)
    2594:	6a 04       	mov.b	@r0+,r10
    2596:	02 03       	bsrf	r2
    2598:	00 e0       	.word 0x00e0
    259a:	34 01       	.word 0x3401
    259c:	06 42       	stc	spc,r6
    259e:	18 7e       	mov.l	r7,@(56,r8)
    25a0:	10 36       	mov.l	r3,@(24,r0)
    25a2:	20 00       	mov.b	r0,@r0
    25a4:	02 00       	.word 0x0200
    25a6:	00 e0       	.word 0x00e0
    25a8:	86 00       	.word 0x8600
    25aa:	1d 83       	mov.l	r8,@(12,r13)
    25ac:	20 00       	mov.b	r0,@r0
    25ae:	eb 49       	mov	#73,r11
    25b0:	1b 83       	mov.l	r8,@(12,r11)
    25b2:	10 17       	mov.l	r1,@(28,r0)
    25b4:	4e 75       	.word 0x4e75
    25b6:	0c 01       	.word 0x0c01
    25b8:	00 12       	stc	gbr,r0
    25ba:	64 00       	mov.b	@r0,r4
    25bc:	00 22       	stc	vbr,r0
    25be:	02 03       	bsrf	r2
    25c0:	00 70       	.word 0x0070
    25c2:	d6 03       	mov.l	25d0 <_sddrv_129i+0x25d0>,r6	! 1f8600
    25c4:	34 01       	.word 0x3401
    25c6:	06 42       	stc	spc,r6
    25c8:	18 7e       	mov.l	r7,@(56,r8)
    25ca:	10 36       	mov.l	r3,@(24,r0)
    25cc:	20 00       	mov.b	r0,@r0
    25ce:	02 00       	.word 0x0200
    25d0:	00 1f       	mac.l	@r1+,@r0+
    25d2:	86 00       	.word 0x8600
    25d4:	1d 83       	mov.l	r8,@(12,r13)
    25d6:	20 00       	mov.b	r0,@r0
    25d8:	eb 49       	mov	#73,r11
    25da:	1b 83       	mov.l	r8,@(12,r11)
    25dc:	10 17       	mov.l	r1,@(28,r0)
    25de:	4e 75       	.word 0x4e75
    25e0:	d6 03       	mov.l	25f0 <_sddrv_129i+0x25f0>,r6	! 4001661e
    25e2:	02 03       	bsrf	r2
    25e4:	00 e0       	.word 0x00e0
    25e6:	7e 1f       	add	#31,r14
    25e8:	42 44       	.word 0x4244
    25ea:	41 ee       	ldc	r1,r6_bank
    25ec:	10 00       	mov.l	r0,@(0,r0)
    25ee:	b2 30       	bsr	2a52 <_sddrv_129i+0x2a52>
    25f0:	40 01       	shlr	r0
    25f2:	66 1e       	exts.b	r1,r6
    25f4:	22 70       	mov.b	r7,@r2
    25f6:	40 08       	shll2	r0
    25f8:	10 29       	mov.l	r2,@(36,r0)
    25fa:	00 0e       	mov.l	@(r0,r0),r0
    25fc:	6a 14       	mov.b	@r1+,r10
    25fe:	1a 29       	mov.l	r2,@(36,r10)
    2600:	00 15       	mov.w	r1,@(r0,r0)
    2602:	16 03       	mov.l	r0,@(12,r6)
    2604:	6b 04       	mov.b	@r0+,r11
    2606:	02 05       	mov.w	r0,@(r0,r2)
    2608:	00 18       	sett	
    260a:	e2 4c       	mov	#76,r2
    260c:	1b 85       	mov.l	r8,@(20,r11)
    260e:	40 13       	stc.l	gbr,@-r0
    2610:	d8 44       	mov.l	2724 <_sddrv_129i+0x2724>,r8	! 51cfffd8
    2612:	06 44       	mov.b	r4,@(r0,r6)
    2614:	00 40       	.word 0x0040
    2616:	51 cf       	mov.l	@(60,r12),r1
    2618:	ff d6       	fmov	@(r0,r13),fr15
    261a:	4e 75       	.word 0x4e75
    261c:	16 03       	mov.l	r0,@(12,r6)
    261e:	66 34       	mov.b	@r3+,r6
    2620:	7e 1f       	add	#31,r14
    2622:	42 44       	.word 0x4244
    2624:	41 ee       	ldc	r1,r6_bank
    2626:	10 00       	mov.l	r0,@(0,r0)
    2628:	b2 30       	bsr	2a8c <_sddrv_129i+0x2a8c>
    262a:	40 01       	shlr	r0
    262c:	66 16       	mov.l	@r1+,r6
    262e:	e2 4c       	mov	#76,r2
    2630:	1b bc       	mov.l	r11,@(48,r11)
    2632:	00 ff       	mac.l	@r15+,@r0+
    2634:	40 0b       	jsr	@r0
    2636:	10 35       	mov.l	r3,@(20,r0)
    2638:	40 00       	shll	r0
    263a:	02 00       	.word 0x0200
    263c:	00 07       	mul.l	r0,r0
    263e:	1b 80       	mov.l	r8,@(0,r11)
    2640:	40 00       	shll	r0
    2642:	d8 44       	mov.l	2754 <_sddrv_129i+0x2754>,r8	! 49ee1000
    2644:	06 44       	mov.b	r4,@(r0,r6)
    2646:	00 40       	.word 0x0040
    2648:	51 cf       	mov.l	@(60,r12),r1
    264a:	ff de       	fmac	fr0,fr13,fr15
    264c:	10 15       	mov.l	r1,@(20,r0)
    264e:	00 00       	.word 0x0000
    2650:	00 10       	.word 0x0010
    2652:	1a 80       	mov.l	r8,@(0,r10)
    2654:	4e 75       	.word 0x4e75
    2656:	30 01       	.word 0x3001
    2658:	e9 48       	mov	#72,r9
    265a:	34 2e       	addc	r2,r4
    265c:	18 00       	mov.l	r0,@(0,r8)
    265e:	d0 42       	mov.l	2768 <_sddrv_129i+0x2768>,r0	! b2344001
    2660:	02 43       	.word 0x0243
    2662:	00 7f       	mac.l	@r7+,@r0+
    2664:	1d 83       	mov.l	r8,@(12,r13)
    2666:	00 02       	stc	sr,r0
    2668:	d6 03       	mov.l	2678 <_sddrv_129i+0x2678>,r6	! 662ab230
    266a:	7e 1f       	add	#31,r14
    266c:	78 00       	add	#0,r8
    266e:	41 ee       	ldc	r1,r6_bank
    2670:	10 00       	mov.l	r0,@(0,r0)
    2672:	08 30       	.word 0x0830
    2674:	00 07       	mul.l	r0,r0
    2676:	40 34       	.word 0x4034
    2678:	66 2a       	negc	r2,r6
    267a:	b2 30       	bsr	2ade <_sddrv_129i+0x2ade>
    267c:	40 01       	shlr	r0
    267e:	66 00       	mov.b	@r0,r6
    2680:	00 24       	mov.b	r2,@(r0,r0)
    2682:	b4 70       	bsr	2f66 <_sddrv_129i+0x2f66>
    2684:	40 06       	lds.l	@r0+,mach
    2686:	66 00       	mov.b	@r0,r6
    2688:	00 1c       	mov.b	@(r0,r1),r0
    268a:	08 30       	.word 0x0830
    268c:	00 00       	.word 0x0000
    268e:	40 05       	rotr	r0
    2690:	67 12       	mov.l	@r1,r7
    2692:	3a 30       	cmp/eq	r3,r10
    2694:	40 36       	ldc.l	@r0+,sgr
    2696:	ca c3       	xor	#-61,r0
    2698:	48 45       	.word 0x4845
    269a:	46 05       	rotr	r6
    269c:	e2 4c       	mov	#76,r2
    269e:	1b 85       	mov.l	r8,@(20,r11)
    26a0:	40 0d       	shld	r0,r0
    26a2:	d8 44       	mov.l	27b4 <_sddrv_129i+0x27b4>,r8	! 20422
    26a4:	06 44       	mov.b	r4,@(r0,r6)
    26a6:	00 40       	.word 0x0040
    26a8:	51 cf       	mov.l	@(60,r12),r1
    26aa:	ff c8       	fmov	@r12,fr15
    26ac:	4e 75       	.word 0x4e75
    26ae:	02 03       	bsrf	r2
    26b0:	00 7f       	mac.l	@r7+,@r0+
    26b2:	e4 0b       	mov	#11,r4
    26b4:	04 03       	bsrf	r4
    26b6:	00 10       	.word 0x0010
    26b8:	64 06       	mov.l	@r0+,r4
    26ba:	46 03       	stc.l	sr,@-r6
    26bc:	06 03       	bsrf	r6
    26be:	00 10       	.word 0x0010
    26c0:	30 2e       	addc	r2,r0
    26c2:	18 0a       	mov.l	r0,@(40,r8)
    26c4:	08 f6       	mov.l	r15,@(r0,r8)
    26c6:	00 07       	mul.l	r0,r0
    26c8:	00 01       	.word 0x0001
    26ca:	18 36       	mov.l	r3,@(24,r8)
    26cc:	00 01       	.word 0x0001
    26ce:	08 04       	mov.b	r0,@(r0,r8)
    26d0:	00 06       	mov.l	r0,@(r0,r0)
    26d2:	67 0a       	negc	r0,r7
    26d4:	08 2e       	mov.l	@(r0,r2),r8
    26d6:	00 07       	mul.l	r0,r0
    26d8:	18 31       	mov.l	r3,@(4,r8)
    26da:	66 18       	swap.b	r1,r6
    26dc:	4e 75       	.word 0x4e75
    26de:	08 2e       	mov.l	@(r0,r2),r8
    26e0:	00 07       	mul.l	r0,r0
    26e2:	18 31       	mov.l	r3,@(4,r8)
    26e4:	66 0e       	exts.b	r0,r6
    26e6:	00 03       	bsrf	r0
    26e8:	00 80       	.word 0x0080
    26ea:	1d 83       	mov.l	r8,@(12,r13)
    26ec:	00 01       	.word 0x0001
    26ee:	02 03       	bsrf	r2
    26f0:	00 1f       	mac.l	@r1+,@r0+
    26f2:	60 02       	mov.l	@r0,r0
    26f4:	42 43       	stc.l	spc,@-r2
    26f6:	7e 1f       	add	#31,r14
    26f8:	78 00       	add	#0,r8
    26fa:	41 ee       	ldc	r1,r6_bank
    26fc:	10 00       	mov.l	r0,@(0,r0)
    26fe:	b2 30       	bsr	2b62 <_sddrv_129i+0x2b62>
    2700:	40 01       	shlr	r0
    2702:	66 00       	mov.b	@r0,r6
    2704:	00 1c       	mov.b	@(r0,r1),r0
    2706:	b0 70       	bsr	27ea <_sddrv_129i+0x27ea>
    2708:	40 06       	lds.l	@r0+,mach
    270a:	66 00       	mov.b	@r0,r6
    270c:	00 14       	mov.b	r1,@(r0,r0)
    270e:	e2 4c       	mov	#76,r2
    2710:	1a 35       	mov.l	r3,@(20,r10)
    2712:	40 16       	lds.l	@r0+,macl
    2714:	02 05       	mov.w	r0,@(r0,r2)
    2716:	00 e0       	.word 0x00e0
    2718:	8a 03       	.word 0x8a03
    271a:	1b 85       	mov.l	r8,@(20,r11)
    271c:	40 16       	lds.l	@r0+,macl
    271e:	d8 44       	mov.l	2830 <_sddrv_129i+0x2830>,r8	! 10116b86
    2720:	06 44       	mov.b	r4,@(r0,r6)
    2722:	00 40       	.word 0x0040
    2724:	51 cf       	mov.l	@(60,r12),r1
    2726:	ff d8       	fmov	@r13,fr15
    2728:	4e 75       	.word 0x4e75
    272a:	3e 01       	.word 0x3e01
    272c:	e9 4f       	mov	#79,r9
    272e:	3c 2e       	addc	r2,r12
    2730:	18 00       	mov.l	r0,@(0,r8)
    2732:	de 46       	mov.l	284c <_sddrv_129i+0x284c>,r14	! ff6e2a19
    2734:	10 36       	mov.l	r3,@(24,r0)
    2736:	70 03       	add	#3,r0
    2738:	02 03       	bsrf	r2
    273a:	00 40       	.word 0x0040
    273c:	66 62       	mov.l	@r6,r6
    273e:	02 00       	.word 0x0200
    2740:	00 bf       	mac.l	@r11+,@r0+
    2742:	1d 80       	mov.l	r8,@(0,r13)
    2744:	70 03       	add	#3,r0
    2746:	7e 20       	add	#32,r14
    2748:	9e 6e       	mov.w	2828 <_sddrv_129i+0x2828>,r14	! 2040
    274a:	18 2a       	mov.l	r2,@(40,r8)
    274c:	67 50       	mov.b	@r5,r7
    274e:	53 47       	mov.l	@(28,r4),r3
    2750:	41 ee       	ldc	r1,r6_bank
    2752:	18 c0       	mov.l	r12,@(0,r8)
    2754:	49 ee       	ldc	r9,r6_bank
    2756:	10 00       	mov.l	r0,@(0,r0)
    2758:	30 2e       	addc	r2,r0
    275a:	18 22       	mov.l	r2,@(8,r8)
    275c:	02 40       	.word 0x0240
    275e:	00 3e       	mov.l	@(r0,r3),r0
    2760:	38 30       	cmp/eq	r3,r8
    2762:	00 00       	.word 0x0000
    2764:	02 44       	mov.b	r4,@(r0,r2)
    2766:	07 c0       	.word 0x07c0
    2768:	b2 34       	bsr	2bd4 <_sddrv_129i+0x2bd4>
    276a:	40 01       	shlr	r0
    276c:	66 2a       	negc	r2,r6
    276e:	bc 74       	bsr	205a <_sddrv_129i+0x205a>
    2770:	40 06       	lds.l	@r0+,mach
    2772:	66 24       	mov.b	@r2+,r6
    2774:	08 34       	mov.b	r3,@(r0,r8)
    2776:	00 01       	.word 0x0001
    2778:	40 05       	rotr	r0
    277a:	67 1c       	extu.b	r1,r7
    277c:	08 34       	mov.b	r3,@(r0,r8)
    277e:	00 03       	bsrf	r0
    2780:	40 05       	rotr	r0
    2782:	66 14       	mov.b	@r1+,r6
    2784:	14 34       	mov.l	r3,@(16,r4)
    2786:	40 02       	sts.l	mach,@-r0
    2788:	16 34       	mov.l	r3,@(16,r6)
    278a:	40 03       	stc.l	sr,@-r0
    278c:	48 e7       	ldc.l	@r8+,r6_bank
    278e:	ff f8       	fmov	@r15,fr15
    2790:	4e ba       	.word 0x4eba
    2792:	08 ec       	mov.b	@(r0,r14),r8
    2794:	4c df       	mac.w	@r13+,@r12+
    2796:	1f ff       	mov.l	r15,@(60,r15)
    2798:	54 40       	mov.l	@(0,r4),r4
    279a:	51 cf       	mov.l	@(60,r12),r1
    279c:	ff c0       	fadd	fr12,fr15
    279e:	4e 75       	.word 0x4e75
    27a0:	00 00       	.word 0x0000
    27a2:	00 40       	.word 0x0040
    27a4:	1d 80       	mov.l	r8,@(0,r13)
    27a6:	70 03       	add	#3,r0
    27a8:	4e 75       	.word 0x4e75
    27aa:	08 f8       	.word 0x08f8
    27ac:	00 01       	.word 0x0001
    27ae:	04 22       	stc	vbr,r4
    27b0:	4e 75       	.word 0x4e75
    27b2:	08 f8       	.word 0x08f8
    27b4:	00 02       	stc	sr,r0
    27b6:	04 22       	stc	vbr,r4
    27b8:	4e 75       	.word 0x4e75
    27ba:	08 f8       	.word 0x08f8
    27bc:	00 03       	bsrf	r0
    27be:	04 22       	stc	vbr,r4
    27c0:	4e 75       	.word 0x4e75
    27c2:	08 f8       	.word 0x08f8
    27c4:	00 04       	mov.b	r0,@(r0,r0)
    27c6:	04 22       	stc	vbr,r4
    27c8:	4e 75       	.word 0x4e75
    27ca:	08 f8       	.word 0x08f8
    27cc:	00 05       	mov.w	r0,@(r0,r0)
    27ce:	04 22       	stc	vbr,r4
    27d0:	4e 75       	.word 0x4e75
    27d2:	0c 03       	bsrf	r12
    27d4:	00 10       	.word 0x0010
    27d6:	64 00       	mov.b	@r0,r4
    27d8:	ee d4       	mov	#-44,r14
    27da:	12 03       	mov.l	r0,@(12,r2)
    27dc:	00 01       	.word 0x0001
    27de:	00 20       	.word 0x0020
    27e0:	76 30       	add	#48,r6
    27e2:	41 ed       	shld	r14,r1
    27e4:	08 00       	.word 0x0800
    27e6:	70 00       	add	#0,r0
    27e8:	3e 3c       	add	r3,r14
    27ea:	00 ff       	mac.l	@r15+,@r0+
    27ec:	20 c0       	mov.b	r12,@r0
    27ee:	51 cf       	mov.l	@(60,r12),r1
    27f0:	ff fc       	fmov	fr15,fr15
    27f2:	41 f8       	.word 0x41f8
    27f4:	05 00       	.word 0x0500
    27f6:	7e 1f       	add	#31,r14
    27f8:	10 10       	mov.l	r1,@(0,r0)
    27fa:	6b ae       	exts.b	r10,r11
    27fc:	b2 00       	bsr	2c00 <_sddrv_129i+0x2c00>
    27fe:	67 0a       	negc	r0,r7
    2800:	41 e8       	.word 0x41e8
    2802:	00 08       	clrt	
    2804:	51 cf       	mov.l	@(60,r12),r1
    2806:	ff f2       	fmul	fr15,fr15
    2808:	60 a0       	mov.b	@r10,r0
    280a:	08 b8       	.word 0x08b8
    280c:	00 01       	.word 0x0001
    280e:	04 22       	stc	vbr,r4
    2810:	20 18       	tst	r1,r0
    2812:	02 80       	.word 0x0280
    2814:	00 0f       	mac.l	@r0+,@r0+
    2816:	ff ff       	.word 0xffff
    2818:	24 10       	mov.b	r1,@r4
    281a:	6a 96       	mov.l	@r9+,r10
    281c:	08 b8       	.word 0x08b8
    281e:	00 02       	stc	sr,r0
    2820:	04 22       	stc	vbr,r4
    2822:	02 82       	stc	r0_bank,r2
    2824:	00 0f       	mac.l	@r0+,@r0+
    2826:	ff ff       	.word 0xffff
    2828:	20 40       	mov.b	r4,@r0
    282a:	43 f8       	.word 0x43f8
    282c:	05 00       	.word 0x0500
    282e:	7e 1f       	add	#31,r14
    2830:	10 11       	mov.l	r1,@(4,r0)
    2832:	6b 86       	mov.l	@r8+,r11
    2834:	08 b8       	.word 0x08b8
    2836:	00 03       	bsrf	r0
    2838:	04 22       	stc	vbr,r4
    283a:	02 00       	.word 0x0200
    283c:	00 70       	.word 0x0070
    283e:	b6 00       	bsr	3442 <_sddrv_129i+0x3442>
    2840:	67 0c       	extu.b	r0,r7
    2842:	43 e9       	.word 0x43e9
    2844:	00 08       	clrt	
    2846:	51 cf       	mov.l	@(60,r12),r1
    2848:	ff e8       	fmov	@r14,fr15
    284a:	60 00       	mov.b	@r0,r0
    284c:	ff 6e       	fmac	fr0,fr6,fr15
    284e:	2a 19       	and	r1,r10
    2850:	36 05       	dmulu.l	r0,r6
    2852:	02 43       	.word 0x0243
    2854:	1f ff       	mov.l	r15,@(60,r15)
    2856:	66 00       	mov.b	@r0,r6
    2858:	ff 6a       	fmov	fr6,@r15
    285a:	08 b8       	.word 0x08b8
    285c:	00 04       	mov.b	r0,@(r0,r0)
    285e:	04 22       	stc	vbr,r4
    2860:	02 85       	mov.w	r8,@(r0,r2)
    2862:	00 0f       	mac.l	@r0+,@r0+
    2864:	e0 00       	mov	#0,r0
    2866:	26 11       	mov.w	r1,@r6
    2868:	02 83       	pref	@r2
    286a:	00 0f       	mac.l	@r0+,@r0+
    286c:	ff ff       	.word 0xffff
    286e:	1d 68       	mov.l	r6,@(32,r13)
    2870:	00 22       	stc	vbr,r0
    2872:	18 30       	mov.l	r3,@(0,r8)
    2874:	22 3c       	cmp/str	r3,r2
    2876:	00 00       	.word 0x0000
    2878:	40 00       	shll	r0
    287a:	10 28       	mov.l	r2,@(32,r0)
    287c:	00 20       	.word 0x0020
    287e:	02 40       	.word 0x0240
    2880:	00 03       	bsrf	r0
    2882:	67 02       	mov.l	@r0,r7
    2884:	e1 a9       	mov	#-87,r1
    2886:	06 81       	.word 0x0681
    2888:	00 00       	.word 0x0000
    288a:	00 40       	.word 0x0040
    288c:	78 00       	add	#0,r8
    288e:	18 28       	mov.l	r2,@(32,r8)
    2890:	00 21       	.word 0x0021
    2892:	67 04       	mov.b	@r0+,r7
    2894:	c8 fc       	tst	#-4,r0
    2896:	0a 00       	.word 0x0a00
    2898:	d2 84       	mov.l	2aac <_sddrv_129i+0x2aac>,r2	! 4357c
    289a:	b6 81       	bsr	35a0 <_sddrv_129i+0x35a0>
    289c:	65 00       	mov.b	@r0,r5
    289e:	ff 2c       	fmov	fr2,fr15
    28a0:	08 b8       	.word 0x08b8
    28a2:	00 05       	mov.w	r0,@(r0,r0)
    28a4:	04 22       	stc	vbr,r4
    28a6:	20 3c       	cmp/str	r3,r0
    28a8:	60 00       	mov.b	@r0,r0
    28aa:	60 00       	mov.b	@r0,r0
    28ac:	26 03       	.word 0x2603
    28ae:	67 18       	swap.b	r1,r7
    28b0:	24 45       	mov.w	r4,@-r4
    28b2:	e8 8b       	mov	#-117,r8
    28b4:	67 12       	mov.l	@r1,r7
    28b6:	53 43       	mov.l	@(12,r4),r3
    28b8:	36 03       	cmp/ge	r0,r6
    28ba:	67 0c       	extu.b	r0,r7
    28bc:	24 c0       	mov.b	r12,@r4
    28be:	24 c0       	mov.b	r12,@r4
    28c0:	24 c0       	mov.b	r12,@r4
    28c2:	24 c0       	mov.b	r12,@r4
    28c4:	51 cb       	mov.l	@(44,r12),r1
    28c6:	ff f6       	fmov	@(r0,r15),fr15
    28c8:	10 28       	mov.l	r2,@(32,r0)
    28ca:	00 23       	braf	r0
    28cc:	11 c0       	mov.l	r12,@(0,r1)
    28ce:	04 84       	mov.b	r8,@(r0,r4)
    28d0:	0c 00       	.word 0x0c00
    28d2:	00 40       	.word 0x0040
    28d4:	65 0e       	exts.b	r0,r5
    28d6:	11 e8       	mov.l	r14,@(32,r1)
    28d8:	00 24       	mov.b	r2,@(r0,r0)
    28da:	04 86       	mov.l	r8,@(r0,r4)
    28dc:	11 e8       	mov.l	r14,@(32,r1)
    28de:	00 25       	mov.w	r2,@(r0,r0)
    28e0:	04 87       	mul.l	r8,r4
    28e2:	60 06       	mov.l	@r0+,r0
    28e4:	11 e8       	mov.l	r14,@(32,r1)
    28e6:	00 24       	mov.b	r2,@(r0,r0)
    28e8:	04 85       	mov.w	r8,@(r0,r4)
    28ea:	10 28       	mov.l	r2,@(32,r0)
    28ec:	00 20       	.word 0x0020
    28ee:	02 40       	.word 0x0240
    28f0:	00 03       	bsrf	r0
    28f2:	ef 48       	mov	#72,r15
    28f4:	e7 8d       	mov	#-115,r7
    28f6:	48 45       	.word 0x4845
    28f8:	80 45       	mov.b	r0,@(5,r4)
    28fa:	3b 40       	cmp/eq	r4,r11
    28fc:	04 02       	stc	sr,r4
    28fe:	45 e8       	.word 0x45e8
    2900:	00 40       	.word 0x0040
    2902:	47 ed       	shld	r14,r7
    2904:	07 00       	.word 0x0700
    2906:	3e 3c       	add	r3,r14
    2908:	01 3f       	mac.l	@r3+,@r1+
    290a:	26 da       	xor	r13,r6
    290c:	51 cf       	mov.l	@(60,r12),r1
    290e:	ff fc       	fmov	fr15,fr15
    2910:	14 28       	mov.l	r2,@(32,r4)
    2912:	00 20       	.word 0x0020
    2914:	26 3c       	cmp/str	r3,r6
    2916:	00 00       	.word 0x0000
    2918:	40 00       	shll	r0
    291a:	02 42       	stc	spc,r2
    291c:	00 03       	bsrf	r0
    291e:	67 02       	mov.l	@r0,r7
    2920:	e5 ab       	mov	#-85,r5
    2922:	48 45       	.word 0x4845
    2924:	e6 8d       	mov	#-115,r6
    2926:	da 83       	mov.l	2b34 <_sddrv_129i+0x2b34>,r10	! 26765004
    2928:	2d 45       	mov.w	r4,@-r13
    292a:	18 04       	mov.l	r0,@(16,r8)
    292c:	20 45       	mov.w	r4,@-r0
    292e:	70 00       	add	#0,r0
    2930:	7e 0f       	add	#15,r14
    2932:	20 c0       	mov.b	r12,@r0
    2934:	51 cf       	mov.l	@(60,r12),r1
    2936:	ff fc       	fmov	fr15,fr15
    2938:	e4 8c       	mov	#-116,r4
    293a:	67 08       	swap.b	r0,r7
    293c:	53 44       	mov.l	@(16,r4),r3
    293e:	20 da       	xor	r13,r0
    2940:	51 cc       	mov.l	@(48,r12),r1
    2942:	ff fc       	fmov	fr15,fr15
    2944:	2d 4a       	xor	r4,r13
    2946:	18 2c       	mov.l	r2,@(48,r8)
    2948:	4e 75       	.word 0x4e75
    294a:	02 42       	stc	spc,r2
    294c:	00 7f       	mac.l	@r7+,@r0+
    294e:	02 43       	.word 0x0243
    2950:	00 7f       	mac.l	@r7+,@r0+
    2952:	ef 4b       	mov	#75,r15
    2954:	84 43       	mov.b	@(3,r4),r0
    2956:	04 42       	stc	spc,r4
    2958:	20 00       	mov.b	r0,@r0
    295a:	38 01       	.word 0x3801
    295c:	e9 4c       	mov	#76,r9
    295e:	d8 6e       	mov.l	2b18 <_sddrv_129i+0x2b18>,r8	! 6700ebe6
    2960:	18 00       	mov.l	r0,@(0,r8)
    2962:	10 36       	mov.l	r3,@(24,r0)
    2964:	40 00       	shll	r0
    2966:	24 76       	mov.l	r7,@-r4
    2968:	40 04       	rotl	r0
    296a:	d0 40       	mov.l	2a6c <_sddrv_129i+0x2a6c>,r0	! 45ee1e00
    296c:	30 32       	cmp/hs	r3,r0
    296e:	00 08       	clrt	
    2970:	10 32       	mov.l	r3,@(8,r0)
    2972:	00 00       	.word 0x0000
    2974:	02 40       	.word 0x0240
    2976:	00 0f       	mac.l	@r0+,@r0+
    2978:	d0 40       	mov.l	2a7c <_sddrv_129i+0x2a7c>,r0	! 53460246
    297a:	d0 40       	mov.l	2a7c <_sddrv_129i+0x2a7c>,r0	! 53460246
    297c:	4e fb       	.word 0x4efb
    297e:	00 02       	stc	sr,r0
    2980:	42 42       	.word 0x4242
    2982:	60 56       	mov.l	@r5+,r0
    2984:	ea 42       	mov	#66,r10
    2986:	60 52       	mov.l	@r5,r0
    2988:	e8 42       	mov	#66,r8
    298a:	60 4e       	exts.b	r4,r0
    298c:	e8 42       	mov	#66,r8
    298e:	60 26       	mov.l	@r2+,r0
    2990:	e6 42       	mov	#66,r6
    2992:	60 46       	mov.l	@r4+,r0
    2994:	e6 42       	mov	#66,r6
    2996:	60 30       	mov.b	@r3,r0
    2998:	e6 42       	mov	#66,r6
    299a:	60 1a       	negc	r1,r0
    299c:	e6 42       	mov	#66,r6
    299e:	60 2e       	exts.b	r2,r0
    29a0:	e4 42       	mov	#66,r4
    29a2:	60 36       	mov.l	@r3+,r0
    29a4:	e4 42       	mov	#66,r4
    29a6:	60 1a       	negc	r1,r0
    29a8:	e4 42       	mov	#66,r4
    29aa:	60 1c       	extu.b	r1,r0
    29ac:	e4 42       	mov	#66,r4
    29ae:	60 0c       	extu.b	r0,r0
    29b0:	e4 42       	mov	#66,r4
    29b2:	60 02       	mov.l	@r0,r0
    29b4:	e2 42       	mov	#66,r2
    29b6:	36 02       	cmp/hs	r0,r6
    29b8:	78 01       	add	#1,r8
    29ba:	60 1a       	negc	r1,r0
    29bc:	36 02       	cmp/hs	r0,r6
    29be:	e4 43       	mov	#67,r4
    29c0:	60 10       	mov.b	@r1,r0
    29c2:	36 02       	cmp/hs	r0,r6
    29c4:	78 03       	add	#3,r8
    29c6:	60 0e       	exts.b	r0,r0
    29c8:	36 02       	cmp/hs	r0,r6
    29ca:	78 02       	add	#2,r8
    29cc:	60 08       	swap.b	r0,r0
    29ce:	36 02       	cmp/hs	r0,r6
    29d0:	e2 43       	mov	#67,r2
    29d2:	d4 43       	mov.l	2ae0 <_sddrv_129i+0x2ae0>,r4	! 6b00ec0c
    29d4:	78 01       	add	#1,r8
    29d6:	e8 63       	mov	#99,r8
    29d8:	d4 43       	mov.l	2ae8 <_sddrv_129i+0x2ae8>,r4	! 7004b432
    29da:	36 2e       	addc	r2,r6
    29dc:	18 00       	mov.l	r0,@(0,r8)
    29de:	e9 49       	mov	#73,r9
    29e0:	d6 41       	mov.l	2ae8 <_sddrv_129i+0x2ae8>,r6	! 7004b432
    29e2:	3d 82       	cmp/hs	r8,r13
    29e4:	30 08       	sub	r0,r0
    29e6:	4e 75       	.word 0x4e75
    29e8:	10 01       	mov.l	r0,@(4,r0)
    29ea:	12 03       	mov.l	r0,@(12,r2)
    29ec:	61 00       	mov.b	@r0,r1
    29ee:	15 c2       	mov.l	r12,@(8,r5)
    29f0:	4e 75       	.word 0x4e75
    29f2:	41 f9       	.word 0x41f9
    29f4:	00 00       	.word 0x0000
    29f6:	2a 56       	mov.l	r5,@-r10
    29f8:	10 01       	mov.l	r0,@(4,r0)
    29fa:	12 03       	mov.l	r0,@(12,r2)
    29fc:	02 80       	.word 0x0280
    29fe:	00 00       	.word 0x0000
    2a00:	00 01       	.word 0x0001
    2a02:	d1 c0       	mov.l	2d04 <_sddrv_129i+0x2d04>,r1	! 2430fc0
    2a04:	10 81       	mov.l	r8,@(4,r0)
    2a06:	14 28       	mov.l	r2,@(32,r4)
    2a08:	00 02       	stc	sr,r0
    2a0a:	16 28       	mov.l	r2,@(32,r6)
    2a0c:	00 04       	mov.b	r0,@(r0,r0)
    2a0e:	61 00       	mov.b	@r0,r1
    2a10:	15 ec       	mov.l	r14,@(48,r5)
    2a12:	4e 75       	.word 0x4e75
    2a14:	41 f9       	.word 0x41f9
    2a16:	00 00       	.word 0x0000
    2a18:	2a 56       	mov.l	r5,@-r10
    2a1a:	10 01       	mov.l	r0,@(4,r0)
    2a1c:	14 03       	mov.l	r0,@(12,r4)
    2a1e:	02 80       	.word 0x0280
    2a20:	00 00       	.word 0x0000
    2a22:	00 01       	.word 0x0001
    2a24:	d1 c0       	mov.l	2d28 <_sddrv_129i+0x2d28>,r1	! 400539ae
    2a26:	11 42       	mov.l	r4,@(8,r1)
    2a28:	00 02       	stc	sr,r0
    2a2a:	12 10       	mov.l	r1,@(0,r2)
    2a2c:	16 28       	mov.l	r2,@(32,r6)
    2a2e:	00 04       	mov.b	r0,@(r0,r0)
    2a30:	61 00       	mov.b	@r0,r1
    2a32:	15 ca       	mov.l	r12,@(40,r5)
    2a34:	4e 75       	.word 0x4e75
    2a36:	41 f9       	.word 0x41f9
    2a38:	00 00       	.word 0x0000
    2a3a:	2a 56       	mov.l	r5,@-r10
    2a3c:	10 01       	mov.l	r0,@(4,r0)
    2a3e:	02 80       	.word 0x0280
    2a40:	00 00       	.word 0x0000
    2a42:	00 01       	.word 0x0001
    2a44:	d1 c0       	mov.l	2d48 <_sddrv_129i+0x2d48>,r1	! 70003c2a
    2a46:	11 43       	mov.l	r4,@(12,r1)
    2a48:	00 04       	mov.b	r0,@(r0,r0)
    2a4a:	12 10       	mov.l	r1,@(0,r2)
    2a4c:	14 28       	mov.l	r2,@(32,r4)
    2a4e:	00 02       	stc	sr,r0
    2a50:	61 00       	mov.b	@r0,r1
    2a52:	15 aa       	mov.l	r10,@(40,r5)
    2a54:	4e 75       	.word 0x4e75
    2a56:	00 00       	.word 0x0000
    2a58:	00 00       	.word 0x0000
    2a5a:	00 00       	.word 0x0000
    2a5c:	16 03       	mov.l	r0,@(12,r6)
    2a5e:	67 00       	mov.b	@r0,r7
    2a60:	06 1e       	mov.l	@(r0,r1),r6
    2a62:	70 00       	add	#0,r0
    2a64:	3c 2e       	addc	r2,r12
    2a66:	18 0a       	mov.l	r0,@(40,r8)
    2a68:	10 36       	mov.l	r3,@(24,r0)
    2a6a:	60 00       	mov.b	@r0,r0
    2a6c:	45 ee       	ldc	r5,r6_bank
    2a6e:	1e 00       	mov.l	r0,@(0,r14)
    2a70:	42 46       	.word 0x4246
    2a72:	1c 2e       	mov.l	r2,@(56,r12)
    2a74:	18 30       	mov.l	r3,@(0,r8)
    2a76:	67 48       	swap.b	r4,r7
    2a78:	22 6e       	mulu.w	r6,r2
    2a7a:	18 2c       	mov.l	r2,@(48,r8)
    2a7c:	53 46       	mov.l	@(24,r4),r3
    2a7e:	02 46       	mov.l	r4,@(r0,r2)
    2a80:	00 1f       	mac.l	@r1+,@r0+
    2a82:	b2 11       	bsr	2ea8 <_sddrv_129i+0x2ea8>
    2a84:	66 2e       	exts.b	r2,r6
    2a86:	15 69       	mov.l	r6,@(36,r5)
    2a88:	00 01       	.word 0x0001
    2a8a:	00 00       	.word 0x0000
    2a8c:	25 49       	and	r4,r5
    2a8e:	00 08       	clrt	
    2a90:	15 7c       	mov.l	r7,@(48,r5)
    2a92:	00 00       	.word 0x0000
    2a94:	00 06       	mov.l	r0,@(r0,r0)
    2a96:	15 69       	mov.l	r6,@(36,r5)
    2a98:	00 11       	.word 0x0011
    2a9a:	00 01       	.word 0x0001
    2a9c:	42 45       	.word 0x4245
    2a9e:	1a 29       	mov.l	r2,@(36,r10)
    2aa0:	00 10       	.word 0x0010
    2aa2:	e9 4d       	mov	#77,r9
    2aa4:	35 45       	dmulu.l	r4,r5
    2aa6:	00 04       	mov.b	r0,@(r0,r0)
    2aa8:	da 45       	mov.l	2bc0 <_sddrv_129i+0x2bc0>,r10	! 24407c0
    2aaa:	db 6a       	mov.l	2c54 <_sddrv_129i+0x2c54>,r11	! 24407c0
    2aac:	00 04       	mov.b	r0,@(r0,r0)
    2aae:	35 7c       	add	r7,r5
    2ab0:	00 00       	.word 0x0000
    2ab2:	00 02       	stc	sr,r0
    2ab4:	43 e9       	.word 0x43e9
    2ab6:	00 18       	sett	
    2ab8:	45 ea       	.word 0x45ea
    2aba:	00 10       	.word 0x0010
    2abc:	51 ce       	mov.l	@(56,r12),r1
    2abe:	ff c4       	fcmp/eq	fr12,fr15
    2ac0:	3a 2e       	addc	r2,r10
    2ac2:	18 0a       	mov.l	r0,@(40,r8)
    2ac4:	2c 36       	mov.l	r3,@-r12
    2ac6:	50 04       	mov.l	@(16,r0),r0
    2ac8:	66 02       	mov.l	@r0,r6
    2aca:	4e 75       	.word 0x4e75
    2acc:	24 46       	mov.l	r4,@-r4
    2ace:	d0 40       	mov.l	2bd0 <_sddrv_129i+0x2bd0>,r0	! 13a536e
    2ad0:	d4 f2       	mov.l	2e9c <_sddrv_129i+0x2e9c>,r4	! e64e6008
    2ad2:	00 08       	clrt	
    2ad4:	43 ee       	ldc	r3,r6_bank
    2ad6:	19 00       	mov.l	r0,@(0,r9)
    2ad8:	7a 00       	add	#0,r10
    2ada:	7c 00       	add	#0,r12
    2adc:	1e 2a       	mov.l	r2,@(40,r14)
    2ade:	00 02       	stc	sr,r0
    2ae0:	6b 00       	mov.b	@r0,r11
    2ae2:	ec 0c       	mov	#12,r12
    2ae4:	02 47       	mul.l	r4,r2
    2ae6:	00 7f       	mac.l	@r7+,@r0+
    2ae8:	70 04       	add	#4,r0
    2aea:	b4 32       	bsr	3352 <_sddrv_129i+0x3352>
    2aec:	00 00       	.word 0x0000
    2aee:	65 16       	mov.l	@r1+,r5
    2af0:	b4 32       	bsr	3358 <_sddrv_129i+0x3358>
    2af2:	00 01       	.word 0x0001
    2af4:	62 10       	mov.b	@r1,r2
    2af6:	22 8a       	xor	r8,r2
    2af8:	d1 99       	mov.l	2d60 <_sddrv_129i+0x2d60>,r1	! 400e2a2a
    2afa:	22 c5       	mov.w	r12,@-r2
    2afc:	52 46       	mov.l	@(24,r4),r2
    2afe:	0c 46       	mov.l	r4,@(r0,r12)
    2b00:	00 21       	.word 0x0021
    2b02:	64 00       	mov.b	@r0,r4
    2b04:	eb f6       	mov	#-10,r11
    2b06:	52 45       	mov.l	@(20,r4),r2
    2b08:	06 40       	.word 0x0640
    2b0a:	00 20       	.word 0x0020
    2b0c:	51 cf       	mov.l	@(60,r12),r1
    2b0e:	ff dc       	fmov	fr13,fr15
    2b10:	3d 46       	cmp/hi	r4,r13
    2b12:	18 24       	mov.l	r2,@(16,r8)
    2b14:	3d 46       	cmp/hi	r4,r13
    2b16:	18 28       	mov.l	r2,@(32,r8)
    2b18:	67 00       	mov.b	@r0,r7
    2b1a:	eb e6       	mov	#-26,r11
    2b1c:	3a 2e       	addc	r2,r10
    2b1e:	18 0a       	mov.l	r0,@(40,r8)
    2b20:	1d 83       	mov.l	r8,@(12,r13)
    2b22:	50 0d       	mov.l	@(52,r0),r0
    2b24:	1d b6       	mov.l	r11,@(24,r13)
    2b26:	50 0b       	mov.l	@(44,r0),r0
    2b28:	50 0c       	mov.l	@(48,r0),r0
    2b2a:	1d b6       	mov.l	r11,@(24,r13)
    2b2c:	50 0a       	mov.l	@(40,r0),r0
    2b2e:	50 0b       	mov.l	@(44,r0),r0
    2b30:	1d 82       	mov.l	r8,@(8,r13)
    2b32:	50 0a       	mov.l	@(40,r0),r0
    2b34:	26 76       	mov.l	r7,@-r6
    2b36:	50 04       	mov.l	@(16,r0),r0
    2b38:	1d aa       	mov.l	r10,@(40,r13)
    2b3a:	00 03       	bsrf	r0
    2b3c:	50 0e       	mov.l	@(56,r0),r0
    2b3e:	10 12       	mov.l	r1,@(8,r0)
    2b40:	41 ee       	ldc	r1,r6_bank
    2b42:	18 c0       	mov.l	r12,@(0,r8)
    2b44:	02 00       	.word 0x0200
    2b46:	00 70       	.word 0x0070
    2b48:	1d 40       	mov.l	r4,@(0,r13)
    2b4a:	18 15       	mov.l	r1,@(20,r8)
    2b4c:	67 00       	mov.b	@r0,r7
    2b4e:	00 94       	mov.b	r9,@(r0,r0)
    2b50:	3a 2e       	addc	r2,r10
    2b52:	18 0a       	mov.l	r0,@(40,r8)
    2b54:	08 f6       	mov.l	r15,@(r0,r8)
    2b56:	00 07       	mul.l	r0,r0
    2b58:	50 03       	mov.l	@(12,r0),r0
    2b5a:	7e 20       	add	#32,r14
    2b5c:	9e 6e       	mov.w	2c3c <_sddrv_129i+0x2c3c>,r14	! 182a
    2b5e:	18 2a       	mov.l	r2,@(40,r8)
    2b60:	67 3c       	extu.b	r3,r7
    2b62:	53 47       	mov.l	@(28,r4),r3
    2b64:	49 ee       	ldc	r9,r6_bank
    2b66:	10 00       	mov.l	r0,@(0,r0)
    2b68:	30 2e       	addc	r2,r0
    2b6a:	18 22       	mov.l	r2,@(8,r8)
    2b6c:	02 40       	.word 0x0240
    2b6e:	00 3e       	mov.l	@(r0,r3),r0
    2b70:	38 30       	cmp/eq	r3,r8
    2b72:	00 00       	.word 0x0000
    2b74:	02 44       	mov.b	r4,@(r0,r2)
    2b76:	07 c0       	.word 0x07c0
    2b78:	1a 34       	mov.l	r3,@(16,r10)
    2b7a:	40 34       	.word 0x4034
    2b7c:	6b 1a       	negc	r1,r11
    2b7e:	b2 34       	bsr	2fea <_sddrv_129i+0x2fea>
    2b80:	40 01       	shlr	r0
    2b82:	66 14       	mov.b	@r1+,r6
    2b84:	3a 34       	div1	r3,r10
    2b86:	40 06       	lds.l	@r0+,mach
    2b88:	ba 6e       	bsr	2068 <_sddrv_129i+0x2068>
    2b8a:	18 00       	mov.l	r0,@(0,r8)
    2b8c:	66 0a       	negc	r0,r6
    2b8e:	4e ba       	.word 0x4eba
    2b90:	01 7a       	.word 0x017a
    2b92:	53 6e       	mov.l	@(56,r6),r3
    2b94:	18 24       	mov.l	r2,@(16,r8)
    2b96:	67 46       	mov.l	@r4+,r7
    2b98:	54 40       	mov.l	@(0,r4),r4
    2b9a:	51 cf       	mov.l	@(60,r12),r1
    2b9c:	ff d0       	fadd	fr13,fr15
    2b9e:	3e 3c       	add	r3,r14
    2ba0:	00 1f       	mac.l	@r1+,@r0+
    2ba2:	30 2e       	addc	r2,r0
    2ba4:	18 20       	mov.l	r2,@(0,r8)
    2ba6:	3a 2e       	addc	r2,r10
    2ba8:	18 2a       	mov.l	r2,@(40,r8)
    2baa:	53 45       	mov.l	@(20,r4),r3
    2bac:	64 06       	mov.l	@r0+,r4
    2bae:	54 6e       	mov.l	@(56,r6),r4
    2bb0:	18 22       	mov.l	r2,@(8,r8)
    2bb2:	52 45       	mov.l	@(20,r4),r2
    2bb4:	3d 45       	dmulu.l	r4,r13
    2bb6:	18 2a       	mov.l	r2,@(40,r8)
    2bb8:	02 40       	.word 0x0240
    2bba:	00 3e       	mov.l	@(r0,r3),r0
    2bbc:	38 30       	cmp/eq	r3,r8
    2bbe:	00 00       	.word 0x0000
    2bc0:	02 44       	mov.b	r4,@(r0,r2)
    2bc2:	07 c0       	.word 0x07c0
    2bc4:	54 6e       	mov.l	@(56,r6),r4
    2bc6:	18 20       	mov.l	r2,@(0,r8)
    2bc8:	1c 34       	mov.l	r3,@(16,r12)
    2bca:	40 34       	.word 0x4034
    2bcc:	6b 0a       	negc	r0,r11
    2bce:	4e ba       	.word 0x4eba
    2bd0:	01 3a       	stc	sgr,r1
    2bd2:	53 6e       	mov.l	@(56,r6),r3
    2bd4:	18 24       	mov.l	r2,@(16,r8)
    2bd6:	67 06       	mov.l	@r0+,r7
    2bd8:	54 40       	mov.l	@(0,r4),r4
    2bda:	51 cf       	mov.l	@(60,r12),r1
    2bdc:	ff ca       	fmov	fr12,@r15
    2bde:	4e fa       	ldc	r14,dbr
    2be0:	00 92       	stc	r1_bank,r0
    2be2:	1d bc       	mov.l	r11,@(48,r13)
    2be4:	00 00       	.word 0x0000
    2be6:	50 0a       	mov.l	@(40,r0),r0
    2be8:	49 ee       	ldc	r9,r6_bank
    2bea:	10 00       	mov.l	r0,@(0,r0)
    2bec:	7e 20       	add	#32,r14
    2bee:	9e 6e       	mov.w	2cce <_sddrv_129i+0x2cce>,r14	! 10
    2bf0:	18 2a       	mov.l	r2,@(40,r8)
    2bf2:	67 3e       	exts.b	r3,r7
    2bf4:	53 47       	mov.l	@(28,r4),r3
    2bf6:	30 2e       	addc	r2,r0
    2bf8:	18 22       	mov.l	r2,@(8,r8)
    2bfa:	02 40       	.word 0x0240
    2bfc:	00 3e       	mov.l	@(r0,r3),r0
    2bfe:	38 30       	cmp/eq	r3,r8
    2c00:	00 00       	.word 0x0000
    2c02:	02 44       	mov.b	r4,@(r0,r2)
    2c04:	07 c0       	.word 0x07c0
    2c06:	1a 34       	mov.l	r3,@(16,r10)
    2c08:	40 34       	.word 0x4034
    2c0a:	6b 20       	mov.b	@r2,r11
    2c0c:	b2 34       	bsr	3078 <_sddrv_129i+0x3078>
    2c0e:	40 01       	shlr	r0
    2c10:	66 1a       	negc	r1,r6
    2c12:	b4 34       	bsr	347e <_sddrv_129i+0x347e>
    2c14:	40 02       	sts.l	mach,@-r0
    2c16:	66 14       	mov.b	@r1+,r6
    2c18:	3a 34       	div1	r3,r10
    2c1a:	40 06       	lds.l	@r0+,mach
    2c1c:	ba 6e       	bsr	20fc <_sddrv_129i+0x20fc>
    2c1e:	18 00       	mov.l	r0,@(0,r8)
    2c20:	66 0a       	negc	r0,r6
    2c22:	4e ba       	.word 0x4eba
    2c24:	00 e6       	mov.l	r14,@(r0,r0)
    2c26:	53 6e       	mov.l	@(56,r6),r3
    2c28:	18 24       	mov.l	r2,@(16,r8)
    2c2a:	67 46       	mov.l	@r4+,r7
    2c2c:	54 40       	mov.l	@(0,r4),r4
    2c2e:	51 cf       	mov.l	@(60,r12),r1
    2c30:	ff ca       	fmov	fr12,@r15
    2c32:	3e 3c       	add	r3,r14
    2c34:	00 1f       	mac.l	@r1+,@r0+
    2c36:	30 2e       	addc	r2,r0
    2c38:	18 20       	mov.l	r2,@(0,r8)
    2c3a:	3a 2e       	addc	r2,r10
    2c3c:	18 2a       	mov.l	r2,@(40,r8)
    2c3e:	53 45       	mov.l	@(20,r4),r3
    2c40:	64 06       	mov.l	@r0+,r4
    2c42:	54 6e       	mov.l	@(56,r6),r4
    2c44:	18 22       	mov.l	r2,@(8,r8)
    2c46:	52 45       	mov.l	@(20,r4),r2
    2c48:	3d 45       	dmulu.l	r4,r13
    2c4a:	18 2a       	mov.l	r2,@(40,r8)
    2c4c:	02 40       	.word 0x0240
    2c4e:	00 3e       	mov.l	@(r0,r3),r0
    2c50:	38 30       	cmp/eq	r3,r8
    2c52:	00 00       	.word 0x0000
    2c54:	02 44       	mov.b	r4,@(r0,r2)
    2c56:	07 c0       	.word 0x07c0
    2c58:	54 6e       	mov.l	@(56,r6),r4
    2c5a:	18 20       	mov.l	r2,@(0,r8)
    2c5c:	1c 34       	mov.l	r3,@(16,r12)
    2c5e:	40 34       	.word 0x4034
    2c60:	6b 0a       	negc	r0,r11
    2c62:	4e ba       	.word 0x4eba
    2c64:	00 a6       	mov.l	r10,@(r0,r0)
    2c66:	53 6e       	mov.l	@(56,r6),r3
    2c68:	18 24       	mov.l	r2,@(16,r8)
    2c6a:	67 06       	mov.l	@r0+,r7
    2c6c:	54 40       	mov.l	@(0,r4),r4
    2c6e:	51 cf       	mov.l	@(60,r12),r1
    2c70:	ff ca       	fmov	fr12,@r15
    2c72:	43 ee       	ldc	r3,r6_bank
    2c74:	19 00       	mov.l	r0,@(0,r9)
    2c76:	3e 2e       	addc	r2,r14
    2c78:	18 28       	mov.l	r2,@(32,r8)
    2c7a:	53 47       	mov.l	@(28,r4),r3
    2c7c:	24 51       	mov.w	r5,@r4
    2c7e:	38 29       	.word 0x3829
    2c80:	00 04       	mov.b	r0,@(r0,r0)
    2c82:	e2 4c       	mov	#76,r2
    2c84:	1a 35       	mov.l	r3,@(20,r10)
    2c86:	40 00       	shll	r0
    2c88:	02 05       	mov.w	r0,@(r0,r2)
    2c8a:	00 07       	mul.l	r0,r0
    2c8c:	08 2e       	mov.l	@(r0,r2),r8
    2c8e:	00 05       	mov.w	r0,@(r0,r0)
    2c90:	18 15       	mov.l	r1,@(20,r8)
    2c92:	67 04       	mov.b	@r0+,r7
    2c94:	00 05       	mov.w	r0,@(r0,r0)
    2c96:	00 18       	sett	
    2c98:	00 05       	mov.w	r0,@(r0,r0)
    2c9a:	00 08       	clrt	
    2c9c:	1b 85       	mov.l	r8,@(20,r11)
    2c9e:	40 00       	shll	r0
    2ca0:	d8 44       	mov.l	2db4 <_sddrv_129i+0x2db4>,r8	! e08c05
    2ca2:	30 2a       	subc	r2,r0
    2ca4:	00 10       	.word 0x0010
    2ca6:	67 1c       	extu.b	r1,r7
    2ca8:	12 2a       	mov.l	r2,@(40,r2)
    2caa:	00 1b       	sleep	
    2cac:	4e ba       	.word 0x4eba
    2cae:	00 26       	mov.l	r2,@(r0,r0)
    2cb0:	80 43       	mov.b	r0,@(3,r4)
    2cb2:	12 2a       	mov.l	r2,@(40,r2)
    2cb4:	00 1c       	mov.b	@(r0,r1),r0
    2cb6:	4e ba       	.word 0x4eba
    2cb8:	00 1c       	mov.b	@(r0,r1),r0
    2cba:	ec 4b       	mov	#75,r12
    2cbc:	80 43       	mov.b	r0,@(3,r4)
    2cbe:	e2 4c       	mov	#76,r2
    2cc0:	3b 80       	cmp/eq	r8,r11
    2cc2:	40 0e       	ldc	r0,sr
    2cc4:	50 49       	mov.l	@(36,r4),r0
    2cc6:	51 cf       	mov.l	@(60,r12),r1
    2cc8:	ff b4       	fcmp/eq	fr11,fr15
    2cca:	10 15       	mov.l	r1,@(20,r0)
    2ccc:	00 00       	.word 0x0000
    2cce:	00 10       	.word 0x0010
    2cd0:	1a 80       	mov.l	r8,@(0,r10)
    2cd2:	4e 75       	.word 0x4e75
    2cd4:	14 01       	mov.l	r0,@(4,r4)
    2cd6:	02 01       	.word 0x0201
    2cd8:	00 7f       	mac.l	@r7+,@r0+
    2cda:	41 ee       	ldc	r1,r6_bank
    2cdc:	19 00       	mov.l	r0,@(0,r9)
    2cde:	b2 28       	bsr	3132 <_sddrv_129i+0x3132>
    2ce0:	00 07       	mul.l	r0,r0
    2ce2:	67 04       	mov.b	@r0+,r7
    2ce4:	50 48       	mov.l	@(32,r4),r0
    2ce6:	60 f6       	mov.l	@r15+,r0
    2ce8:	36 28       	sub	r2,r6
    2cea:	00 04       	mov.b	r0,@(r0,r0)
    2cec:	96 44       	mov.w	2d78 <_sddrv_129i+0x2d78>,r6	! 1b86
    2cee:	02 43       	.word 0x0243
    2cf0:	07 c0       	.word 0x07c0
    2cf2:	0c 43       	.word 0x0c43
    2cf4:	07 00       	.word 0x0700
    2cf6:	65 04       	mov.b	@r0+,r5
    2cf8:	06 43       	.word 0x0643
    2cfa:	08 00       	.word 0x0800
    2cfc:	14 02       	mov.l	r0,@(8,r4)
    2cfe:	6a 04       	mov.b	@r0+,r10
    2d00:	06 43       	.word 0x0643
    2d02:	08 00       	.word 0x0800
    2d04:	02 43       	.word 0x0243
    2d06:	0f c0       	.word 0x0fc0
    2d08:	4e 75       	.word 0x4e75
    2d0a:	e2 4c       	mov	#76,r2
    2d0c:	1a 35       	mov.l	r3,@(20,r10)
    2d0e:	40 00       	shll	r0
    2d10:	02 05       	mov.w	r0,@(r0,r2)
    2d12:	00 07       	mul.l	r0,r0
    2d14:	00 05       	mov.w	r0,@(r0,r0)
    2d16:	00 10       	.word 0x0010
    2d18:	1b 85       	mov.l	r8,@(20,r11)
    2d1a:	40 00       	shll	r0
    2d1c:	d8 44       	mov.l	2e30 <_sddrv_129i+0x2e30>,r8	! 12191419
    2d1e:	08 f4       	mov.b	r15,@(r0,r8)
    2d20:	00 01       	.word 0x0001
    2d22:	40 05       	rotr	r0
    2d24:	08 f4       	mov.b	r15,@(r0,r8)
    2d26:	00 03       	bsrf	r0
    2d28:	40 05       	rotr	r0
    2d2a:	39 ae       	addc	r10,r9
    2d2c:	18 00       	mov.l	r0,@(0,r8)
    2d2e:	40 06       	lds.l	@r0+,mach
    2d30:	19 81       	mov.l	r8,@(4,r9)
    2d32:	40 01       	shlr	r0
    2d34:	19 82       	mov.l	r8,@(8,r9)
    2d36:	40 02       	sts.l	mach,@-r0
    2d38:	19 83       	mov.l	r8,@(12,r9)
    2d3a:	40 03       	stc.l	sr,@-r0
    2d3c:	48 47       	ldc.l	@r8+,spc
    2d3e:	45 ee       	ldc	r5,r6_bank
    2d40:	19 00       	mov.l	r0,@(0,r9)
    2d42:	35 84       	div1	r8,r5
    2d44:	70 04       	add	#4,r0
    2d46:	24 72       	mov.l	r7,@r4
    2d48:	70 00       	add	#0,r0
    2d4a:	3c 2a       	subc	r2,r12
    2d4c:	00 10       	.word 0x0010
    2d4e:	29 8a       	xor	r8,r9
    2d50:	40 08       	shll2	r0
    2d52:	2a 2a       	xor	r2,r10
    2d54:	00 02       	stc	sr,r0
    2d56:	da 8b       	mov.l	2f84 <_sddrv_129i+0x2f84>,r10	! e24a45fa
    2d58:	e2 4c       	mov	#76,r2
    2d5a:	2b 85       	mov.w	r8,@-r11
    2d5c:	40 00       	shll	r0
    2d5e:	3b 86       	cmp/hi	r8,r11
    2d60:	40 0e       	ldc	r0,sr
    2d62:	2a 2a       	xor	r2,r10
    2d64:	00 06       	mov.l	r0,@(r0,r0)
    2d66:	2b 85       	mov.w	r8,@-r11
    2d68:	40 04       	rotl	r0
    2d6a:	2b aa       	xor	r10,r11
    2d6c:	00 0a       	sts	mach,r0
    2d6e:	40 08       	shll2	r0
    2d70:	1c 2a       	mov.l	r2,@(40,r12)
    2d72:	00 0e       	mov.l	@(r0,r0),r0
    2d74:	3a 2a       	subc	r2,r10
    2d76:	00 14       	mov.b	r1,@(r0,r0)
    2d78:	1b 86       	mov.l	r8,@(24,r11)
    2d7a:	40 0c       	shad	r0,r0
    2d7c:	6a 04       	mov.b	@r0+,r10
    2d7e:	02 45       	mov.w	r4,@(r0,r2)
    2d80:	ff 18       	fmov	@r1,fr15
    2d82:	3b 85       	dmulu.l	r8,r11
    2d84:	40 12       	sts.l	macl,@-r0
    2d86:	3b aa       	subc	r10,r11
    2d88:	00 16       	mov.l	r1,@(r0,r0)
    2d8a:	40 14       	.word 0x4014
    2d8c:	1c 2a       	mov.l	r2,@(40,r12)
    2d8e:	00 18       	sett	
    2d90:	1a 2e       	mov.l	r2,@(56,r10)
    2d92:	18 31       	mov.l	r3,@(4,r8)
    2d94:	6a 06       	mov.l	@r0+,r10
    2d96:	02 06       	mov.l	r0,@(r0,r2)
    2d98:	00 e0       	.word 0x00e0
    2d9a:	60 1c       	extu.b	r1,r0
    2d9c:	3a 2e       	addc	r2,r10
    2d9e:	18 0a       	mov.l	r0,@(40,r8)
    2da0:	1a 36       	mov.l	r3,@(24,r10)
    2da2:	50 01       	mov.l	@(4,r0),r0
    2da4:	08 05       	mov.w	r0,@(r0,r8)
    2da6:	00 06       	mov.l	r0,@(r0,r0)
    2da8:	66 04       	mov.b	@r0+,r6
    2daa:	1a 05       	mov.l	r0,@(20,r10)
    2dac:	6a 0a       	negc	r0,r10
    2dae:	02 05       	mov.w	r0,@(r0,r2)
    2db0:	00 1f       	mac.l	@r1+,@r0+
    2db2:	02 06       	mov.l	r0,@(r0,r2)
    2db4:	00 e0       	.word 0x00e0
    2db6:	8c 05       	.word 0x8c05
    2db8:	1b 86       	mov.l	r8,@(24,r11)
    2dba:	40 16       	lds.l	@r0+,macl
    2dbc:	d8 44       	mov.l	2ed0 <_sddrv_129i+0x2ed0>,r8	! e24c3a2e
    2dbe:	19 46       	mov.l	r4,@(24,r9)
    2dc0:	00 04       	mov.b	r0,@(r0,r0)
    2dc2:	e2 4c       	mov	#76,r2
    2dc4:	42 46       	.word 0x4246
    2dc6:	08 2a       	sts	pr,r8
    2dc8:	00 05       	mov.w	r0,@(r0,r0)
    2dca:	00 02       	stc	sr,r0
    2dcc:	66 26       	mov.l	@r2+,r6
    2dce:	1c 2a       	mov.l	r2,@(40,r12)
    2dd0:	00 17       	mul.l	r1,r0
    2dd2:	02 06       	mov.l	r0,@(r0,r2)
    2dd4:	00 07       	mul.l	r0,r0
    2dd6:	66 1c       	extu.b	r1,r6
    2dd8:	1c 2a       	mov.l	r2,@(40,r12)
    2dda:	00 18       	sett	
    2ddc:	02 06       	mov.l	r0,@(r0,r2)
    2dde:	00 e0       	.word 0x00e0
    2de0:	66 12       	mov.l	@r1,r6
    2de2:	1c 2a       	mov.l	r2,@(40,r12)
    2de4:	00 0f       	mac.l	@r0+,@r0+
    2de6:	d8 44       	mov.l	2ef8 <_sddrv_129i+0x2ef8>,r8	! 44059c05
    2de8:	08 b4       	mov.b	r11,@(r0,r8)
    2dea:	00 00       	.word 0x0000
    2dec:	40 05       	rotr	r0
    2dee:	e2 4c       	mov	#76,r2
    2df0:	60 00       	mov.b	@r0,r0
    2df2:	01 10       	.word 0x0110
    2df4:	d8 44       	mov.l	2f08 <_sddrv_129i+0x2f08>,r8	! d84408b4
    2df6:	08 f4       	mov.b	r15,@(r0,r8)
    2df8:	00 00       	.word 0x0000
    2dfa:	40 05       	rotr	r0
    2dfc:	e2 4c       	mov	#76,r2
    2dfe:	1c 03       	mov.l	r0,@(12,r12)
    2e00:	48 41       	.word 0x4841
    2e02:	48 42       	.word 0x4842
    2e04:	48 43       	stc.l	spc,@-r8
    2e06:	22 4b       	or	r4,r2
    2e08:	d2 e9       	mov.l	31b0 <_sddrv_129i+0x31b0>,r2	! 182c5346
    2e0a:	00 02       	stc	sr,r0
    2e0c:	7a 00       	add	#0,r10
    2e0e:	1a 2a       	mov.l	r2,@(40,r10)
    2e10:	00 1d       	mov.w	@(r0,r1),r0
    2e12:	da 45       	mov.l	2f28 <_sddrv_129i+0x2f28>,r10	! 26704
    2e14:	d3 c5       	mov.l	312c <_sddrv_129i+0x312c>,r3	! 6600006e
    2e16:	da 45       	mov.l	2f2c <_sddrv_129i+0x2f2c>,r10	! 4eba00fc
    2e18:	da 45       	mov.l	2f30 <_sddrv_129i+0x2f30>,r10	! e24c4eba
    2e1a:	d3 c5       	mov.l	3130 <_sddrv_129i+0x3130>,r3	! 8b40003
    2e1c:	42 41       	.word 0x4241
    2e1e:	42 42       	.word 0x4242
    2e20:	16 19       	mov.l	r1,@(36,r6)
    2e22:	bc 11       	bsr	2648 <_sddrv_129i+0x2648>
    2e24:	63 1a       	negc	r1,r3
    2e26:	12 19       	mov.l	r1,@(36,r2)
    2e28:	14 19       	mov.l	r1,@(36,r4)
    2e2a:	16 19       	mov.l	r1,@(36,r6)
    2e2c:	bc 11       	bsr	2652 <_sddrv_129i+0x2652>
    2e2e:	63 10       	mov.b	@r1,r3
    2e30:	12 19       	mov.l	r1,@(36,r2)
    2e32:	14 19       	mov.l	r1,@(36,r4)
    2e34:	16 19       	mov.l	r1,@(36,r6)
    2e36:	bc 11       	bsr	265c <_sddrv_129i+0x265c>
    2e38:	63 06       	mov.l	@r0+,r3
    2e3a:	12 19       	mov.l	r1,@(36,r2)
    2e3c:	14 19       	mov.l	r1,@(36,r4)
    2e3e:	16 19       	mov.l	r1,@(36,r6)
    2e40:	9c 01       	mov.w	2e46 <_sddrv_129i+0x2e46>,r12	! 7
    2e42:	12 03       	mov.l	r0,@(12,r2)
    2e44:	02 41       	.word 0x0241
    2e46:	00 07       	mul.l	r0,r0
    2e48:	d2 41       	mov.l	2f50 <_sddrv_129i+0x2f50>,r2	! 4886da46
    2e4a:	e8 0b       	mov	#11,r8
    2e4c:	4e fb       	.word 0x4efb
    2e4e:	10 02       	mov.l	r0,@(8,r0)
    2e50:	60 0e       	exts.b	r0,r0
    2e52:	60 18       	swap.b	r1,r0
    2e54:	60 0c       	extu.b	r0,r0
    2e56:	60 48       	swap.b	r4,r0
    2e58:	60 06       	mov.l	@r0+,r0
    2e5a:	60 4a       	negc	r4,r0
    2e5c:	60 08       	swap.b	r0,r0
    2e5e:	60 28       	swap.b	r2,r0
    2e60:	7c 00       	add	#0,r12
    2e62:	dc 02       	mov.l	2e6c <_sddrv_129i+0x2e6c>,r12	! 6506e72e
    2e64:	60 46       	mov.l	@r4+,r0
    2e66:	9c 02       	mov.w	2e6e <_sddrv_129i+0x2e6e>,r12	! e72e
    2e68:	44 06       	lds.l	@r4+,mach
    2e6a:	60 40       	mov.b	@r4,r0
    2e6c:	65 06       	mov.l	@r0+,r5
    2e6e:	e7 2e       	mov	#46,r7
    2e70:	dc 02       	mov.l	2e7c <_sddrv_129i+0x2e7c>,r12	! dc41dc41
    2e72:	60 38       	swap.b	r3,r0
    2e74:	02 46       	mov.l	r4,@(r0,r2)
    2e76:	00 7f       	mac.l	@r7+,@r0+
    2e78:	e5 4e       	mov	#78,r5
    2e7a:	32 06       	cmp/hi	r0,r2
    2e7c:	dc 41       	mov.l	2f84 <_sddrv_129i+0x2f84>,r12	! e24a45fa
    2e7e:	dc 41       	mov.l	2f84 <_sddrv_129i+0x2f84>,r12	! e24a45fa
    2e80:	e7 6e       	mov	#110,r7
    2e82:	e6 4e       	mov	#78,r6
    2e84:	dc 02       	mov.l	2e90 <_sddrv_129i+0x2e90>,r12	! 7fe54e
    2e86:	60 24       	mov.b	@r2+,r0
    2e88:	65 04       	mov.b	@r0+,r5
    2e8a:	e7 2e       	mov	#46,r7
    2e8c:	60 1a       	negc	r1,r0
    2e8e:	02 46       	mov.l	r4,@(r0,r2)
    2e90:	00 7f       	mac.l	@r7+,@r0+
    2e92:	e5 4e       	mov	#78,r5
    2e94:	32 06       	cmp/hi	r0,r2
    2e96:	dc 41       	mov.l	2f9c <_sddrv_129i+0x2f9c>,r12	! c4204d9
    2e98:	dc 41       	mov.l	2fa0 <_sddrv_129i+0x2fa0>,r12	! 65040645
    2e9a:	e7 6e       	mov	#110,r7
    2e9c:	e6 4e       	mov	#78,r6
    2e9e:	60 08       	swap.b	r0,r0
    2ea0:	e6 2e       	mov	#46,r6
    2ea2:	dc 02       	mov.l	2eac <_sddrv_129i+0x2eac>,r12	! 6a0c4242
    2ea4:	60 06       	mov.l	@r0+,r0
    2ea6:	e6 2e       	mov	#46,r6
    2ea8:	9c 02       	mov.w	2eb0 <_sddrv_129i+0x2eb0>,r12	! dc06
    2eaa:	44 06       	lds.l	@r4+,mach
    2eac:	6a 0c       	extu.b	r0,r10
    2eae:	42 42       	.word 0x4242
    2eb0:	dc 06       	mov.l	2ecc <_sddrv_129i+0x2ecc>,r12	! 39864036
    2eb2:	6b 04       	mov.b	@r0+,r11
    2eb4:	34 3c       	add	r3,r4
    2eb6:	00 7f       	mac.l	@r7+,@r0+
    2eb8:	3c 02       	cmp/hs	r0,r12
    2eba:	48 41       	.word 0x4841
    2ebc:	48 42       	.word 0x4842
    2ebe:	48 43       	stc.l	spc,@-r8
    2ec0:	dc 46       	mov.l	2fdc <_sddrv_129i+0x2fdc>,r12	! 39804018
    2ec2:	1a 2a       	mov.l	r2,@(40,r10)
    2ec4:	00 0f       	mac.l	@r0+,@r0+
    2ec6:	46 05       	rotr	r6
    2ec8:	cc c5       	tst.b	#-59,@(r0,gbr)
    2eca:	d8 44       	mov.l	2fdc <_sddrv_129i+0x2fdc>,r8	! 39804018
    2ecc:	39 86       	cmp/hi	r8,r9
    2ece:	40 36       	ldc.l	@r0+,sgr
    2ed0:	e2 4c       	mov	#76,r2
    2ed2:	3a 2e       	addc	r2,r10
    2ed4:	18 0a       	mov.l	r0,@(40,r8)
    2ed6:	1a 36       	mov.l	r3,@(24,r10)
    2ed8:	50 02       	mov.l	@(8,r0),r0
    2eda:	da 05       	mov.l	2ef0 <_sddrv_129i+0x2ef0>,r10	! 640e1c3c
    2edc:	02 45       	mov.w	r4,@(r0,r2)
    2ede:	00 ff       	mac.l	@r15+,@r0+
    2ee0:	cc c5       	tst.b	#-59,@(r0,gbr)
    2ee2:	48 46       	.word 0x4846
    2ee4:	3a 2e       	addc	r2,r10
    2ee6:	18 0a       	mov.l	r0,@(40,r8)
    2ee8:	1a 36       	mov.l	r3,@(24,r10)
    2eea:	50 0e       	mov.l	@(56,r0),r0
    2eec:	6b 0a       	negc	r0,r11
    2eee:	dc 05       	mov.l	2f04 <_sddrv_129i+0x2f04>,r12	! 400d4842
    2ef0:	64 0e       	exts.b	r0,r4
    2ef2:	1c 3c       	mov.l	r3,@(48,r12)
    2ef4:	00 ff       	mac.l	@r15+,@r0+
    2ef6:	60 08       	swap.b	r0,r0
    2ef8:	44 05       	rotr	r4
    2efa:	9c 05       	mov.w	2f08 <_sddrv_129i+0x2f08>,r12	! d844
    2efc:	64 02       	mov.l	@r0,r4
    2efe:	42 46       	.word 0x4246
    2f00:	46 06       	lds.l	@r6+,mach
    2f02:	1b 86       	mov.l	r8,@(24,r11)
    2f04:	40 0d       	shld	r0,r0
    2f06:	48 42       	.word 0x4842
    2f08:	d8 44       	mov.l	301c <_sddrv_129i+0x301c>,r8	! 40104014
    2f0a:	08 b4       	mov.b	r11,@(r0,r8)
    2f0c:	00 05       	mov.w	r0,@(r0,r0)
    2f0e:	40 00       	shll	r0
    2f10:	08 2a       	sts	pr,r8
    2f12:	00 06       	mov.l	r0,@(r0,r0)
    2f14:	00 02       	stc	sr,r0
    2f16:	67 04       	mov.b	@r0+,r7
    2f18:	4e ba       	.word 0x4eba
    2f1a:	00 9e       	mov.l	@(r0,r9),r0
    2f1c:	42 45       	.word 0x4245
    2f1e:	08 b4       	mov.b	r11,@(r0,r8)
    2f20:	00 06       	mov.l	r0,@(r0,r0)
    2f22:	40 00       	shll	r0
    2f24:	08 2a       	sts	pr,r8
    2f26:	00 07       	mul.l	r0,r0
    2f28:	00 02       	stc	sr,r0
    2f2a:	67 04       	mov.b	@r0+,r7
    2f2c:	4e ba       	.word 0x4eba
    2f2e:	00 fc       	mov.b	@(r0,r15),r0
    2f30:	e2 4c       	mov	#76,r2
    2f32:	4e ba       	.word 0x4eba
    2f34:	00 12       	stc	gbr,r0
    2f36:	08 b5       	mov.w	r11,@(r0,r8)
    2f38:	00 07       	mul.l	r0,r0
    2f3a:	40 12       	sts.l	macl,@-r0
    2f3c:	48 42       	.word 0x4842
    2f3e:	50 47       	mov.l	@(28,r4),r0
    2f40:	48 47       	ldc.l	@r8+,spc
    2f42:	d8 44       	mov.l	3054 <_sddrv_129i+0x3054>,r8	! 4eba0abc
    2f44:	4e 75       	.word 0x4e75
    2f46:	d8 44       	mov.l	3058 <_sddrv_129i+0x3058>,r8	! e4483980
    2f48:	42 46       	.word 0x4246
    2f4a:	42 42       	.word 0x4242
    2f4c:	1c 2a       	mov.l	r2,@(40,r12)
    2f4e:	00 1a       	sts	macl,r0
    2f50:	48 86       	.word 0x4886
    2f52:	da 46       	mov.l	306c <_sddrv_129i+0x306c>,r10	! 42403980
    2f54:	3c 05       	dmulu.l	r0,r12
    2f56:	e0 4e       	mov	#78,r0
    2f58:	14 34       	mov.l	r3,@(16,r4)
    2f5a:	40 02       	sts.l	mach,@-r0
    2f5c:	dc 42       	mov.l	3068 <_sddrv_129i+0x3068>,r12	! 40203a00
    2f5e:	06 46       	mov.l	r4,@(r0,r6)
    2f60:	00 60       	.word 0x0060
    2f62:	14 2a       	mov.l	r2,@(40,r4)
    2f64:	00 19       	div0u	
    2f66:	9c 42       	mov.w	2fee <_sddrv_129i+0x2fee>,r12	! 2986
    2f68:	02 46       	mov.l	r4,@(r0,r2)
    2f6a:	00 ff       	mac.l	@r15+,@r0+
    2f6c:	45 fa       	ldc	r5,dbr
    2f6e:	04 e4       	mov.b	r14,@(r0,r4)
    2f70:	1c 32       	mov.l	r3,@(8,r12)
    2f72:	60 00       	mov.b	@r0,r0
    2f74:	ef 4e       	mov	#78,r15
    2f76:	34 06       	cmp/hi	r0,r4
    2f78:	02 46       	mov.l	r4,@(r0,r2)
    2f7a:	78 00       	add	#0,r8
    2f7c:	d4 42       	mov.l	3088 <_sddrv_129i+0x3088>,r4	! 6700005c
    2f7e:	14 05       	mov.l	r0,@(20,r4)
    2f80:	02 42       	stc	spc,r2
    2f82:	0f fe       	mov.l	@(r0,r15),r15
    2f84:	e2 4a       	mov	#74,r2
    2f86:	45 fa       	ldc	r5,dbr
    2f88:	05 8a       	.word 0x058a
    2f8a:	42 45       	.word 0x4245
    2f8c:	1a 32       	mov.l	r3,@(8,r10)
    2f8e:	20 00       	mov.b	r0,@r0
    2f90:	0c 42       	stc	spc,r12
    2f92:	01 ef       	mac.l	@r14+,@r1+
    2f94:	65 18       	swap.b	r1,r5
    2f96:	0c 42       	stc	spc,r12
    2f98:	03 83       	pref	@r3
    2f9a:	65 0e       	exts.b	r0,r5
    2f9c:	0c 42       	stc	spc,r12
    2f9e:	04 d9       	.word 0x04d9
    2fa0:	65 04       	mov.b	@r0+,r5
    2fa2:	06 45       	mov.w	r4,@(r0,r6)
    2fa4:	01 00       	.word 0x0100
    2fa6:	06 45       	mov.w	r4,@(r0,r6)
    2fa8:	01 00       	.word 0x0100
    2faa:	06 45       	mov.w	r4,@(r0,r6)
    2fac:	01 00       	.word 0x0100
    2fae:	8c 45       	.word 0x8c45
    2fb0:	e2 4c       	mov	#76,r2
    2fb2:	3b 86       	cmp/hi	r8,r11
    2fb4:	40 10       	dt	r0
    2fb6:	4e 75       	.word 0x4e75
    2fb8:	48 40       	.word 0x4840
    2fba:	7c 00       	add	#0,r12
    2fbc:	29 86       	mov.l	r8,@-r9
    2fbe:	40 0c       	shad	r0,r0
    2fc0:	22 4b       	or	r4,r2
    2fc2:	3c 29       	.word 0x3c29
    2fc4:	00 06       	mov.l	r0,@(r0,r0)
    2fc6:	d3 c6       	mov.l	32e0 <_sddrv_129i+0x32e0>,r3	! 4eba00ea
    2fc8:	42 42       	.word 0x4242
    2fca:	14 2a       	mov.l	r2,@(40,r4)
    2fcc:	00 1f       	mac.l	@r1+,@r0+
    2fce:	d4 42       	mov.l	30d8 <_sddrv_129i+0x30d8>,r4	! 1dbc0000
    2fd0:	d4 42       	mov.l	30dc <_sddrv_129i+0x30dc>,r4	! 500c4efa
    2fd2:	d2 c2       	mov.l	32dc <_sddrv_129i+0x32dc>,r2	! 4eba00e6
    2fd4:	10 19       	mov.l	r1,@(36,r0)
    2fd6:	4e ba       	.word 0x4eba
    2fd8:	0b 3a       	stc	sgr,r11
    2fda:	e4 48       	mov	#72,r4
    2fdc:	39 80       	cmp/eq	r8,r9
    2fde:	40 18       	shll8	r0
    2fe0:	10 19       	mov.l	r1,@(36,r0)
    2fe2:	4e ba       	.word 0x4eba
    2fe4:	0b 2e       	mov.l	@(r0,r2),r11
    2fe6:	3c 00       	cmp/eq	r0,r12
    2fe8:	48 46       	.word 0x4846
    2fea:	42 46       	.word 0x4246
    2fec:	e0 8e       	mov	#-114,r0
    2fee:	29 86       	mov.l	r8,@-r9
    2ff0:	40 10       	dt	r0
    2ff2:	10 19       	mov.l	r1,@(36,r0)
    2ff4:	4e ba       	.word 0x4eba
    2ff6:	0b 1c       	mov.b	@(r0,r1),r11
    2ff8:	e8 48       	mov	#72,r8
    2ffa:	39 80       	cmp/eq	r8,r9
    2ffc:	40 1a       	lds	r0,macl
    2ffe:	34 00       	cmp/eq	r0,r4
    3000:	10 11       	mov.l	r1,@(4,r0)
    3002:	4e ba       	.word 0x4eba
    3004:	0b 0e       	mov.l	@(r0,r0),r11
    3006:	ec 48       	mov	#72,r12
    3008:	66 04       	mov.b	@r0+,r6
    300a:	e2 4a       	mov	#74,r2
    300c:	60 04       	mov.b	@r0+,r0
    300e:	d0 40       	mov.l	3110 <_sddrv_129i+0x3110>,r0	! 6b00008a
    3010:	53 40       	mov.l	@(0,r4),r3
    3012:	39 82       	cmp/hs	r8,r9
    3014:	40 1c       	shad	r1,r0
    3016:	39 80       	cmp/eq	r8,r9
    3018:	40 1e       	ldc	r0,gbr
    301a:	29 b4       	mov.b	r11,@-r9
    301c:	40 10       	dt	r0
    301e:	40 14       	.word 0x4014
    3020:	08 f4       	mov.b	r15,@(r0,r8)
    3022:	00 05       	mov.w	r0,@(r0,r0)
    3024:	40 00       	shll	r0
    3026:	48 40       	.word 0x4840
    3028:	4e 75       	.word 0x4e75
    302a:	3d 40       	cmp/eq	r4,r13
    302c:	18 4a       	mov.l	r4,@(40,r8)
    302e:	19 bc       	mov.l	r11,@(48,r9)
    3030:	00 01       	.word 0x0001
    3032:	40 2e       	ldc	r0,vbr
    3034:	7c 00       	add	#0,r12
    3036:	22 4b       	or	r4,r2
    3038:	3c 29       	.word 0x3c29
    303a:	00 04       	mov.b	r0,@(r0,r0)
    303c:	d3 c6       	mov.l	3358 <_sddrv_129i+0x3358>,r3	! 51cffffc
    303e:	42 42       	.word 0x4242
    3040:	14 2a       	mov.l	r2,@(40,r4)
    3042:	00 1e       	mov.l	@(r0,r1),r0
    3044:	d4 42       	mov.l	3150 <_sddrv_129i+0x3150>,r4	! 64000
    3046:	d2 c2       	mov.l	3350 <_sddrv_129i+0x3350>,r2	! 70003e3c
    3048:	d4 42       	mov.l	3154 <_sddrv_129i+0x3154>,r4	! 67044eba
    304a:	d4 42       	mov.l	3154 <_sddrv_129i+0x3154>,r4	! 67044eba
    304c:	d2 c2       	mov.l	3358 <_sddrv_129i+0x3358>,r2	! 51cffffc
    304e:	29 89       	and	r8,r9
    3050:	40 30       	.word 0x4030
    3052:	10 19       	mov.l	r1,@(36,r0)
    3054:	4e ba       	.word 0x4eba
    3056:	0a bc       	mov.b	@(r0,r11),r10
    3058:	e4 48       	mov	#72,r4
    305a:	39 80       	cmp/eq	r8,r9
    305c:	40 2c       	shad	r2,r0
    305e:	10 19       	mov.l	r1,@(36,r0)
    3060:	4e ba       	.word 0x4eba
    3062:	0c f4       	mov.b	r15,@(r0,r12)
    3064:	48 40       	.word 0x4840
    3066:	39 80       	cmp/eq	r8,r9
    3068:	40 20       	shal	r0
    306a:	3a 00       	cmp/eq	r0,r10
    306c:	42 40       	.word 0x4240
    306e:	39 80       	cmp/eq	r8,r9
    3070:	40 22       	sts.l	pr,@-r0
    3072:	08 f4       	mov.b	r15,@(r0,r8)
    3074:	00 06       	mov.l	r0,@(r0,r0)
    3076:	40 00       	shll	r0
    3078:	30 2e       	addc	r2,r0
    307a:	18 4a       	mov.l	r4,@(40,r8)
    307c:	4e 75       	.word 0x4e75
    307e:	3a 2e       	addc	r2,r10
    3080:	18 0a       	mov.l	r0,@(40,r8)
    3082:	08 36       	mov.l	r3,@(r0,r8)
    3084:	00 07       	mul.l	r0,r0
    3086:	50 03       	mov.l	@(12,r0),r0
    3088:	67 00       	mov.b	@r0,r7
    308a:	00 5c       	mov.b	@(r0,r5),r0
    308c:	1c 36       	mov.l	r3,@(24,r12)
    308e:	50 0a       	mov.l	@(40,r0),r0
    3090:	67 1e       	exts.b	r1,r7
    3092:	bc 02       	bsr	289a <_sddrv_129i+0x289a>
    3094:	67 22       	mov.l	@r2,r7
    3096:	b4 36       	bsr	3906 <_sddrv_129i+0x3906>
    3098:	50 0b       	mov.l	@(44,r0),r0
    309a:	67 08       	swap.b	r0,r7
    309c:	b4 32       	bsr	3904 <_sddrv_129i+0x3904>
    309e:	50 0c       	mov.l	@(48,r0),r0
    30a0:	67 08       	swap.b	r0,r7
    30a2:	60 0c       	extu.b	r0,r0
    30a4:	1d b6       	mov.l	r11,@(24,r13)
    30a6:	50 0c       	mov.l	@(48,r0),r0
    30a8:	50 0b       	mov.l	@(44,r0),r0
    30aa:	1d bc       	mov.l	r11,@(48,r13)
    30ac:	00 00       	.word 0x0000
    30ae:	50 0c       	mov.l	@(48,r0),r0
    30b0:	08 f8       	.word 0x08f8
    30b2:	00 07       	mul.l	r0,r0
    30b4:	04 22       	stc	vbr,r4
    30b6:	4e 75       	.word 0x4e75
    30b8:	1c 36       	mov.l	r3,@(24,r12)
    30ba:	50 0b       	mov.l	@(44,r0),r0
    30bc:	67 24       	mov.b	@r2+,r7
    30be:	1d 86       	mov.l	r8,@(24,r13)
    30c0:	50 0a       	mov.l	@(40,r0),r0
    30c2:	14 06       	mov.l	r0,@(24,r4)
    30c4:	16 36       	mov.l	r3,@(24,r6)
    30c6:	50 0d       	mov.l	@(52,r0),r0
    30c8:	02 03       	bsrf	r2
    30ca:	00 7f       	mac.l	@r7+,@r0+
    30cc:	1d b6       	mov.l	r11,@(24,r13)
    30ce:	50 0c       	mov.l	@(48,r0),r0
    30d0:	50 0a       	mov.l	@(40,r0),r0
    30d2:	1d bc       	mov.l	r11,@(48,r13)
    30d4:	00 00       	.word 0x0000
    30d6:	50 0b       	mov.l	@(44,r0),r0
    30d8:	1d bc       	mov.l	r11,@(48,r13)
    30da:	00 00       	.word 0x0000
    30dc:	50 0c       	mov.l	@(48,r0),r0
    30de:	4e fa       	ldc	r14,dbr
    30e0:	f9 7c       	fmov	fr7,fr9
    30e2:	1d 86       	mov.l	r8,@(24,r13)
    30e4:	50 0a       	mov.l	@(40,r0),r0
    30e6:	41 ee       	ldc	r1,r6_bank
    30e8:	18 c0       	mov.l	r12,@(0,r8)
    30ea:	49 ee       	ldc	r9,r6_bank
    30ec:	10 00       	mov.l	r0,@(0,r0)
    30ee:	7e 20       	add	#32,r14
    30f0:	9e 6e       	mov.w	31d0 <_sddrv_129i+0x31d0>,r14	! 2
    30f2:	18 2a       	mov.l	r2,@(40,r8)
    30f4:	66 04       	mov.b	@r0+,r6
    30f6:	4e fa       	ldc	r14,dbr
    30f8:	e5 f0       	mov	#-16,r5
    30fa:	53 47       	mov.l	@(28,r4),r3
    30fc:	30 2e       	addc	r2,r0
    30fe:	18 22       	mov.l	r2,@(8,r8)
    3100:	02 40       	.word 0x0240
    3102:	00 3e       	mov.l	@(r0,r3),r0
    3104:	38 30       	cmp/eq	r3,r8
    3106:	00 00       	.word 0x0000
    3108:	02 44       	mov.b	r4,@(r0,r2)
    310a:	07 c0       	.word 0x07c0
    310c:	1c 34       	mov.l	r3,@(16,r12)
    310e:	40 34       	.word 0x4034
    3110:	6b 00       	mov.b	@r0,r11
    3112:	00 8a       	.word 0x008a
    3114:	b2 34       	bsr	3580 <_sddrv_129i+0x3580>
    3116:	40 01       	shlr	r0
    3118:	66 00       	mov.b	@r0,r6
    311a:	00 82       	stc	r0_bank,r0
    311c:	b4 34       	bsr	3988 <_sddrv_129i+0x3988>
    311e:	40 02       	sts.l	mach,@-r0
    3120:	66 00       	mov.b	@r0,r6
    3122:	00 7a       	.word 0x007a
    3124:	3c 34       	div1	r3,r12
    3126:	40 06       	lds.l	@r0+,mach
    3128:	bc 6e       	bsr	2a08 <_sddrv_129i+0x2a08>
    312a:	18 00       	mov.l	r0,@(0,r8)
    312c:	66 00       	mov.b	@r0,r6
    312e:	00 6e       	mov.l	@(r0,r6),r0
    3130:	08 b4       	mov.b	r11,@(r0,r8)
    3132:	00 03       	bsrf	r0
    3134:	40 05       	rotr	r0
    3136:	3c 2e       	addc	r2,r12
    3138:	18 0a       	mov.l	r0,@(40,r8)
    313a:	08 36       	mov.l	r3,@(r0,r8)
    313c:	00 06       	mov.l	r0,@(r0,r0)
    313e:	60 03       	mov	r0,r0
    3140:	66 00       	mov.b	@r0,r6
    3142:	00 5a       	sts	fpul,r0
    3144:	08 b4       	mov.b	r11,@(r0,r8)
    3146:	00 01       	.word 0x0001
    3148:	40 05       	rotr	r0
    314a:	52 6e       	mov.l	@(56,r6),r2
    314c:	18 2a       	mov.l	r2,@(40,r8)
    314e:	08 34       	mov.b	r3,@(r0,r8)
    3150:	00 06       	mov.l	r0,@(r0,r0)
    3152:	40 00       	shll	r0
    3154:	67 04       	mov.b	@r0+,r7
    3156:	4e ba       	.word 0x4eba
    3158:	00 ba       	.word 0x00ba
    315a:	e2 4c       	mov	#76,r2
    315c:	1a 35       	mov.l	r3,@(20,r10)
    315e:	40 00       	shll	r0
    3160:	02 05       	mov.w	r0,@(r0,r2)
    3162:	00 07       	mul.l	r0,r0
    3164:	00 05       	mov.w	r0,@(r0,r0)
    3166:	00 10       	.word 0x0010
    3168:	1b 85       	mov.l	r8,@(20,r11)
    316a:	40 00       	shll	r0
    316c:	d8 44       	mov.l	3280 <_sddrv_129i+0x3280>,r8	! 7c1f3d7c
    316e:	48 47       	ldc.l	@r8+,spc
    3170:	3a 2e       	addc	r2,r10
    3172:	18 22       	mov.l	r2,@(8,r8)
    3174:	02 45       	mov.w	r4,@(r0,r2)
    3176:	00 3e       	mov.l	@(r0,r3),r0
    3178:	3c 00       	cmp/eq	r0,r12
    317a:	3e 06       	cmp/hi	r0,r14
    317c:	ba 46       	bsr	260c <_sddrv_129i+0x260c>
    317e:	67 16       	mov.l	@r1+,r7
    3180:	38 30       	cmp/eq	r3,r8
    3182:	70 00       	add	#0,r0
    3184:	55 46       	mov.l	@(24,r4),r5
    3186:	02 46       	mov.l	r4,@(r0,r2)
    3188:	00 3e       	mov.l	@(r0,r3),r0
    318a:	31 b0       	cmp/eq	r11,r1
    318c:	60 00       	mov.b	@r0,r0
    318e:	70 00       	add	#0,r0
    3190:	31 84       	div1	r8,r1
    3192:	60 00       	mov.b	@r0,r0
    3194:	60 e4       	mov.b	@r14+,r0
    3196:	54 6e       	mov.l	@(56,r6),r4
    3198:	18 22       	mov.l	r2,@(8,r8)
    319a:	48 47       	ldc.l	@r8+,spc
    319c:	54 40       	mov.l	@(0,r4),r4
    319e:	51 cf       	mov.l	@(60,r12),r1
    31a0:	ff 60       	fadd	fr6,fr15
    31a2:	45 ee       	ldc	r5,r6_bank
    31a4:	1e 00       	mov.l	r0,@(0,r14)
    31a6:	42 46       	.word 0x4246
    31a8:	1c 2e       	mov.l	r2,@(56,r12)
    31aa:	18 30       	mov.l	r3,@(0,r8)
    31ac:	67 62       	mov.l	@r6,r7
    31ae:	22 6e       	mulu.w	r6,r2
    31b0:	18 2c       	mov.l	r2,@(48,r8)
    31b2:	53 46       	mov.l	@(24,r4),r3
    31b4:	02 46       	mov.l	r4,@(r0,r2)
    31b6:	00 1f       	mac.l	@r1+,@r0+
    31b8:	b2 11       	bsr	35de <_sddrv_129i+0x35de>
    31ba:	66 48       	swap.b	r4,r6
    31bc:	10 29       	mov.l	r2,@(36,r0)
    31be:	00 01       	.word 0x0001
    31c0:	0c 00       	.word 0x0c00
    31c2:	00 08       	clrt	
    31c4:	67 38       	swap.b	r3,r7
    31c6:	65 3c       	extu.b	r3,r5
    31c8:	15 7c       	mov.l	r7,@(48,r5)
    31ca:	00 06       	mov.l	r0,@(r0,r0)
    31cc:	00 06       	mov.l	r0,@(r0,r0)
    31ce:	38 2a       	subc	r2,r8
    31d0:	00 02       	stc	sr,r0
    31d2:	10 29       	mov.l	r2,@(36,r0)
    31d4:	00 0f       	mac.l	@r0+,@r0+
    31d6:	e1 48       	mov	#72,r1
    31d8:	06 40       	.word 0x0640
    31da:	80 00       	mov.b	r0,@(0,r0)
    31dc:	35 40       	cmp/eq	r4,r5
    31de:	00 0e       	mov.l	@(r0,r0),r0
    31e0:	b8 40       	bsr	2264 <_sddrv_129i+0x2264>
    31e2:	64 08       	swap.b	r0,r4
    31e4:	10 29       	mov.l	r2,@(36,r0)
    31e6:	00 0e       	mov.l	@(r0,r0),r0
    31e8:	6a 0a       	negc	r0,r10
    31ea:	60 06       	mov.l	@r0+,r0
    31ec:	10 29       	mov.l	r2,@(36,r0)
    31ee:	00 0e       	mov.l	@(r0,r0),r0
    31f0:	6b 02       	mov.l	@r0,r11
    31f2:	44 00       	shll	r4
    31f4:	4e ba       	.word 0x4eba
    31f6:	09 22       	stc	vbr,r9
    31f8:	35 40       	cmp/eq	r4,r5
    31fa:	00 04       	mov.b	r0,@(r0,r0)
    31fc:	60 06       	mov.l	@r0+,r0
    31fe:	35 7c       	add	r7,r5
    3200:	00 00       	.word 0x0000
    3202:	00 04       	mov.b	r0,@(r0,r0)
    3204:	43 e9       	.word 0x43e9
    3206:	00 18       	sett	
    3208:	45 ea       	.word 0x45ea
    320a:	00 10       	.word 0x0010
    320c:	51 ce       	mov.l	@(56,r12),r1
    320e:	ff aa       	fmov	fr10,@r15
    3210:	4e 75       	.word 0x4e75
    3212:	48 40       	.word 0x4840
    3214:	19 bc       	mov.l	r11,@(48,r9)
    3216:	00 06       	mov.l	r0,@(r0,r0)
    3218:	40 2e       	ldc	r0,vbr
    321a:	22 74       	mov.b	r7,@-r2
    321c:	40 30       	.word 0x4030
    321e:	50 49       	mov.l	@(36,r4),r0
    3220:	10 19       	mov.l	r1,@(36,r0)
    3222:	67 46       	mov.l	@r4+,r7
    3224:	4e ba       	.word 0x4eba
    3226:	09 12       	stc	gbr,r9
    3228:	3c 00       	cmp/eq	r0,r12
    322a:	48 46       	.word 0x4846
    322c:	42 46       	.word 0x4246
    322e:	e8 86       	mov	#-122,r8
    3230:	10 11       	mov.l	r1,@(4,r0)
    3232:	4e ba       	.word 0x4eba
    3234:	0b 22       	stc	vbr,r11
    3236:	3a 00       	cmp/eq	r0,r10
    3238:	48 45       	.word 0x4845
    323a:	42 45       	.word 0x4245
    323c:	29 85       	mov.w	r8,@-r9
    323e:	40 28       	shll16	r0
    3240:	06 85       	mov.w	r8,@(r0,r6)
    3242:	80 00       	mov.b	r0,@(0,r0)
    3244:	00 00       	.word 0x0000
    3246:	26 34       	mov.b	r3,@-r6
    3248:	40 20       	shal	r0
    324a:	06 83       	pref	@r6
    324c:	80 00       	mov.b	r0,@(0,r0)
    324e:	00 00       	.word 0x0000
    3250:	ba 83       	bsr	275a <_sddrv_129i+0x275a>
    3252:	67 16       	mov.l	@r1+,r7
    3254:	64 06       	mov.l	@r0+,r4
    3256:	2c 06       	mov.l	r0,@-r12
    3258:	6b 08       	swap.b	r0,r11
    325a:	60 04       	mov.b	@r0+,r0
    325c:	2c 06       	mov.l	r0,@-r12
    325e:	6a 02       	mov.l	@r0,r10
    3260:	44 86       	.word 0x4486
    3262:	29 86       	mov.l	r8,@-r9
    3264:	40 24       	rotcl	r0
    3266:	48 40       	.word 0x4840
    3268:	4e 75       	.word 0x4e75
    326a:	52 34       	mov.l	@(16,r3),r2
    326c:	40 2e       	ldc	r0,vbr
    326e:	48 40       	.word 0x4840
    3270:	4e 75       	.word 0x4e75
    3272:	78 07       	add	#7,r8
    3274:	3d 7c       	add	r7,r13
    3276:	00 00       	.word 0x0000
    3278:	18 00       	mov.l	r0,@(0,r8)
    327a:	3d 7c       	add	r7,r13
    327c:	00 00       	.word 0x0000
    327e:	18 0a       	mov.l	r0,@(40,r8)
    3280:	7c 1f       	add	#31,r12
    3282:	3d 7c       	add	r7,r13
    3284:	00 00       	.word 0x0000
    3286:	18 02       	mov.l	r0,@(8,r8)
    3288:	48 e7       	ldc.l	@r8+,r6_bank
    328a:	5a 00       	mov.l	@(0,r0),r10
    328c:	70 00       	add	#0,r0
    328e:	32 2e       	addc	r2,r2
    3290:	18 02       	mov.l	r0,@(8,r8)
    3292:	4e ba       	.word 0x4eba
    3294:	e1 ce       	mov	#-50,r1
    3296:	30 01       	.word 0x3001
    3298:	e9 48       	mov	#72,r9
    329a:	d0 6e       	mov.l	3454 <_sddrv_129i+0x3454>,r0	! 82838485
    329c:	18 00       	mov.l	r0,@(0,r8)
    329e:	2d 82       	mov.l	r8,@r13
    32a0:	00 04       	mov.b	r0,@(r0,r0)
    32a2:	1d bc       	mov.l	r11,@(48,r13)
    32a4:	00 64       	mov.b	r6,@(r0,r0)
    32a6:	00 02       	stc	sr,r0
    32a8:	74 00       	add	#0,r4
    32aa:	32 2e       	addc	r2,r2
    32ac:	18 02       	mov.l	r0,@(8,r8)
    32ae:	4c df       	mac.w	@r13+,@r12+
    32b0:	00 5a       	sts	fpul,r0
    32b2:	06 6e       	mov.l	@(r0,r6),r6
    32b4:	00 10       	.word 0x0010
    32b6:	18 0a       	mov.l	r0,@(40,r8)
    32b8:	52 6e       	mov.l	@(56,r6),r2
    32ba:	18 02       	mov.l	r0,@(8,r8)
    32bc:	51 ce       	mov.l	@(56,r12),r1
    32be:	ff ca       	fmov	fr12,@r15
    32c0:	06 6e       	mov.l	@(r0,r6),r6
    32c2:	02 00       	.word 0x0200
    32c4:	18 00       	mov.l	r0,@(0,r8)
    32c6:	51 cc       	mov.l	@(48,r12),r1
    32c8:	ff b8       	fmov	@r11,fr15
    32ca:	3d 7c       	add	r7,r13
    32cc:	00 00       	.word 0x0000
    32ce:	18 00       	mov.l	r0,@(0,r8)
    32d0:	4e 75       	.word 0x4e75
    32d2:	1b 7c       	mov.l	r7,@(48,r11)
    32d4:	00 02       	stc	sr,r0
    32d6:	04 00       	.word 0x0400
    32d8:	4e ba       	.word 0x4eba
    32da:	00 e0       	.word 0x00e0
    32dc:	4e ba       	.word 0x4eba
    32de:	00 e6       	mov.l	r14,@(r0,r0)
    32e0:	4e ba       	.word 0x4eba
    32e2:	00 ea       	.word 0x00ea
    32e4:	4e ba       	.word 0x4eba
    32e6:	00 ee       	mov.l	@(r0,r14),r0
    32e8:	4e ba       	.word 0x4eba
    32ea:	00 64       	mov.b	r6,@(r0,r0)
    32ec:	4e ba       	.word 0x4eba
    32ee:	00 44       	mov.b	r4,@(r0,r0)
    32f0:	4e ba       	.word 0x4eba
    32f2:	00 4a       	.word 0x004a
    32f4:	1b 7c       	mov.l	r7,@(48,r11)
    32f6:	00 0f       	mac.l	@r0+,@r0+
    32f8:	04 01       	.word 0x0401
    32fa:	41 fa       	ldc	r1,dbr
    32fc:	00 22       	stc	vbr,r0
    32fe:	30 18       	sub	r1,r0
    3300:	da c0       	mov.l	3604 <_sddrv_129i+0x3604>,r10	! 76767777
    3302:	3e 18       	sub	r1,r14
    3304:	1a d8       	mov.l	r13,@(32,r10)
    3306:	51 cf       	mov.l	@(60,r12),r1
    3308:	ff fc       	fmov	fr15,fr15
    330a:	4b f9       	.word 0x4bf9
    330c:	00 10       	.word 0x0010
    330e:	00 00       	.word 0x0000
    3310:	3b 7c       	add	r7,r11
    3312:	00 a7       	mul.l	r10,r0
    3314:	04 18       	.word 0x0418
    3316:	3b 7c       	add	r7,r11
    3318:	00 40       	.word 0x0040
    331a:	04 22       	stc	vbr,r4
    331c:	4e 75       	.word 0x4e75
    331e:	04 1a       	sts	macl,r4
    3320:	00 0f       	mac.l	@r0+,@r0+
    3322:	01 d4       	mov.b	r13,@(r0,r1)
    3324:	00 00       	.word 0x0000
    3326:	00 80       	.word 0x0080
    3328:	00 00       	.word 0x0000
    332a:	00 c0       	.word 0x00c0
    332c:	00 00       	.word 0x0000
    332e:	00 80       	.word 0x0080
    3330:	00 00       	.word 0x0000
    3332:	41 ed       	shld	r14,r1
    3334:	00 0d       	mov.w	@(r0,r0),r0
    3336:	10 3c       	mov.l	r3,@(48,r0)
    3338:	00 ff       	mac.l	@r15+,@r0+
    333a:	60 04       	mov.b	@r0+,r0
    333c:	20 4d       	xtrct	r4,r0
    333e:	70 10       	add	#16,r0
    3340:	7e 1f       	add	#31,r14
    3342:	10 80       	mov.l	r8,@(0,r0)
    3344:	41 e8       	.word 0x41e8
    3346:	00 20       	.word 0x0020
    3348:	51 cf       	mov.l	@(60,r12),r1
    334a:	ff f8       	fmov	@r15,fr15
    334c:	4e 75       	.word 0x4e75
    334e:	20 4d       	xtrct	r4,r0
    3350:	70 00       	add	#0,r0
    3352:	3e 3c       	add	r3,r14
    3354:	00 ff       	mac.l	@r15+,@r0+
    3356:	20 c0       	mov.b	r12,@r0
    3358:	51 cf       	mov.l	@(60,r12),r1
    335a:	ff fc       	fmov	fr15,fr15
    335c:	4e 75       	.word 0x4e75
    335e:	70 00       	add	#0,r0
    3360:	41 f8       	.word 0x41f8
    3362:	07 80       	.word 0x0780
    3364:	20 c0       	mov.b	r12,@r0
    3366:	20 c0       	mov.b	r12,@r0
    3368:	20 c0       	mov.b	r12,@r0
    336a:	20 c0       	mov.b	r12,@r0
    336c:	4e 75       	.word 0x4e75
    336e:	43 ed       	shld	r14,r3
    3370:	00 0b       	rts	
    3372:	7e 1f       	add	#31,r14
    3374:	00 11       	.word 0x0011
    3376:	00 1f       	mac.l	@r1+,@r0+
    3378:	43 e9       	.word 0x43e9
    337a:	00 20       	.word 0x0020
    337c:	51 cf       	mov.l	@(60,r12),r1
    337e:	ff f6       	fmov	@(r0,r15),fr15
    3380:	4e 75       	.word 0x4e75
    3382:	43 ed       	shld	r14,r3
    3384:	00 15       	mov.w	r1,@(r0,r0)
    3386:	7e 0f       	add	#15,r14
    3388:	70 00       	add	#0,r0
    338a:	12 80       	mov.l	r8,@(0,r2)
    338c:	43 e9       	.word 0x43e9
    338e:	00 20       	.word 0x0020
    3390:	51 cf       	mov.l	@(60,r12),r1
    3392:	ff f8       	fmov	@r15,fr15
    3394:	4e 75       	.word 0x4e75
    3396:	43 ed       	shld	r14,r3
    3398:	00 17       	mul.l	r1,r0
    339a:	7e 0f       	add	#15,r14
    339c:	70 00       	add	#0,r0
    339e:	12 80       	mov.l	r8,@(0,r2)
    33a0:	43 e9       	.word 0x43e9
    33a2:	00 20       	.word 0x0020
    33a4:	51 cf       	mov.l	@(60,r12),r1
    33a6:	ff f8       	fmov	@r15,fr15
    33a8:	2d 40       	mov.b	r4,@r13
    33aa:	18 7e       	mov.l	r7,@(56,r8)
    33ac:	2d 40       	mov.b	r4,@r13
    33ae:	18 82       	mov.l	r8,@(8,r8)
    33b0:	2d 40       	mov.b	r4,@r13
    33b2:	18 86       	mov.l	r8,@(24,r8)
    33b4:	2d 40       	mov.b	r4,@r13
    33b6:	18 8a       	mov.l	r8,@(40,r8)
    33b8:	4e 75       	.word 0x4e75
    33ba:	43 ed       	shld	r14,r3
    33bc:	08 00       	.word 0x0800
    33be:	3e 3c       	add	r3,r14
    33c0:	00 ff       	mac.l	@r15+,@r0+
    33c2:	60 16       	mov.l	@r1+,r0
    33c4:	43 ed       	shld	r14,r3
    33c6:	07 80       	.word 0x0780
    33c8:	7e 1f       	add	#31,r14
    33ca:	60 0e       	exts.b	r0,r0
    33cc:	43 ed       	shld	r14,r3
    33ce:	07 00       	.word 0x0700
    33d0:	7e 1f       	add	#31,r14
    33d2:	60 06       	mov.l	@r0+,r0
    33d4:	43 ed       	shld	r14,r3
    33d6:	0c 00       	.word 0x0c00
    33d8:	7e 7f       	add	#127,r14
    33da:	70 00       	add	#0,r0
    33dc:	22 c0       	mov.b	r12,@r2
    33de:	51 cf       	mov.l	@(60,r12),r1
    33e0:	ff fc       	fmov	fr15,fr15
    33e2:	4e 75       	.word 0x4e75
    33e4:	7a 00       	add	#0,r10
    33e6:	22 76       	mov.l	r7,@-r2
    33e8:	50 04       	mov.l	@(16,r0),r0
    33ea:	70 00       	add	#0,r0
    33ec:	30 29       	.word 0x3029
    33ee:	00 08       	clrt	
    33f0:	d3 c0       	mov.l	36f4 <_sddrv_129i+0x36f4>,r3	! f8f9f9fa
    33f2:	58 89       	mov.l	@(36,r8),r8
    33f4:	72 40       	add	#64,r2
    33f6:	49 ee       	ldc	r9,r6_bank
    33f8:	10 08       	mov.l	r0,@(32,r0)
    33fa:	7e 1f       	add	#31,r14
    33fc:	28 89       	and	r8,r8
    33fe:	d9 c1       	mov.l	3704 <_sddrv_129i+0x3704>,r9	! 2020303
    3400:	51 cf       	mov.l	@(60,r12),r1
    3402:	ff fa       	fmov	fr15,@r15
    3404:	4e 75       	.word 0x4e75
    3406:	2e 3c       	cmp/str	r3,r14
    3408:	00 00       	.word 0x0000
    340a:	0b f0       	.word 0x0bf0
    340c:	70 00       	add	#0,r0
    340e:	20 4e       	mulu.w	r4,r0
    3410:	20 c0       	mov.b	r12,@r0
    3412:	51 cf       	mov.l	@(60,r12),r1
    3414:	ff fc       	fmov	fr15,fr15
    3416:	74 00       	add	#0,r4
    3418:	43 ee       	ldc	r3,r6_bank
    341a:	18 c0       	mov.l	r12,@(0,r8)
    341c:	7e 03       	add	#3,r14
    341e:	7c 07       	add	#7,r12
    3420:	02 42       	stc	spc,r2
    3422:	00 3e       	mov.l	@(r0,r3),r0
    3424:	33 80       	cmp/eq	r8,r3
    3426:	20 00       	mov.b	r0,@r0
    3428:	06 40       	.word 0x0640
    342a:	00 40       	.word 0x0040
    342c:	50 42       	mov.l	@(8,r4),r0
    342e:	51 ce       	mov.l	@(56,r12),r1
    3430:	ff f0       	fadd	fr15,fr15
    3432:	04 42       	stc	spc,r4
    3434:	00 3e       	mov.l	@(r0,r3),r0
    3436:	51 cf       	mov.l	@(60,r12),r1
    3438:	ff e6       	fmov	@(r0,r14),fr15
    343a:	3d 7c       	add	r7,r13
    343c:	00 20       	.word 0x0020
    343e:	18 2a       	mov.l	r2,@(40,r8)
    3440:	47 ee       	ldc	r7,r6_bank
    3442:	18 90       	mov.l	r9,@(0,r8)
    3444:	70 00       	add	#0,r0
    3446:	7e 0f       	add	#15,r14
    3448:	16 c0       	mov.l	r12,@(0,r6)
    344a:	52 00       	mov.l	@(0,r0),r2
    344c:	51 cf       	mov.l	@(60,r12),r1
    344e:	ff fa       	fmov	fr15,@r15
    3450:	4e 75       	.word 0x4e75
    3452:	80 81       	mov.b	r0,@(1,r8)
    3454:	82 83       	.word 0x8283
    3456:	84 85       	mov.b	@(5,r8),r0
    3458:	86 87       	.word 0x8687
    345a:	88 89       	cmp/eq	#-119,r0
    345c:	8a 8b       	.word 0x8a8b
    345e:	90 91       	mov.w	3584 <_sddrv_129i+0x3584>,r0	! 3636
    3460:	92 93       	mov.w	358a <_sddrv_129i+0x358a>,r2	! 3839
    3462:	94 95       	mov.w	3590 <_sddrv_129i+0x3590>,r4	! 3b3c
    3464:	96 97       	mov.w	3596 <_sddrv_129i+0x3596>,r6	! 3e3f
    3466:	98 99       	mov.w	359c <_sddrv_129i+0x359c>,r8	! 4142
    3468:	9a 9b       	mov.w	35a2 <_sddrv_129i+0x35a2>,r10	! 4445
    346a:	a0 a1       	bra	35b0 <_sddrv_129i+0x35b0>
    346c:	a2 a3       	bra	39b6 <_sddrv_129i+0x39b6>
    346e:	a4 a5       	bra	3dbc <_sddrv_129i+0x3dbc>
    3470:	a6 a7       	bra	41c2 <_sddrv_129i+0x41c2>
    3472:	a8 a9       	bra	25c8 <_sddrv_129i+0x25c8>
    3474:	aa ab       	bra	29ce <_sddrv_129i+0x29ce>
    3476:	b0 b1       	bsr	35dc <_sddrv_129i+0x35dc>
    3478:	b2 b3       	bsr	39e2 <_sddrv_129i+0x39e2>
    347a:	b4 b5       	bsr	3de8 <_sddrv_129i+0x3de8>
    347c:	b6 b7       	bsr	41ee <_sddrv_129i+0x41ee>
    347e:	b8 b9       	bsr	25f4 <_sddrv_129i+0x25f4>
    3480:	ba bb       	bsr	29fa <_sddrv_129i+0x29fa>
    3482:	c0 c1       	mov.b	r0,@(193,gbr)
    3484:	c2 c3       	mov.l	r0,@(780,gbr)
    3486:	c4 c5       	mov.b	@(197,gbr),r0
    3488:	c6 c7       	mov.l	@(796,gbr),r0
    348a:	c8 c9       	tst	#-55,r0
    348c:	ca cb       	xor	#-53,r0
    348e:	d0 d1       	mov.l	37d4 <_sddrv_129i+0x37d4>,r0	! 80808182
    3490:	d2 d3       	mov.l	37e0 <_sddrv_129i+0x37e0>,r2	! 87888989
    3492:	d4 d5       	mov.l	37e8 <_sddrv_129i+0x37e8>,r4	! 8c8d8e8e
    3494:	d6 d7       	mov.l	37f4 <_sddrv_129i+0x37f4>,r6	! 94959596
    3496:	d8 d9       	mov.l	37fc <_sddrv_129i+0x37fc>,r8	! 999a9b9b
    3498:	da db       	mov.l	3808 <_sddrv_129i+0x3808>,r10	! a1a2a2a3
    349a:	e0 e1       	mov	#-31,r0
    349c:	e2 e3       	mov	#-29,r2
    349e:	e4 e5       	mov	#-27,r4
    34a0:	e6 e7       	mov	#-25,r6
    34a2:	e8 e9       	mov	#-23,r8
    34a4:	ea eb       	mov	#-21,r10
    34a6:	f0 f1       	fsub	fr15,fr0
    34a8:	f2 f3       	fdiv	fr15,fr2
    34aa:	f4 f5       	fcmp/gt	fr15,fr4
    34ac:	f6 f7       	fmov	fr15,@(r0,r6)
    34ae:	f8 f9       	fmov	@r15+,fr8
    34b0:	fa fb       	fmov	fr15,@-r10
    34b2:	00 01       	.word 0x0001
    34b4:	02 03       	bsrf	r2
    34b6:	04 05       	mov.w	r0,@(r0,r4)
    34b8:	06 07       	mul.l	r0,r6
    34ba:	08 09       	.word 0x0809
    34bc:	0a 0b       	.word 0x0a0b
    34be:	10 11       	mov.l	r1,@(4,r0)
    34c0:	12 13       	mov.l	r1,@(12,r2)
    34c2:	14 15       	mov.l	r1,@(20,r4)
    34c4:	16 17       	mov.l	r1,@(28,r6)
    34c6:	18 19       	mov.l	r1,@(36,r8)
    34c8:	1a 1b       	mov.l	r1,@(44,r10)
    34ca:	20 21       	mov.w	r2,@r0
    34cc:	22 23       	.word 0x2223
    34ce:	24 25       	mov.w	r2,@-r4
    34d0:	26 27       	div0s	r2,r6
    34d2:	28 29       	and	r2,r8
    34d4:	2a 2b       	or	r2,r10
    34d6:	30 31       	.word 0x3031
    34d8:	32 33       	cmp/ge	r3,r2
    34da:	34 35       	dmulu.l	r3,r4
    34dc:	36 37       	cmp/gt	r3,r6
    34de:	38 39       	.word 0x3839
    34e0:	3a 3b       	subv	r3,r10
    34e2:	40 41       	.word 0x4041
    34e4:	42 43       	stc.l	spc,@-r2
    34e6:	44 45       	.word 0x4445
    34e8:	46 47       	ldc.l	@r6+,spc
    34ea:	48 49       	.word 0x4849
    34ec:	4a 4b       	.word 0x4a4b
    34ee:	50 51       	mov.l	@(4,r5),r0
    34f0:	52 53       	mov.l	@(12,r5),r2
    34f2:	54 55       	mov.l	@(20,r5),r4
    34f4:	56 57       	mov.l	@(28,r5),r6
    34f6:	58 59       	mov.l	@(36,r5),r8
    34f8:	5a 5b       	mov.l	@(44,r5),r10
    34fa:	60 61       	mov.w	@r6,r0
    34fc:	62 63       	mov	r6,r2
    34fe:	64 65       	mov.w	@r6+,r4
    3500:	66 67       	not	r6,r6
    3502:	68 69       	swap.w	r6,r8
    3504:	6a 6b       	neg	r6,r10
    3506:	70 71       	add	#113,r0
    3508:	72 73       	add	#115,r2
    350a:	74 75       	add	#117,r4
    350c:	76 77       	add	#119,r6
    350e:	78 79       	add	#121,r8
    3510:	7a 7b       	add	#123,r10
    3512:	00 00       	.word 0x0000
    3514:	00 01       	.word 0x0001
    3516:	01 02       	stc	sr,r1
    3518:	02 03       	bsrf	r2
    351a:	03 04       	mov.b	r0,@(r0,r3)
    351c:	04 05       	mov.w	r0,@(r0,r4)
    351e:	05 06       	mov.l	r0,@(r0,r5)
    3520:	06 06       	mov.l	r0,@(r0,r6)
    3522:	07 07       	mul.l	r0,r7
    3524:	08 08       	.word 0x0808
    3526:	09 09       	.word 0x0909
    3528:	0a 0a       	sts	mach,r10
    352a:	0b 0b       	.word 0x0b0b
    352c:	0c 0c       	mov.b	@(r0,r0),r12
    352e:	0d 0d       	mov.w	@(r0,r0),r13
    3530:	0d 0e       	mov.l	@(r0,r0),r13
    3532:	0e 0f       	mac.l	@r0+,@r14+
    3534:	0f 10       	.word 0x0f10
    3536:	10 11       	mov.l	r1,@(4,r0)
    3538:	11 12       	mov.l	r1,@(8,r1)
    353a:	12 13       	mov.l	r1,@(12,r2)
    353c:	13 14       	mov.l	r1,@(16,r3)
    353e:	14 15       	mov.l	r1,@(20,r4)
    3540:	15 15       	mov.l	r1,@(20,r5)
    3542:	16 16       	mov.l	r1,@(24,r6)
    3544:	17 17       	mov.l	r1,@(28,r7)
    3546:	18 18       	mov.l	r1,@(32,r8)
    3548:	19 19       	mov.l	r1,@(36,r9)
    354a:	1a 1a       	mov.l	r1,@(40,r10)
    354c:	1b 1b       	mov.l	r1,@(44,r11)
    354e:	1c 1c       	mov.l	r1,@(48,r12)
    3550:	1d 1d       	mov.l	r1,@(52,r13)
    3552:	1e 1e       	mov.l	r1,@(56,r14)
    3554:	1e 1f       	mov.l	r1,@(60,r14)
    3556:	1f 20       	mov.l	r2,@(0,r15)
    3558:	20 21       	mov.w	r2,@r0
    355a:	21 22       	mov.l	r2,@r1
    355c:	22 23       	.word 0x2223
    355e:	23 24       	mov.b	r2,@-r3
    3560:	24 25       	mov.w	r2,@-r4
    3562:	25 26       	mov.l	r2,@-r5
    3564:	26 27       	div0s	r2,r6
    3566:	27 28       	tst	r2,r7
    3568:	28 29       	and	r2,r8
    356a:	29 29       	and	r2,r9
    356c:	2a 2a       	xor	r2,r10
    356e:	2b 2b       	or	r2,r11
    3570:	2c 2c       	cmp/str	r2,r12
    3572:	2d 2d       	xtrct	r2,r13
    3574:	2e 2e       	mulu.w	r2,r14
    3576:	2f 2f       	muls.w	r2,r15
    3578:	30 30       	cmp/eq	r3,r0
    357a:	31 31       	.word 0x3131
    357c:	32 32       	cmp/hs	r3,r2
    357e:	33 33       	cmp/ge	r3,r3
    3580:	34 34       	div1	r3,r4
    3582:	35 35       	dmulu.l	r3,r5
    3584:	36 36       	cmp/hi	r3,r6
    3586:	37 37       	cmp/gt	r3,r7
    3588:	38 38       	sub	r3,r8
    358a:	38 39       	.word 0x3839
    358c:	39 3a       	subc	r3,r9
    358e:	3a 3b       	subv	r3,r10
    3590:	3b 3c       	add	r3,r11
    3592:	3c 3d       	dmuls.l	r3,r12
    3594:	3d 3e       	addc	r3,r13
    3596:	3e 3f       	addv	r3,r14
    3598:	3f 40       	cmp/eq	r4,r15
    359a:	40 41       	.word 0x4041
    359c:	41 42       	.word 0x4142
    359e:	42 43       	stc.l	spc,@-r2
    35a0:	43 44       	.word 0x4344
    35a2:	44 45       	.word 0x4445
    35a4:	45 46       	.word 0x4546
    35a6:	46 47       	ldc.l	@r6+,spc
    35a8:	47 48       	.word 0x4748
    35aa:	48 49       	.word 0x4849
    35ac:	49 4a       	.word 0x494a
    35ae:	4a 4b       	.word 0x4a4b
    35b0:	4b 4c       	shad	r4,r11
    35b2:	4c 4d       	shld	r4,r12
    35b4:	4d 4e       	ldc	r13,spc
    35b6:	4e 4f       	mac.w	@r4+,@r14+
    35b8:	4f 50       	.word 0x4f50
    35ba:	50 51       	mov.l	@(4,r5),r0
    35bc:	51 52       	mov.l	@(8,r5),r1
    35be:	52 53       	mov.l	@(12,r5),r2
    35c0:	53 54       	mov.l	@(16,r5),r3
    35c2:	54 55       	mov.l	@(20,r5),r4
    35c4:	55 56       	mov.l	@(24,r5),r5
    35c6:	56 57       	mov.l	@(28,r5),r6
    35c8:	57 58       	mov.l	@(32,r5),r7
    35ca:	58 59       	mov.l	@(36,r5),r8
    35cc:	59 5a       	mov.l	@(40,r5),r9
    35ce:	5a 5b       	mov.l	@(44,r5),r10
    35d0:	5b 5c       	mov.l	@(48,r5),r11
    35d2:	5c 5d       	mov.l	@(52,r5),r12
    35d4:	5d 5e       	mov.l	@(56,r5),r13
    35d6:	5e 5f       	mov.l	@(60,r5),r14
    35d8:	5f 60       	mov.l	@(0,r6),r15
    35da:	60 61       	mov.w	@r6,r0
    35dc:	61 62       	mov.l	@r6,r1
    35de:	62 63       	mov	r6,r2
    35e0:	63 64       	mov.b	@r6+,r3
    35e2:	64 65       	mov.w	@r6+,r4
    35e4:	65 66       	mov.l	@r6+,r5
    35e6:	66 67       	not	r6,r6
    35e8:	67 68       	swap.b	r6,r7
    35ea:	68 69       	swap.w	r6,r8
    35ec:	69 6a       	negc	r6,r9
    35ee:	6a 6b       	neg	r6,r10
    35f0:	6b 6c       	extu.b	r6,r11
    35f2:	6c 6d       	extu.w	r6,r12
    35f4:	6d 6e       	exts.b	r6,r13
    35f6:	6e 6f       	exts.w	r6,r14
    35f8:	6f 70       	mov.b	@r7,r15
    35fa:	71 71       	add	#113,r1
    35fc:	72 72       	add	#114,r2
    35fe:	73 73       	add	#115,r3
    3600:	74 74       	add	#116,r4
    3602:	75 75       	add	#117,r5
    3604:	76 76       	add	#118,r6
    3606:	77 77       	add	#119,r7
    3608:	78 78       	add	#120,r8
    360a:	79 79       	add	#121,r9
    360c:	7a 7a       	add	#122,r10
    360e:	7b 7b       	add	#123,r11
    3610:	7c 7c       	add	#124,r12
    3612:	7d 7d       	add	#125,r13
    3614:	7e 7e       	add	#126,r14
    3616:	7f 7f       	add	#127,r15
    3618:	80 81       	mov.b	r0,@(1,r8)
    361a:	81 82       	mov.w	r0,@(4,r8)
    361c:	82 83       	.word 0x8283
    361e:	83 84       	.word 0x8384
    3620:	84 85       	mov.b	@(5,r8),r0
    3622:	85 86       	mov.w	@(12,r8),r0
    3624:	86 87       	.word 0x8687
    3626:	87 88       	.word 0x8788
    3628:	88 89       	cmp/eq	#-119,r0
    362a:	89 8a       	bt	3542 <_sddrv_129i+0x3542>
    362c:	8a 8b       	.word 0x8a8b
    362e:	8c 8c       	.word 0x8c8c
    3630:	8d 8d       	bt.s	354e <_sddrv_129i+0x354e>
    3632:	8e 8e       	.word 0x8e8e
    3634:	8f 8f       	bf.s	3556 <_sddrv_129i+0x3556>
    3636:	90 90       	mov.w	375a <_sddrv_129i+0x375a>,r0	! 3435
    3638:	91 91       	mov.w	375e <_sddrv_129i+0x375e>,r1	! 3737
    363a:	92 92       	mov.w	3762 <_sddrv_129i+0x3762>,r2	! 393a
    363c:	93 93       	mov.w	3766 <_sddrv_129i+0x3766>,r3	! 3c3c
    363e:	94 94       	mov.w	376a <_sddrv_129i+0x376a>,r4	! 3e3f
    3640:	95 96       	mov.w	3770 <_sddrv_129i+0x3770>,r5	! 4242
    3642:	96 97       	mov.w	3774 <_sddrv_129i+0x3774>,r6	! 4445
    3644:	97 98       	mov.w	3778 <_sddrv_129i+0x3778>,r7	! 4647
    3646:	98 99       	mov.w	377c <_sddrv_129i+0x377c>,r8	! 4949
    3648:	99 9a       	mov.w	3780 <_sddrv_129i+0x3780>,r9	! 4b4c
    364a:	9a 9b       	mov.w	3784 <_sddrv_129i+0x3784>,r10	! 4e4e
    364c:	9b 9c       	mov.w	3788 <_sddrv_129i+0x3788>,r11	! 5051
    364e:	9c 9d       	mov.w	378c <_sddrv_129i+0x378c>,r12	! 5353
    3650:	9e 9e       	mov.w	3790 <_sddrv_129i+0x3790>,r14	! 5556
    3652:	9f 9f       	mov.w	3794 <_sddrv_129i+0x3794>,r15	! 5858
    3654:	a0 a0       	bra	3798 <_sddrv_129i+0x3798>
    3656:	a1 a1       	bra	399c <_sddrv_129i+0x399c>
    3658:	a2 a2       	bra	3ba0 <_sddrv_129i+0x3ba0>
    365a:	a3 a3       	bra	3da4 <_sddrv_129i+0x3da4>
    365c:	a4 a4       	bra	3fa8 <_sddrv_129i+0x3fa8>
    365e:	a5 a6       	bra	41ae <_sddrv_129i+0x41ae>
    3660:	a6 a7       	bra	43b2 <_sddrv_129i+0x43b2>
    3662:	a7 a8       	bra	45b6 <_sddrv_129i+0x45b6>
    3664:	a8 a9       	bra	27ba <_sddrv_129i+0x27ba>
    3666:	a9 aa       	bra	29be <_sddrv_129i+0x29be>
    3668:	aa ab       	bra	2bc2 <_sddrv_129i+0x2bc2>
    366a:	ab ac       	bra	2dc6 <_sddrv_129i+0x2dc6>
    366c:	ad ad       	bra	31ca <_sddrv_129i+0x31ca>
    366e:	ae ae       	bra	33ce <_sddrv_129i+0x33ce>
    3670:	af af       	bra	35d2 <_sddrv_129i+0x35d2>
    3672:	b0 b0       	bsr	37d6 <_sddrv_129i+0x37d6>
    3674:	b1 b1       	bsr	39da <_sddrv_129i+0x39da>
    3676:	b2 b3       	bsr	3be0 <_sddrv_129i+0x3be0>
    3678:	b3 b4       	bsr	3de4 <_sddrv_129i+0x3de4>
    367a:	b4 b5       	bsr	3fe8 <_sddrv_129i+0x3fe8>
    367c:	b5 b6       	bsr	41ec <_sddrv_129i+0x41ec>
    367e:	b6 b7       	bsr	43f0 <_sddrv_129i+0x43f0>
    3680:	b7 b8       	bsr	45f4 <_sddrv_129i+0x45f4>
    3682:	b8 b9       	bsr	27f8 <_sddrv_129i+0x27f8>
    3684:	ba ba       	bsr	2bfc <_sddrv_129i+0x2bfc>
    3686:	bb bb       	bsr	2e00 <_sddrv_129i+0x2e00>
    3688:	bc bc       	bsr	3004 <_sddrv_129i+0x3004>
    368a:	bd bd       	bsr	3208 <_sddrv_129i+0x3208>
    368c:	be bf       	bsr	340e <_sddrv_129i+0x340e>
    368e:	bf c0       	bsr	3612 <_sddrv_129i+0x3612>
    3690:	c0 c1       	mov.b	r0,@(193,gbr)
    3692:	c1 c2       	mov.w	r0,@(388,gbr)
    3694:	c2 c3       	mov.l	r0,@(780,gbr)
    3696:	c3 c4       	trapa	#-60
    3698:	c5 c5       	mov.w	@(394,gbr),r0
    369a:	c6 c6       	mov.l	@(792,gbr),r0
    369c:	c7 c7       	mova	39bc <_sddrv_129i+0x39bc>,r0
    369e:	c8 c8       	tst	#-56,r0
    36a0:	c9 ca       	and	#-54,r0
    36a2:	ca cb       	xor	#-53,r0
    36a4:	cb cc       	or	#-52,r0
    36a6:	cc cd       	tst.b	#-51,@(r0,gbr)
    36a8:	cd ce       	and.b	#-50,@(r0,gbr)
    36aa:	cf cf       	or.b	#-49,@(r0,gbr)
    36ac:	d0 d0       	mov.l	39f0 <_sddrv_129i+0x39f0>,r0	! 4050607
    36ae:	d1 d1       	mov.l	39f4 <_sddrv_129i+0x39f4>,r1	! 808090a
    36b0:	d2 d2       	mov.l	39fc <_sddrv_129i+0x39fc>,r2	! e0f1010
    36b2:	d3 d4       	mov.l	3a04 <_sddrv_129i+0x3a04>,r3	! 15151617
    36b4:	d4 d5       	mov.l	3a0c <_sddrv_129i+0x3a0c>,r4	! 1b1c1d1e
    36b6:	d5 d6       	mov.l	3a10 <_sddrv_129i+0x3a10>,r5	! 1e1f2021
    36b8:	d6 d7       	mov.l	3a18 <_sddrv_129i+0x3a18>,r6	! 25262727
    36ba:	d7 d8       	mov.l	3a1c <_sddrv_129i+0x3a1c>,r7	! 28292a2b
    36bc:	d9 d9       	mov.l	3a24 <_sddrv_129i+0x3a24>,r9	! 2f303131
    36be:	da da       	mov.l	3a28 <_sddrv_129i+0x3a28>,r10	! 32333435
    36c0:	db db       	mov.l	3a30 <_sddrv_129i+0x3a30>,r11	! 393a3b3b
    36c2:	dc dc       	mov.l	3a34 <_sddrv_129i+0x3a34>,r12	! 3c3d3e3f
    36c4:	dd de       	mov.l	3a40 <_sddrv_129i+0x3a40>,r13	! 46474849
    36c6:	de df       	mov.l	3a44 <_sddrv_129i+0x3a44>,r14	! 4a4b4b4c
    36c8:	df e0       	mov.l	3a4c <_sddrv_129i+0x3a4c>,r15	! 50515253
    36ca:	e0 e1       	mov	#-31,r0
    36cc:	e2 e2       	mov	#-30,r2
    36ce:	e3 e3       	mov	#-29,r3
    36d0:	e4 e4       	mov	#-28,r4
    36d2:	e5 e5       	mov	#-27,r5
    36d4:	e6 e7       	mov	#-25,r6
    36d6:	e7 e8       	mov	#-24,r7
    36d8:	e8 e9       	mov	#-23,r8
    36da:	e9 ea       	mov	#-22,r9
    36dc:	eb eb       	mov	#-21,r11
    36de:	ec ec       	mov	#-20,r12
    36e0:	ed ed       	mov	#-19,r13
    36e2:	ee ef       	mov	#-17,r14
    36e4:	ef f0       	mov	#-16,r15
    36e6:	f0 f1       	fsub	fr15,fr0
    36e8:	f1 f2       	fmul	fr15,fr1
    36ea:	f3 f3       	fdiv	fr15,fr3
    36ec:	f4 f4       	fcmp/eq	fr15,fr4
    36ee:	f5 f5       	fcmp/gt	fr15,fr5
    36f0:	f6 f7       	fmov	fr15,@(r0,r6)
    36f2:	f7 f8       	fmov	@r15,fr7
    36f4:	f8 f9       	fmov	@r15+,fr8
    36f6:	f9 fa       	fmov	fr15,@r9
    36f8:	fb fb       	fmov	fr15,@-r11
    36fa:	fc fc       	fmov	fr15,fr12
    36fc:	fd fd       	ftrv	xmtrx,fv12
    36fe:	fe ff       	.word 0xfeff
    3700:	ff 00       	fadd	fr0,fr15
    3702:	00 01       	.word 0x0001
    3704:	02 02       	stc	sr,r2
    3706:	03 03       	bsrf	r3
    3708:	04 04       	mov.b	r0,@(r0,r4)
    370a:	05 06       	mov.l	r0,@(r0,r5)
    370c:	06 07       	mul.l	r0,r6
    370e:	07 08       	.word 0x0708
    3710:	08 09       	.word 0x0809
    3712:	0a 0a       	sts	mach,r10
    3714:	0b 0b       	.word 0x0b0b
    3716:	0c 0d       	mov.w	@(r0,r0),r12
    3718:	0d 0e       	mov.l	@(r0,r0),r13
    371a:	0e 0f       	mac.l	@r0+,@r14+
    371c:	0f 10       	.word 0x0f10
    371e:	11 11       	mov.l	r1,@(4,r1)
    3720:	12 12       	mov.l	r1,@(8,r2)
    3722:	13 14       	mov.l	r1,@(16,r3)
    3724:	14 15       	mov.l	r1,@(20,r4)
    3726:	15 16       	mov.l	r1,@(24,r5)
    3728:	17 17       	mov.l	r1,@(28,r7)
    372a:	18 18       	mov.l	r1,@(32,r8)
    372c:	19 19       	mov.l	r1,@(36,r9)
    372e:	1a 1b       	mov.l	r1,@(44,r10)
    3730:	1b 1c       	mov.l	r1,@(48,r11)
    3732:	1c 1d       	mov.l	r1,@(52,r12)
    3734:	1e 1e       	mov.l	r1,@(56,r14)
    3736:	1f 1f       	mov.l	r1,@(60,r15)
    3738:	20 21       	mov.w	r2,@r0
    373a:	21 22       	mov.l	r2,@r1
    373c:	22 23       	.word 0x2223
    373e:	24 24       	mov.b	r2,@-r4
    3740:	25 25       	mov.w	r2,@-r5
    3742:	26 27       	div0s	r2,r6
    3744:	27 28       	tst	r2,r7
    3746:	28 29       	and	r2,r8
    3748:	29 2a       	xor	r2,r9
    374a:	2b 2b       	or	r2,r11
    374c:	2c 2c       	cmp/str	r2,r12
    374e:	2d 2e       	mulu.w	r2,r13
    3750:	2e 2f       	muls.w	r2,r14
    3752:	2f 30       	mov.b	r3,@r15
    3754:	31 31       	.word 0x3131
    3756:	32 32       	cmp/hs	r3,r2
    3758:	33 34       	div1	r3,r3
    375a:	34 35       	dmulu.l	r3,r4
    375c:	35 36       	cmp/hi	r3,r5
    375e:	37 37       	cmp/gt	r3,r7
    3760:	38 38       	sub	r3,r8
    3762:	39 3a       	subc	r3,r9
    3764:	3a 3b       	subv	r3,r10
    3766:	3c 3c       	add	r3,r12
    3768:	3d 3d       	dmuls.l	r3,r13
    376a:	3e 3f       	addv	r3,r14
    376c:	3f 40       	cmp/eq	r4,r15
    376e:	40 41       	.word 0x4041
    3770:	42 42       	.word 0x4242
    3772:	43 43       	stc.l	spc,@-r3
    3774:	44 45       	.word 0x4445
    3776:	45 46       	.word 0x4546
    3778:	46 47       	ldc.l	@r6+,spc
    377a:	48 48       	.word 0x4848
    377c:	49 49       	.word 0x4949
    377e:	4a 4b       	.word 0x4a4b
    3780:	4b 4c       	shad	r4,r11
    3782:	4d 4d       	shld	r4,r13
    3784:	4e 4e       	ldc	r14,spc
    3786:	4f 50       	.word 0x4f50
    3788:	50 51       	mov.l	@(4,r5),r0
    378a:	51 52       	mov.l	@(8,r5),r1
    378c:	53 53       	mov.l	@(12,r5),r3
    378e:	54 55       	mov.l	@(20,r5),r4
    3790:	55 56       	mov.l	@(24,r5),r5
    3792:	56 57       	mov.l	@(28,r5),r6
    3794:	58 58       	mov.l	@(32,r5),r8
    3796:	59 59       	mov.l	@(36,r5),r9
    3798:	5a 5b       	mov.l	@(44,r5),r10
    379a:	5b 5c       	mov.l	@(48,r5),r11
    379c:	5d 5d       	mov.l	@(52,r5),r13
    379e:	5e 5e       	mov.l	@(56,r5),r14
    37a0:	5f 60       	mov.l	@(0,r6),r15
    37a2:	60 61       	mov.w	@r6,r0
    37a4:	62 62       	mov.l	@r6,r2
    37a6:	63 63       	mov	r6,r3
    37a8:	64 65       	mov.w	@r6+,r4
    37aa:	65 66       	mov.l	@r6+,r5
    37ac:	67 67       	not	r6,r7
    37ae:	68 68       	swap.b	r6,r8
    37b0:	69 6a       	negc	r6,r9
    37b2:	6a 6b       	neg	r6,r10
    37b4:	6c 6c       	extu.b	r6,r12
    37b6:	6d 6d       	extu.w	r6,r13
    37b8:	6e 6f       	exts.w	r6,r14
    37ba:	6f 70       	mov.b	@r7,r15
    37bc:	71 71       	add	#113,r1
    37be:	72 72       	add	#114,r2
    37c0:	73 74       	add	#116,r3
    37c2:	74 75       	add	#117,r4
    37c4:	76 76       	add	#118,r6
    37c6:	77 77       	add	#119,r7
    37c8:	78 79       	add	#121,r8
    37ca:	79 7a       	add	#122,r9
    37cc:	7b 7b       	add	#123,r11
    37ce:	7c 7d       	add	#125,r12
    37d0:	7d 7e       	add	#126,r13
    37d2:	7e 7f       	add	#127,r14
    37d4:	80 80       	mov.b	r0,@(0,r8)
    37d6:	81 82       	mov.w	r0,@(4,r8)
    37d8:	82 83       	.word 0x8283
    37da:	84 84       	mov.b	@(4,r8),r0
    37dc:	85 85       	mov.w	@(10,r8),r0
    37de:	86 87       	.word 0x8687
    37e0:	87 88       	.word 0x8788
    37e2:	89 89       	bt	36f8 <_sddrv_129i+0x36f8>
    37e4:	8a 8b       	.word 0x8a8b
    37e6:	8b 8c       	bf	3702 <_sddrv_129i+0x3702>
    37e8:	8c 8d       	.word 0x8c8d
    37ea:	8e 8e       	.word 0x8e8e
    37ec:	8f 90       	bf.s	3710 <_sddrv_129i+0x3710>
    37ee:	90 91       	mov.w	3914 <_sddrv_129i+0x3914>,r0	! 5a5b
    37f0:	92 92       	mov.w	3918 <_sddrv_129i+0x3918>,r2	! 5d5e
    37f2:	93 94       	mov.w	391e <_sddrv_129i+0x391e>,r3	! 6263
    37f4:	94 95       	mov.w	3922 <_sddrv_129i+0x3922>,r4	! 6566
    37f6:	95 96       	mov.w	3926 <_sddrv_129i+0x3926>,r5	! 6868
    37f8:	97 97       	mov.w	392a <_sddrv_129i+0x392a>,r7	! 6b6b
    37fa:	98 99       	mov.w	3930 <_sddrv_129i+0x3930>,r8	! 6f70
    37fc:	99 9a       	mov.w	3934 <_sddrv_129i+0x3934>,r9	! 7273
    37fe:	9b 9b       	mov.w	3938 <_sddrv_129i+0x3938>,r11	! 7576
    3800:	9c 9d       	mov.w	393e <_sddrv_129i+0x393e>,r12	! 7a7a
    3802:	9d 9e       	mov.w	3942 <_sddrv_129i+0x3942>,r13	! 7d7d
    3804:	9f 9f       	mov.w	3946 <_sddrv_129i+0x3946>,r15	! 8080
    3806:	a0 a0       	bra	394a <_sddrv_129i+0x394a>
    3808:	a1 a2       	bra	3b50 <_sddrv_129i+0x3b50>
    380a:	a2 a3       	bra	3d54 <_sddrv_129i+0x3d54>
    380c:	a4 a4       	bra	4158 <_sddrv_129i+0x4158>
    380e:	a5 a6       	bra	435e <_sddrv_129i+0x435e>
    3810:	a6 a7       	bra	4562 <_sddrv_129i+0x4562>
    3812:	a8 a8       	bra	2966 <_sddrv_129i+0x2966>
    3814:	a9 aa       	bra	2b6c <_sddrv_129i+0x2b6c>
    3816:	aa ab       	bra	2d70 <_sddrv_129i+0x2d70>
    3818:	ac ac       	bra	3174 <_sddrv_129i+0x3174>
    381a:	ad ae       	bra	337a <_sddrv_129i+0x337a>
    381c:	ae af       	bra	357e <_sddrv_129i+0x357e>
    381e:	b0 b0       	bsr	3982 <_sddrv_129i+0x3982>
    3820:	b1 b1       	bsr	3b86 <_sddrv_129i+0x3b86>
    3822:	b2 b3       	bsr	3d8c <_sddrv_129i+0x3d8c>
    3824:	b3 b4       	bsr	3f90 <_sddrv_129i+0x3f90>
    3826:	b5 b5       	bsr	4394 <_sddrv_129i+0x4394>
    3828:	b6 b7       	bsr	459a <_sddrv_129i+0x459a>
    382a:	b7 b8       	bsr	479e <_sddrv_129i+0x479e>
    382c:	b9 b9       	bsr	2ba2 <_sddrv_129i+0x2ba2>
    382e:	ba bb       	bsr	2da8 <_sddrv_129i+0x2da8>
    3830:	bb bc       	bsr	2fac <_sddrv_129i+0x2fac>
    3832:	bd bd       	bsr	33b0 <_sddrv_129i+0x33b0>
    3834:	be bf       	bsr	35b6 <_sddrv_129i+0x35b6>
    3836:	bf c0       	bsr	37ba <_sddrv_129i+0x37ba>
    3838:	c1 c1       	mov.w	r0,@(386,gbr)
    383a:	c2 c3       	mov.l	r0,@(780,gbr)
    383c:	c3 c4       	trapa	#-60
    383e:	c5 c5       	mov.w	@(394,gbr),r0
    3840:	c6 c7       	mov.l	@(796,gbr),r0
    3842:	c7 c8       	mova	3b64 <_sddrv_129i+0x3b64>,r0
    3844:	c9 c9       	and	#-55,r0
    3846:	ca cb       	xor	#-53,r0
    3848:	cb cc       	or	#-52,r0
    384a:	cd cd       	and.b	#-51,@(r0,gbr)
    384c:	ce cf       	xor.b	#-49,@(r0,gbr)
    384e:	cf d0       	or.b	#-48,@(r0,gbr)
    3850:	d1 d1       	mov.l	3b98 <_sddrv_129i+0x3b98>,r1	! 4410484
    3852:	d2 d3       	mov.l	3ba0 <_sddrv_129i+0x3ba0>,r2	! 55905a4
    3854:	d3 d4       	mov.l	3ba8 <_sddrv_129i+0x3ba8>,r3	! 69106e4
    3856:	d5 d5       	mov.l	3bac <_sddrv_129i+0x3bac>,r5	! 7390790
    3858:	d6 d7       	mov.l	3bb8 <_sddrv_129i+0x3bb8>,r6	! 96109c4
    385a:	d7 d8       	mov.l	3bbc <_sddrv_129i+0x3bbc>,r7	! a290a90
    385c:	d9 da       	mov.l	3bc8 <_sddrv_129i+0x3bc8>,r9	! cb10d24
    385e:	da db       	mov.l	3bcc <_sddrv_129i+0x3bcc>,r10	! d990e10
    3860:	dc dc       	mov.l	3bd4 <_sddrv_129i+0x3bd4>,r12	! f811000
    3862:	dd de       	mov.l	3bdc <_sddrv_129i+0x3bdc>,r13	! 11891210
    3864:	de df       	mov.l	3be4 <_sddrv_129i+0x3be4>,r14	! 13b11440
    3866:	e0 e0       	mov	#-32,r0
    3868:	e1 e2       	mov	#-30,r1
    386a:	e2 e3       	mov	#-29,r2
    386c:	e4 e4       	mov	#-28,r4
    386e:	e5 e6       	mov	#-26,r5
    3870:	e6 e7       	mov	#-25,r6
    3872:	e8 e8       	mov	#-24,r8
    3874:	e9 ea       	mov	#-22,r9
    3876:	eb eb       	mov	#-21,r11
    3878:	ec ed       	mov	#-19,r12
    387a:	ed ee       	mov	#-18,r13
    387c:	ef ef       	mov	#-17,r15
    387e:	f0 f1       	fsub	fr15,fr0
    3880:	f1 f2       	fmul	fr15,fr1
    3882:	f3 f3       	fdiv	fr15,fr3
    3884:	f4 f5       	fcmp/gt	fr15,fr4
    3886:	f5 f6       	fmov	@(r0,r15),fr5
    3888:	f7 f8       	fmov	@r15,fr7
    388a:	f8 f9       	fmov	@r15+,fr8
    388c:	fa fa       	fmov	fr15,@r10
    388e:	fb fc       	fmov	fr15,fr11
    3890:	fc fd       	fsca	fpul,dr12
    3892:	fe fe       	fmac	fr0,fr15,fr14
    3894:	ff 00       	fadd	fr0,fr15
    3896:	01 01       	.word 0x0101
    3898:	02 03       	bsrf	r2
    389a:	03 04       	mov.b	r0,@(r0,r3)
    389c:	05 05       	mov.w	r0,@(r0,r5)
    389e:	06 07       	mul.l	r0,r6
    38a0:	07 08       	.word 0x0708
    38a2:	09 0a       	sts	mach,r9
    38a4:	0a 0b       	.word 0x0a0b
    38a6:	0c 0c       	mov.b	@(r0,r0),r12
    38a8:	0d 0e       	mov.l	@(r0,r0),r13
    38aa:	0e 0f       	mac.l	@r0+,@r14+
    38ac:	10 11       	mov.l	r1,@(4,r0)
    38ae:	11 12       	mov.l	r1,@(8,r1)
    38b0:	13 13       	mov.l	r1,@(12,r3)
    38b2:	14 15       	mov.l	r1,@(20,r4)
    38b4:	15 16       	mov.l	r1,@(24,r5)
    38b6:	17 18       	mov.l	r1,@(32,r7)
    38b8:	18 19       	mov.l	r1,@(36,r8)
    38ba:	1a 1a       	mov.l	r1,@(40,r10)
    38bc:	1b 1c       	mov.l	r1,@(48,r11)
    38be:	1d 1d       	mov.l	r1,@(52,r13)
    38c0:	1e 1f       	mov.l	r1,@(60,r14)
    38c2:	1f 20       	mov.l	r2,@(0,r15)
    38c4:	21 21       	mov.w	r2,@r1
    38c6:	22 23       	.word 0x2223
    38c8:	24 24       	mov.b	r2,@-r4
    38ca:	25 26       	mov.l	r2,@-r5
    38cc:	26 27       	div0s	r2,r6
    38ce:	28 29       	and	r2,r8
    38d0:	29 2a       	xor	r2,r9
    38d2:	2b 2b       	or	r2,r11
    38d4:	2c 2d       	xtrct	r2,r12
    38d6:	2e 2e       	mulu.w	r2,r14
    38d8:	2f 30       	mov.b	r3,@r15
    38da:	30 31       	.word 0x3031
    38dc:	32 33       	cmp/ge	r3,r2
    38de:	33 34       	div1	r3,r3
    38e0:	35 35       	dmulu.l	r3,r5
    38e2:	36 37       	cmp/gt	r3,r6
    38e4:	38 38       	sub	r3,r8
    38e6:	39 3a       	subc	r3,r9
    38e8:	3a 3b       	subv	r3,r10
    38ea:	3c 3d       	dmuls.l	r3,r12
    38ec:	3d 3e       	addc	r3,r13
    38ee:	3f 40       	cmp/eq	r4,r15
    38f0:	40 41       	.word 0x4041
    38f2:	42 42       	.word 0x4242
    38f4:	43 44       	.word 0x4344
    38f6:	45 45       	.word 0x4545
    38f8:	46 47       	ldc.l	@r6+,spc
    38fa:	47 48       	.word 0x4748
    38fc:	49 4a       	.word 0x494a
    38fe:	4a 4b       	.word 0x4a4b
    3900:	4c 4d       	shld	r4,r12
    3902:	4d 4e       	ldc	r13,spc
    3904:	4f 4f       	mac.w	@r4+,@r15+
    3906:	50 51       	mov.l	@(4,r5),r0
    3908:	52 52       	mov.l	@(8,r5),r2
    390a:	53 54       	mov.l	@(16,r5),r3
    390c:	55 55       	mov.l	@(20,r5),r5
    390e:	56 57       	mov.l	@(28,r5),r6
    3910:	58 58       	mov.l	@(32,r5),r8
    3912:	59 5a       	mov.l	@(40,r5),r9
    3914:	5a 5b       	mov.l	@(44,r5),r10
    3916:	5c 5d       	mov.l	@(52,r5),r12
    3918:	5d 5e       	mov.l	@(56,r5),r13
    391a:	5f 60       	mov.l	@(0,r6),r15
    391c:	60 61       	mov.w	@r6,r0
    391e:	62 63       	mov	r6,r2
    3920:	63 64       	mov.b	@r6+,r3
    3922:	65 66       	mov.l	@r6+,r5
    3924:	66 67       	not	r6,r6
    3926:	68 68       	swap.b	r6,r8
    3928:	69 6a       	negc	r6,r9
    392a:	6b 6b       	neg	r6,r11
    392c:	6c 6d       	extu.w	r6,r12
    392e:	6e 6e       	exts.b	r6,r14
    3930:	6f 70       	mov.b	@r7,r15
    3932:	71 71       	add	#113,r1
    3934:	72 73       	add	#115,r2
    3936:	74 74       	add	#116,r4
    3938:	75 76       	add	#118,r5
    393a:	77 77       	add	#119,r7
    393c:	78 79       	add	#121,r8
    393e:	7a 7a       	add	#122,r10
    3940:	7b 7c       	add	#124,r11
    3942:	7d 7d       	add	#125,r13
    3944:	7e 7f       	add	#127,r14
    3946:	80 80       	mov.b	r0,@(0,r8)
    3948:	81 82       	mov.w	r0,@(4,r8)
    394a:	83 83       	.word 0x8383
    394c:	84 85       	mov.b	@(5,r8),r0
    394e:	86 86       	.word 0x8686
    3950:	87 88       	.word 0x8788
    3952:	89 89       	bt	3868 <_sddrv_129i+0x3868>
    3954:	8a 8b       	.word 0x8a8b
    3956:	8c 8c       	.word 0x8c8c
    3958:	8d 8e       	bt.s	3878 <_sddrv_129i+0x3878>
    395a:	8f 8f       	bf.s	387c <_sddrv_129i+0x387c>
    395c:	90 91       	mov.w	3a82 <_sddrv_129i+0x3a82>,r0	! 7f80
    395e:	92 92       	mov.w	3a86 <_sddrv_129i+0x3a86>,r2	! 8283
    3960:	93 94       	mov.w	3a8c <_sddrv_129i+0x3a8c>,r3	! 8788
    3962:	95 96       	mov.w	3a92 <_sddrv_129i+0x3a92>,r5	! 8d8d
    3964:	96 97       	mov.w	3a96 <_sddrv_129i+0x3a96>,r6	! 9091
    3966:	98 99       	mov.w	3a9c <_sddrv_129i+0x3a9c>,r8	! 9596
    3968:	99 9a       	mov.w	3aa0 <_sddrv_129i+0x3aa0>,r9	! 999a
    396a:	9b 9c       	mov.w	3aa6 <_sddrv_129i+0x3aa6>,r11	! 9e9f
    396c:	9c 9d       	mov.w	3aaa <_sddrv_129i+0x3aaa>,r12	! a2a2
    396e:	9e 9f       	mov.w	3ab0 <_sddrv_129i+0x3ab0>,r14	! a7a8
    3970:	9f a0       	mov.w	3ab4 <_sddrv_129i+0x3ab4>,r15	! aaab
    3972:	a1 a2       	bra	3cba <_sddrv_129i+0x3cba>
    3974:	a2 a3       	bra	3ebe <_sddrv_129i+0x3ebe>
    3976:	a4 a5       	bra	42c4 <_sddrv_129i+0x42c4>
    3978:	a6 a6       	bra	46c8 <_sddrv_129i+0x46c8>
    397a:	a7 a8       	bra	48ce <_sddrv_129i+0x48ce>
    397c:	a9 a9       	bra	2cd2 <_sddrv_129i+0x2cd2>
    397e:	aa ab       	bra	2ed8 <_sddrv_129i+0x2ed8>
    3980:	ac ac       	bra	32dc <_sddrv_129i+0x32dc>
    3982:	ad ae       	bra	34e2 <_sddrv_129i+0x34e2>
    3984:	af b0       	bra	38e8 <_sddrv_129i+0x38e8>
    3986:	b0 b1       	bsr	3aec <_sddrv_129i+0x3aec>
    3988:	b2 b3       	bsr	3ef2 <_sddrv_129i+0x3ef2>
    398a:	b3 b4       	bsr	40f6 <_sddrv_129i+0x40f6>
    398c:	b5 b6       	bsr	44fc <_sddrv_129i+0x44fc>
    398e:	b7 b7       	bsr	4900 <_sddrv_129i+0x4900>
    3990:	b8 b9       	bsr	2b06 <_sddrv_129i+0x2b06>
    3992:	ba ba       	bsr	2f0a <_sddrv_129i+0x2f0a>
    3994:	bb bc       	bsr	3110 <_sddrv_129i+0x3110>
    3996:	bd be       	bsr	3516 <_sddrv_129i+0x3516>
    3998:	be bf       	bsr	371a <_sddrv_129i+0x371a>
    399a:	c0 c1       	mov.b	r0,@(193,gbr)
    399c:	c1 c2       	mov.w	r0,@(388,gbr)
    399e:	c3 c4       	trapa	#-60
    39a0:	c5 c5       	mov.w	@(394,gbr),r0
    39a2:	c6 c7       	mov.l	@(796,gbr),r0
    39a4:	c8 c8       	tst	#-56,r0
    39a6:	c9 ca       	and	#-54,r0
    39a8:	cb cc       	or	#-52,r0
    39aa:	cc cd       	tst.b	#-51,@(r0,gbr)
    39ac:	ce cf       	xor.b	#-49,@(r0,gbr)
    39ae:	d0 d0       	mov.l	3cf0 <_sddrv_129i+0x3cf0>,r0	! a429a5c4
    39b0:	d1 d2       	mov.l	3cfc <_sddrv_129i+0x3cfc>,r1	! ade9af90
    39b2:	d3 d3       	mov.l	3d00 <_sddrv_129i+0x3d00>,r3	! b139b2e4
    39b4:	d4 d5       	mov.l	3d0c <_sddrv_129i+0x3d0c>,r4	! bb59bd10
    39b6:	d6 d7       	mov.l	3d14 <_sddrv_129i+0x3d14>,r6	! c241c400
    39b8:	d7 d8       	mov.l	3d1c <_sddrv_129i+0x3d1c>,r7	! c949cb10
    39ba:	d9 da       	mov.l	3d24 <_sddrv_129i+0x3d24>,r9	! d071d240
    39bc:	db db       	mov.l	3d2c <_sddrv_129i+0x3d2c>,r11	! d7b9d990
    39be:	dc dd       	mov.l	3d34 <_sddrv_129i+0x3d34>,r12	! df21e100
    39c0:	de df       	mov.l	3d40 <_sddrv_129i+0x3d40>,r14	! ea79ec64
    39c2:	df e0       	mov.l	3d44 <_sddrv_129i+0x3d44>,r15	! ee51f040
    39c4:	e1 e2       	mov	#-30,r1
    39c6:	e3 e3       	mov	#-29,r3
    39c8:	e4 e5       	mov	#-27,r4
    39ca:	e6 e7       	mov	#-25,r6
    39cc:	e7 e8       	mov	#-24,r7
    39ce:	e9 ea       	mov	#-22,r9
    39d0:	eb eb       	mov	#-21,r11
    39d2:	ec ed       	mov	#-19,r12
    39d4:	ee ef       	mov	#-17,r14
    39d6:	ef f0       	mov	#-16,r15
    39d8:	f1 f2       	fmul	fr15,fr1
    39da:	f3 f3       	fdiv	fr15,fr3
    39dc:	f4 f5       	fcmp/gt	fr15,fr4
    39de:	f6 f7       	fmov	fr15,@(r0,r6)
    39e0:	f7 f8       	fmov	@r15,fr7
    39e2:	f9 fa       	fmov	fr15,@r9
    39e4:	fb fb       	fmov	fr15,@-r11
    39e6:	fc fd       	fsca	fpul,dr12
    39e8:	fe ff       	.word 0xfeff
    39ea:	ff 00       	fadd	fr0,fr15
    39ec:	01 02       	stc	sr,r1
    39ee:	03 03       	bsrf	r3
    39f0:	04 05       	mov.w	r0,@(r0,r4)
    39f2:	06 07       	mul.l	r0,r6
    39f4:	08 08       	.word 0x0808
    39f6:	09 0a       	sts	mach,r9
    39f8:	0b 0c       	mov.b	@(r0,r0),r11
    39fa:	0c 0d       	mov.w	@(r0,r0),r12
    39fc:	0e 0f       	mac.l	@r0+,@r14+
    39fe:	10 10       	mov.l	r1,@(0,r0)
    3a00:	11 12       	mov.l	r1,@(8,r1)
    3a02:	13 14       	mov.l	r1,@(16,r3)
    3a04:	15 15       	mov.l	r1,@(20,r5)
    3a06:	16 17       	mov.l	r1,@(28,r6)
    3a08:	18 19       	mov.l	r1,@(36,r8)
    3a0a:	19 1a       	mov.l	r1,@(40,r9)
    3a0c:	1b 1c       	mov.l	r1,@(48,r11)
    3a0e:	1d 1e       	mov.l	r1,@(56,r13)
    3a10:	1e 1f       	mov.l	r1,@(60,r14)
    3a12:	20 21       	mov.w	r2,@r0
    3a14:	22 23       	.word 0x2223
    3a16:	23 24       	mov.b	r2,@-r3
    3a18:	25 26       	mov.l	r2,@-r5
    3a1a:	27 27       	div0s	r2,r7
    3a1c:	28 29       	and	r2,r8
    3a1e:	2a 2b       	or	r2,r10
    3a20:	2c 2c       	cmp/str	r2,r12
    3a22:	2d 2e       	mulu.w	r2,r13
    3a24:	2f 30       	mov.b	r3,@r15
    3a26:	31 31       	.word 0x3131
    3a28:	32 33       	cmp/ge	r3,r2
    3a2a:	34 35       	dmulu.l	r3,r4
    3a2c:	36 36       	cmp/hi	r3,r6
    3a2e:	37 38       	sub	r3,r7
    3a30:	39 3a       	subc	r3,r9
    3a32:	3b 3b       	subv	r3,r11
    3a34:	3c 3d       	dmuls.l	r3,r12
    3a36:	3e 3f       	addv	r3,r14
    3a38:	40 40       	.word 0x4040
    3a3a:	41 42       	.word 0x4142
    3a3c:	43 44       	.word 0x4344
    3a3e:	45 45       	.word 0x4545
    3a40:	46 47       	ldc.l	@r6+,spc
    3a42:	48 49       	.word 0x4849
    3a44:	4a 4b       	.word 0x4a4b
    3a46:	4b 4c       	shad	r4,r11
    3a48:	4d 4e       	ldc	r13,spc
    3a4a:	4f 50       	.word 0x4f50
    3a4c:	50 51       	mov.l	@(4,r5),r0
    3a4e:	52 53       	mov.l	@(12,r5),r2
    3a50:	54 55       	mov.l	@(20,r5),r4
    3a52:	56 56       	mov.l	@(24,r5),r6
    3a54:	57 58       	mov.l	@(32,r5),r7
    3a56:	59 5a       	mov.l	@(40,r5),r9
    3a58:	5b 5b       	mov.l	@(44,r5),r11
    3a5a:	5c 5d       	mov.l	@(52,r5),r12
    3a5c:	5e 5f       	mov.l	@(60,r5),r14
    3a5e:	60 61       	mov.w	@r6,r0
    3a60:	61 62       	mov.l	@r6,r1
    3a62:	63 64       	mov.b	@r6+,r3
    3a64:	65 66       	mov.l	@r6+,r5
    3a66:	67 67       	not	r6,r7
    3a68:	68 69       	swap.w	r6,r8
    3a6a:	6a 6b       	neg	r6,r10
    3a6c:	6c 6d       	extu.w	r6,r12
    3a6e:	6d 6e       	exts.b	r6,r13
    3a70:	6f 70       	mov.b	@r7,r15
    3a72:	71 72       	add	#114,r1
    3a74:	73 73       	add	#115,r3
    3a76:	74 75       	add	#117,r4
    3a78:	76 77       	add	#119,r6
    3a7a:	78 79       	add	#121,r8
    3a7c:	79 7a       	add	#122,r9
    3a7e:	7b 7c       	add	#124,r11
    3a80:	7d 7e       	add	#126,r13
    3a82:	7f 80       	add	#-128,r15
    3a84:	80 81       	mov.b	r0,@(1,r8)
    3a86:	82 83       	.word 0x8283
    3a88:	84 85       	mov.b	@(5,r8),r0
    3a8a:	86 86       	.word 0x8686
    3a8c:	87 88       	.word 0x8788
    3a8e:	89 8a       	bt	39a6 <_sddrv_129i+0x39a6>
    3a90:	8b 8c       	bf	39ac <_sddrv_129i+0x39ac>
    3a92:	8d 8d       	bt.s	39b0 <_sddrv_129i+0x39b0>
    3a94:	8e 8f       	.word 0x8e8f
    3a96:	90 91       	mov.w	3bbc <_sddrv_129i+0x3bbc>,r0	! a29
    3a98:	92 93       	mov.w	3bc2 <_sddrv_129i+0x3bc2>,r2	! b64
    3a9a:	94 94       	mov.w	3bc6 <_sddrv_129i+0x3bc6>,r4	! c40
    3a9c:	95 96       	mov.w	3bcc <_sddrv_129i+0x3bcc>,r5	! d99
    3a9e:	97 98       	mov.w	3bd2 <_sddrv_129i+0x3bd2>,r7	! f04
    3aa0:	99 9a       	mov.w	3bd8 <_sddrv_129i+0x3bd8>,r9	! 1081
    3aa2:	9b 9b       	mov.w	3bdc <_sddrv_129i+0x3bdc>,r11	! 1189
    3aa4:	9c 9d       	mov.w	3be2 <_sddrv_129i+0x3be2>,r12	! 1324
    3aa6:	9e 9f       	mov.w	3be8 <_sddrv_129i+0x3be8>,r14	! 14d1
    3aa8:	a0 a1       	bra	3bee <_sddrv_129i+0x3bee>
    3aaa:	a2 a2       	bra	3ff2 <_sddrv_129i+0x3ff2>
    3aac:	a3 a4       	bra	41f8 <_sddrv_129i+0x41f8>
    3aae:	a5 a6       	bra	45fe <_sddrv_129i+0x45fe>
    3ab0:	a7 a8       	bra	4a04 <_sddrv_129i+0x4a04>
    3ab2:	a9 aa       	bra	2e0a <_sddrv_129i+0x2e0a>
    3ab4:	aa ab       	bra	300e <_sddrv_129i+0x300e>
    3ab6:	ac ad       	bra	3414 <_sddrv_129i+0x3414>
    3ab8:	ae af       	bra	381a <_sddrv_129i+0x381a>
    3aba:	b0 b1       	bsr	3c20 <_sddrv_129i+0x3c20>
    3abc:	b2 b2       	bsr	4024 <_sddrv_129i+0x4024>
    3abe:	b3 b4       	bsr	422a <_sddrv_129i+0x422a>
    3ac0:	b5 b6       	bsr	4630 <_sddrv_129i+0x4630>
    3ac2:	b7 b8       	bsr	4a36 <_sddrv_129i+0x4a36>
    3ac4:	b9 ba       	bsr	2e3c <_sddrv_129i+0x2e3c>
    3ac6:	ba bb       	bsr	3040 <_sddrv_129i+0x3040>
    3ac8:	bc bd       	bsr	3446 <_sddrv_129i+0x3446>
    3aca:	be bf       	bsr	384c <_sddrv_129i+0x384c>
    3acc:	c0 c1       	mov.b	r0,@(193,gbr)
    3ace:	c2 c3       	mov.l	r0,@(780,gbr)
    3ad0:	c3 c4       	trapa	#-60
    3ad2:	c5 c6       	mov.w	@(396,gbr),r0
    3ad4:	c7 c8       	mova	3df8 <_sddrv_129i+0x3df8>,r0
    3ad6:	c9 ca       	and	#-54,r0
    3ad8:	cb cb       	or	#-53,r0
    3ada:	cc cd       	tst.b	#-51,@(r0,gbr)
    3adc:	ce cf       	xor.b	#-49,@(r0,gbr)
    3ade:	d0 d1       	mov.l	3e24 <_sddrv_129i+0x3e24>,r0	! 1f002000
    3ae0:	d2 d3       	mov.l	3e30 <_sddrv_129i+0x3e30>,r2	! 25002600
    3ae2:	d4 d5       	mov.l	3e38 <_sddrv_129i+0x3e38>,r4	! 29002a00
    3ae4:	d5 d6       	mov.l	3e40 <_sddrv_129i+0x3e40>,r5	! 2d002e00
    3ae6:	d7 d8       	mov.l	3e48 <_sddrv_129i+0x3e48>,r7	! 31003200
    3ae8:	d9 da       	mov.l	3e54 <_sddrv_129i+0x3e54>,r9	! 3a003c00
    3aea:	db dc       	mov.l	3e5c <_sddrv_129i+0x3e5c>,r11	! 42004400
    3aec:	dd de       	mov.l	3e68 <_sddrv_129i+0x3e68>,r13	! 58005c00
    3aee:	de df       	mov.l	3e6c <_sddrv_129i+0x3e6c>,r14	! 5fff0000
    3af0:	e0 e1       	mov	#-31,r0
    3af2:	e2 e3       	mov	#-29,r2
    3af4:	e4 e5       	mov	#-27,r4
    3af6:	e6 e7       	mov	#-25,r6
    3af8:	e8 e9       	mov	#-23,r8
    3afa:	e9 ea       	mov	#-22,r9
    3afc:	eb ec       	mov	#-20,r11
    3afe:	ed ee       	mov	#-18,r13
    3b00:	ef f0       	mov	#-16,r15
    3b02:	f1 f2       	fmul	fr15,fr1
    3b04:	f3 f4       	fcmp/eq	fr15,fr3
    3b06:	f4 f5       	fcmp/gt	fr15,fr4
    3b08:	f6 f7       	fmov	fr15,@(r0,r6)
    3b0a:	f8 f9       	fmov	@r15+,fr8
    3b0c:	fa fb       	fmov	fr15,@-r10
    3b0e:	fc fd       	fsca	fpul,dr12
    3b10:	fe ff       	.word 0xfeff
    3b12:	02 40       	.word 0x0240
    3b14:	00 ff       	mac.l	@r15+,@r0+
    3b16:	60 08       	swap.b	r0,r0
    3b18:	10 00       	mov.l	r0,@(0,r0)
    3b1a:	6b 0c       	extu.b	r0,r11
    3b1c:	02 40       	.word 0x0240
    3b1e:	00 7f       	mac.l	@r7+,@r0+
    3b20:	d0 40       	mov.l	3c24 <_sddrv_129i+0x3c24>,r0	! 29712a40
    3b22:	30 3b       	subv	r3,r0
    3b24:	00 32       	stc	ssr,r0
    3b26:	4e 75       	.word 0x4e75
    3b28:	44 00       	shll	r4
    3b2a:	02 40       	.word 0x0240
    3b2c:	00 7f       	mac.l	@r7+,@r0+
    3b2e:	d0 40       	mov.l	3c30 <_sddrv_129i+0x3c30>,r0	! 2e692f44
    3b30:	30 3b       	subv	r3,r0
    3b32:	00 24       	mov.b	r2,@(r0,r0)
    3b34:	44 40       	.word 0x4440
    3b36:	4e 75       	.word 0x4e75
    3b38:	10 00       	mov.l	r0,@(0,r0)
    3b3a:	6a 0e       	exts.b	r0,r10
    3b3c:	02 40       	.word 0x0240
    3b3e:	00 7f       	mac.l	@r7+,@r0+
    3b40:	d0 40       	mov.l	3c44 <_sddrv_129i+0x3c44>,r0	! 37513840
    3b42:	30 3b       	subv	r3,r0
    3b44:	00 12       	stc	gbr,r0
    3b46:	44 40       	.word 0x4440
    3b48:	4e 75       	.word 0x4e75
    3b4a:	02 40       	.word 0x0240
    3b4c:	00 7f       	mac.l	@r7+,@r0+
    3b4e:	d0 40       	mov.l	3c50 <_sddrv_129i+0x3c50>,r0	! 3d093e04
    3b50:	30 3b       	subv	r3,r0
    3b52:	00 04       	mov.b	r0,@(r0,r0)
    3b54:	4e 75       	.word 0x4e75
    3b56:	00 00       	.word 0x0000
    3b58:	00 01       	.word 0x0001
    3b5a:	00 04       	mov.b	r0,@(r0,r0)
    3b5c:	00 09       	nop	
    3b5e:	00 10       	.word 0x0010
    3b60:	00 19       	div0u	
    3b62:	00 24       	mov.b	r2,@(r0,r0)
    3b64:	00 31       	.word 0x0031
    3b66:	00 40       	.word 0x0040
    3b68:	00 51       	.word 0x0051
    3b6a:	00 64       	mov.b	r6,@(r0,r0)
    3b6c:	00 79       	.word 0x0079
    3b6e:	00 90       	.word 0x0090
    3b70:	00 a9       	.word 0x00a9
    3b72:	00 c4       	mov.b	r12,@(r0,r0)
    3b74:	00 e1       	.word 0x00e1
    3b76:	01 00       	.word 0x0100
    3b78:	01 21       	.word 0x0121
    3b7a:	01 44       	mov.b	r4,@(r0,r1)
    3b7c:	01 69       	.word 0x0169
    3b7e:	01 90       	.word 0x0190
    3b80:	01 b9       	.word 0x01b9
    3b82:	01 e4       	mov.b	r14,@(r0,r1)
    3b84:	02 11       	.word 0x0211
    3b86:	02 40       	.word 0x0240
    3b88:	02 71       	.word 0x0271
    3b8a:	02 a4       	mov.b	r10,@(r0,r2)
    3b8c:	02 d9       	.word 0x02d9
    3b8e:	03 10       	.word 0x0310
    3b90:	03 49       	.word 0x0349
    3b92:	03 84       	mov.b	r8,@(r0,r3)
    3b94:	03 c1       	.word 0x03c1
    3b96:	04 00       	.word 0x0400
    3b98:	04 41       	.word 0x0441
    3b9a:	04 84       	mov.b	r8,@(r0,r4)
    3b9c:	04 c9       	.word 0x04c9
    3b9e:	05 10       	.word 0x0510
    3ba0:	05 59       	.word 0x0559
    3ba2:	05 a4       	mov.b	r10,@(r0,r5)
    3ba4:	05 f1       	.word 0x05f1
    3ba6:	06 40       	.word 0x0640
    3ba8:	06 91       	.word 0x0691
    3baa:	06 e4       	mov.b	r14,@(r0,r6)
    3bac:	07 39       	.word 0x0739
    3bae:	07 90       	.word 0x0790
    3bb0:	07 e9       	.word 0x07e9
    3bb2:	08 44       	mov.b	r4,@(r0,r8)
    3bb4:	08 a1       	.word 0x08a1
    3bb6:	09 00       	.word 0x0900
    3bb8:	09 61       	.word 0x0961
    3bba:	09 c4       	mov.b	r12,@(r0,r9)
    3bbc:	0a 29       	movt	r10
    3bbe:	0a 90       	.word 0x0a90
    3bc0:	0a f9       	.word 0x0af9
    3bc2:	0b 64       	mov.b	r6,@(r0,r11)
    3bc4:	0b d1       	.word 0x0bd1
    3bc6:	0c 40       	.word 0x0c40
    3bc8:	0c b1       	.word 0x0cb1
    3bca:	0d 24       	mov.b	r2,@(r0,r13)
    3bcc:	0d 99       	.word 0x0d99
    3bce:	0e 10       	.word 0x0e10
    3bd0:	0e 89       	.word 0x0e89
    3bd2:	0f 04       	mov.b	r0,@(r0,r15)
    3bd4:	0f 81       	.word 0x0f81
    3bd6:	10 00       	mov.l	r0,@(0,r0)
    3bd8:	10 81       	mov.l	r8,@(4,r0)
    3bda:	11 04       	mov.l	r0,@(16,r1)
    3bdc:	11 89       	mov.l	r8,@(36,r1)
    3bde:	12 10       	mov.l	r1,@(0,r2)
    3be0:	12 99       	mov.l	r9,@(36,r2)
    3be2:	13 24       	mov.l	r2,@(16,r3)
    3be4:	13 b1       	mov.l	r11,@(4,r3)
    3be6:	14 40       	mov.l	r4,@(0,r4)
    3be8:	14 d1       	mov.l	r13,@(4,r4)
    3bea:	15 64       	mov.l	r6,@(16,r5)
    3bec:	15 f9       	mov.l	r15,@(36,r5)
    3bee:	16 90       	mov.l	r9,@(0,r6)
    3bf0:	17 29       	mov.l	r2,@(36,r7)
    3bf2:	17 c4       	mov.l	r12,@(16,r7)
    3bf4:	18 61       	mov.l	r6,@(4,r8)
    3bf6:	19 00       	mov.l	r0,@(0,r9)
    3bf8:	19 a1       	mov.l	r10,@(4,r9)
    3bfa:	1a 44       	mov.l	r4,@(16,r10)
    3bfc:	1a e9       	mov.l	r14,@(36,r10)
    3bfe:	1b 90       	mov.l	r9,@(0,r11)
    3c00:	1c 39       	mov.l	r3,@(36,r12)
    3c02:	1c e4       	mov.l	r14,@(16,r12)
    3c04:	1d 91       	mov.l	r9,@(4,r13)
    3c06:	1e 40       	mov.l	r4,@(0,r14)
    3c08:	1e f1       	mov.l	r15,@(4,r14)
    3c0a:	1f a4       	mov.l	r10,@(16,r15)
    3c0c:	20 59       	and	r5,r0
    3c0e:	21 10       	mov.b	r1,@r1
    3c10:	21 c9       	and	r12,r1
    3c12:	22 84       	mov.b	r8,@-r2
    3c14:	23 41       	mov.w	r4,@r3
    3c16:	24 00       	mov.b	r0,@r4
    3c18:	24 c1       	mov.w	r12,@r4
    3c1a:	25 84       	mov.b	r8,@-r5
    3c1c:	26 49       	and	r4,r6
    3c1e:	27 10       	mov.b	r1,@r7
    3c20:	27 d9       	and	r13,r7
    3c22:	28 a4       	mov.b	r10,@-r8
    3c24:	29 71       	mov.w	r7,@r9
    3c26:	2a 40       	mov.b	r4,@r10
    3c28:	2b 11       	mov.w	r1,@r11
    3c2a:	2b e4       	mov.b	r14,@-r11
    3c2c:	2c b9       	and	r11,r12
    3c2e:	2d 90       	mov.b	r9,@r13
    3c30:	2e 69       	and	r6,r14
    3c32:	2f 44       	mov.b	r4,@-r15
    3c34:	30 21       	.word 0x3021
    3c36:	31 00       	cmp/eq	r0,r1
    3c38:	31 e1       	.word 0x31e1
    3c3a:	32 c4       	div1	r12,r2
    3c3c:	33 a9       	.word 0x33a9
    3c3e:	34 90       	cmp/eq	r9,r4
    3c40:	35 79       	.word 0x3579
    3c42:	36 64       	div1	r6,r6
    3c44:	37 51       	.word 0x3751
    3c46:	38 40       	cmp/eq	r4,r8
    3c48:	39 31       	.word 0x3931
    3c4a:	3a 24       	div1	r2,r10
    3c4c:	3b 19       	.word 0x3b19
    3c4e:	3c 10       	cmp/eq	r1,r12
    3c50:	3d 09       	.word 0x3d09
    3c52:	3e 04       	div1	r0,r14
    3c54:	3f 01       	.word 0x3f01
    3c56:	40 00       	shll	r0
    3c58:	41 01       	shlr	r1
    3c5a:	42 04       	rotl	r2
    3c5c:	43 09       	shlr2	r3
    3c5e:	44 10       	dt	r4
    3c60:	45 19       	shlr8	r5
    3c62:	46 24       	rotcl	r6
    3c64:	47 31       	.word 0x4731
    3c66:	48 40       	.word 0x4840
    3c68:	49 51       	.word 0x4951
    3c6a:	4a 64       	.word 0x4a64
    3c6c:	4b 79       	.word 0x4b79
    3c6e:	4c 90       	.word 0x4c90
    3c70:	4d a9       	.word 0x4da9
    3c72:	4e c4       	.word 0x4ec4
    3c74:	4f e1       	.word 0x4fe1
    3c76:	51 00       	mov.l	@(0,r0),r1
    3c78:	52 21       	mov.l	@(4,r2),r2
    3c7a:	53 44       	mov.l	@(16,r4),r3
    3c7c:	54 69       	mov.l	@(36,r6),r4
    3c7e:	55 90       	mov.l	@(0,r9),r5
    3c80:	56 b9       	mov.l	@(36,r11),r6
    3c82:	57 e4       	mov.l	@(16,r14),r7
    3c84:	59 11       	mov.l	@(4,r1),r9
    3c86:	5a 40       	mov.l	@(0,r4),r10
    3c88:	5b 71       	mov.l	@(4,r7),r11
    3c8a:	5c a4       	mov.l	@(16,r10),r12
    3c8c:	5d d9       	mov.l	@(36,r13),r13
    3c8e:	5f 10       	mov.l	@(0,r1),r15
    3c90:	60 49       	swap.w	r4,r0
    3c92:	61 84       	mov.b	@r8+,r1
    3c94:	62 c1       	mov.w	@r12,r2
    3c96:	64 00       	mov.b	@r0,r4
    3c98:	65 41       	mov.w	@r4,r5
    3c9a:	66 84       	mov.b	@r8+,r6
    3c9c:	67 c9       	swap.w	r12,r7
    3c9e:	69 10       	mov.b	@r1,r9
    3ca0:	6a 59       	swap.w	r5,r10
    3ca2:	6b a4       	mov.b	@r10+,r11
    3ca4:	6c f1       	mov.w	@r15,r12
    3ca6:	6e 40       	mov.b	@r4,r14
    3ca8:	6f 91       	mov.w	@r9,r15
    3caa:	70 e4       	add	#-28,r0
    3cac:	72 39       	add	#57,r2
    3cae:	73 90       	add	#-112,r3
    3cb0:	74 e9       	add	#-23,r4
    3cb2:	76 44       	add	#68,r6
    3cb4:	77 a1       	add	#-95,r7
    3cb6:	79 00       	add	#0,r9
    3cb8:	7a 61       	add	#97,r10
    3cba:	7b c4       	add	#-60,r11
    3cbc:	7d 29       	add	#41,r13
    3cbe:	7e 90       	add	#-112,r14
    3cc0:	7f f9       	add	#-7,r15
    3cc2:	81 64       	mov.w	r0,@(8,r6)
    3cc4:	82 d1       	.word 0x82d1
    3cc6:	84 40       	mov.b	@(0,r4),r0
    3cc8:	85 b1       	mov.w	@(2,r11),r0
    3cca:	87 24       	.word 0x8724
    3ccc:	88 99       	cmp/eq	#-103,r0
    3cce:	8a 10       	.word 0x8a10
    3cd0:	8b 89       	bf	3be6 <_sddrv_129i+0x3be6>
    3cd2:	8d 04       	bt.s	3cde <_sddrv_129i+0x3cde>
    3cd4:	8e 81       	.word 0x8e81
    3cd6:	90 00       	mov.w	3cda <_sddrv_129i+0x3cda>,r0	! 9304
    3cd8:	91 81       	mov.w	3dde <_sddrv_129i+0x3dde>,r1	! a00
    3cda:	93 04       	mov.w	3ce6 <_sddrv_129i+0x3ce6>,r3	! 9c40
    3cdc:	94 89       	mov.w	3df2 <_sddrv_129i+0x3df2>,r4	! d00
    3cde:	96 10       	mov.w	3d02 <_sddrv_129i+0x3d02>,r6	! b2e4
    3ce0:	97 99       	mov.w	3e16 <_sddrv_129i+0x3e16>,r7	! 1800
    3ce2:	99 24       	mov.w	3d2e <_sddrv_129i+0x3d2e>,r9	! d990
    3ce4:	9a b1       	mov.w	3e4a <_sddrv_129i+0x3e4a>,r10	! 3200
    3ce6:	9c 40       	mov.w	3d6a <_sddrv_129i+0x3d6a>,r12	! 4440
    3ce8:	9d d1       	mov.w	3e8e <_sddrv_129i+0x3e8e>,r13	! 1315
    3cea:	9f 64       	mov.w	3db6 <_sddrv_129i+0x3db6>,r15	! 500
    3cec:	a0 f9       	bra	3ee2 <_sddrv_129i+0x3ee2>
    3cee:	a2 90       	bra	4212 <_sddrv_129i+0x4212>
    3cf0:	a4 29       	bra	4546 <_sddrv_129i+0x4546>
    3cf2:	a5 c4       	bra	487e <_sddrv_129i+0x487e>
    3cf4:	a7 61       	bra	4bba <_sddrv_129i+0x4bba>
    3cf6:	a9 00       	bra	2efa <_sddrv_129i+0x2efa>
    3cf8:	aa a1       	bra	323e <_sddrv_129i+0x323e>
    3cfa:	ac 44       	bra	3586 <_sddrv_129i+0x3586>
    3cfc:	ad e9       	bra	38d2 <_sddrv_129i+0x38d2>
    3cfe:	af 90       	bra	3c22 <_sddrv_129i+0x3c22>
    3d00:	b1 39       	bsr	3f76 <_sddrv_129i+0x3f76>
    3d02:	b2 e4       	bsr	42ce <_sddrv_129i+0x42ce>
    3d04:	b4 91       	bsr	462a <_sddrv_129i+0x462a>
    3d06:	b6 40       	bsr	498a <_sddrv_129i+0x498a>
    3d08:	b7 f1       	bsr	4cee <_sddrv_129i+0x4cee>
    3d0a:	b9 a4       	bsr	3056 <_sddrv_129i+0x3056>
    3d0c:	bb 59       	bsr	33c2 <_sddrv_129i+0x33c2>
    3d0e:	bd 10       	bsr	3732 <_sddrv_129i+0x3732>
    3d10:	be c9       	bsr	3aa6 <_sddrv_129i+0x3aa6>
    3d12:	c0 84       	mov.b	r0,@(132,gbr)
    3d14:	c2 41       	mov.l	r0,@(260,gbr)
    3d16:	c4 00       	mov.b	@(0,gbr),r0
    3d18:	c5 c1       	mov.w	@(386,gbr),r0
    3d1a:	c7 84       	mova	3f2c <_sddrv_129i+0x3f2c>,r0
    3d1c:	c9 49       	and	#73,r0
    3d1e:	cb 10       	or	#16,r0
    3d20:	cc d9       	tst.b	#-39,@(r0,gbr)
    3d22:	ce a4       	xor.b	#-92,@(r0,gbr)
    3d24:	d0 71       	mov.l	3eec <_sddrv_129i+0x3eec>,r0	! ffffffff
    3d26:	d2 40       	mov.l	3e28 <_sddrv_129i+0x3e28>,r2	! 21002200
    3d28:	d4 11       	mov.l	3d70 <_sddrv_129i+0x3d70>,r4	! 200040
    3d2a:	d5 e4       	mov.l	40bc <_sddrv_129i+0x40bc>,r5	! 79981998
    3d2c:	d7 b9       	mov.l	4014 <_sddrv_129i+0x4014>,r7	! 6670a
    3d2e:	d9 90       	mov.l	3f70 <_sddrv_129i+0x3f70>,r9	! 6000ffb0
    3d30:	db 69       	mov.l	3ed8 <_sddrv_129i+0x3ed8>,r11	! f5f6f7f8
    3d32:	dd 44       	mov.l	3e44 <_sddrv_129i+0x3e44>,r13	! 2f003000
    3d34:	df 21       	mov.l	3dbc <_sddrv_129i+0x3dbc>,r15	! 5c00600
    3d36:	e1 00       	mov	#0,r1
    3d38:	e2 e1       	mov	#-31,r2
    3d3a:	e4 c4       	mov	#-60,r4
    3d3c:	e6 a9       	mov	#-87,r6
    3d3e:	e8 90       	mov	#-112,r8
    3d40:	ea 79       	mov	#121,r10
    3d42:	ec 64       	mov	#100,r12
    3d44:	ee 51       	mov	#81,r14
    3d46:	f0 40       	fadd	fr4,fr0
    3d48:	f2 31       	fsub	fr3,fr2
    3d4a:	f4 24       	fcmp/eq	fr2,fr4
    3d4c:	f6 19       	fmov	@r1+,fr6
    3d4e:	f8 10       	fadd	fr1,fr8
    3d50:	fa 09       	fmov	@r0+,fr10
    3d52:	fc 04       	fcmp/eq	fr0,fr12
    3d54:	fe 01       	fsub	fr0,fr14
    3d56:	02 40       	.word 0x0240
    3d58:	00 ff       	mac.l	@r15+,@r0+
    3d5a:	d0 00       	mov.l	3d5c <_sddrv_129i+0x3d5c>,r0	! 6506303b
    3d5c:	65 06       	mov.l	@r0+,r5
    3d5e:	30 3b       	subv	r3,r0
    3d60:	00 0e       	mov.l	@(r0,r0),r0
    3d62:	4e 75       	.word 0x4e75
    3d64:	44 00       	shll	r4
    3d66:	30 3b       	subv	r3,r0
    3d68:	00 06       	mov.l	r0,@(r0,r0)
    3d6a:	44 40       	.word 0x4440
    3d6c:	4e 75       	.word 0x4e75
    3d6e:	00 00       	.word 0x0000
    3d70:	00 20       	.word 0x0020
    3d72:	00 40       	.word 0x0040
    3d74:	00 60       	.word 0x0060
    3d76:	00 80       	.word 0x0080
    3d78:	00 a0       	.word 0x00a0
    3d7a:	00 c0       	.word 0x00c0
    3d7c:	00 e0       	.word 0x00e0
    3d7e:	01 00       	.word 0x0100
    3d80:	01 20       	.word 0x0120
    3d82:	01 40       	.word 0x0140
    3d84:	01 60       	.word 0x0160
    3d86:	01 80       	.word 0x0180
    3d88:	01 a0       	.word 0x01a0
    3d8a:	01 c0       	.word 0x01c0
    3d8c:	01 e0       	.word 0x01e0
    3d8e:	02 00       	.word 0x0200
    3d90:	02 20       	.word 0x0220
    3d92:	02 40       	.word 0x0240
    3d94:	02 60       	.word 0x0260
    3d96:	02 80       	.word 0x0280
    3d98:	02 a0       	.word 0x02a0
    3d9a:	02 c0       	.word 0x02c0
    3d9c:	02 e0       	.word 0x02e0
    3d9e:	03 00       	.word 0x0300
    3da0:	03 20       	.word 0x0320
    3da2:	03 40       	.word 0x0340
    3da4:	03 60       	.word 0x0360
    3da6:	03 80       	.word 0x0380
    3da8:	03 a0       	.word 0x03a0
    3daa:	03 c0       	.word 0x03c0
    3dac:	03 e0       	.word 0x03e0
    3dae:	04 00       	.word 0x0400
    3db0:	04 40       	.word 0x0440
    3db2:	04 80       	.word 0x0480
    3db4:	04 c0       	.word 0x04c0
    3db6:	05 00       	.word 0x0500
    3db8:	05 40       	.word 0x0540
    3dba:	05 80       	.word 0x0580
    3dbc:	05 c0       	.word 0x05c0
    3dbe:	06 00       	.word 0x0600
    3dc0:	06 40       	.word 0x0640
    3dc2:	06 80       	.word 0x0680
    3dc4:	06 c0       	.word 0x06c0
    3dc6:	07 00       	.word 0x0700
    3dc8:	07 40       	.word 0x0740
    3dca:	07 80       	.word 0x0780
    3dcc:	07 c0       	.word 0x07c0
    3dce:	08 00       	.word 0x0800
    3dd0:	08 40       	.word 0x0840
    3dd2:	08 80       	.word 0x0880
    3dd4:	08 c0       	.word 0x08c0
    3dd6:	09 00       	.word 0x0900
    3dd8:	09 40       	.word 0x0940
    3dda:	09 80       	.word 0x0980
    3ddc:	09 c0       	.word 0x09c0
    3dde:	0a 00       	.word 0x0a00
    3de0:	0a 40       	.word 0x0a40
    3de2:	0a 80       	.word 0x0a80
    3de4:	0a c0       	.word 0x0ac0
    3de6:	0b 00       	.word 0x0b00
    3de8:	0b 40       	.word 0x0b40
    3dea:	0b 80       	.word 0x0b80
    3dec:	0b c0       	.word 0x0bc0
    3dee:	0c 00       	.word 0x0c00
    3df0:	0c 80       	.word 0x0c80
    3df2:	0d 00       	.word 0x0d00
    3df4:	0d 80       	.word 0x0d80
    3df6:	0e 00       	.word 0x0e00
    3df8:	0e 80       	.word 0x0e80
    3dfa:	0f 00       	.word 0x0f00
    3dfc:	0f 80       	.word 0x0f80
    3dfe:	10 00       	mov.l	r0,@(0,r0)
    3e00:	10 80       	mov.l	r8,@(0,r0)
    3e02:	11 00       	mov.l	r0,@(0,r1)
    3e04:	11 80       	mov.l	r8,@(0,r1)
    3e06:	12 00       	mov.l	r0,@(0,r2)
    3e08:	12 80       	mov.l	r8,@(0,r2)
    3e0a:	13 00       	mov.l	r0,@(0,r3)
    3e0c:	13 80       	mov.l	r8,@(0,r3)
    3e0e:	14 00       	mov.l	r0,@(0,r4)
    3e10:	15 00       	mov.l	r0,@(0,r5)
    3e12:	16 00       	mov.l	r0,@(0,r6)
    3e14:	17 00       	mov.l	r0,@(0,r7)
    3e16:	18 00       	mov.l	r0,@(0,r8)
    3e18:	19 00       	mov.l	r0,@(0,r9)
    3e1a:	1a 00       	mov.l	r0,@(0,r10)
    3e1c:	1b 00       	mov.l	r0,@(0,r11)
    3e1e:	1c 00       	mov.l	r0,@(0,r12)
    3e20:	1d 00       	mov.l	r0,@(0,r13)
    3e22:	1e 00       	mov.l	r0,@(0,r14)
    3e24:	1f 00       	mov.l	r0,@(0,r15)
    3e26:	20 00       	mov.b	r0,@r0
    3e28:	21 00       	mov.b	r0,@r1
    3e2a:	22 00       	mov.b	r0,@r2
    3e2c:	23 00       	mov.b	r0,@r3
    3e2e:	24 00       	mov.b	r0,@r4
    3e30:	25 00       	mov.b	r0,@r5
    3e32:	26 00       	mov.b	r0,@r6
    3e34:	27 00       	mov.b	r0,@r7
    3e36:	28 00       	mov.b	r0,@r8
    3e38:	29 00       	mov.b	r0,@r9
    3e3a:	2a 00       	mov.b	r0,@r10
    3e3c:	2b 00       	mov.b	r0,@r11
    3e3e:	2c 00       	mov.b	r0,@r12
    3e40:	2d 00       	mov.b	r0,@r13
    3e42:	2e 00       	mov.b	r0,@r14
    3e44:	2f 00       	mov.b	r0,@r15
    3e46:	30 00       	cmp/eq	r0,r0
    3e48:	31 00       	cmp/eq	r0,r1
    3e4a:	32 00       	cmp/eq	r0,r2
    3e4c:	33 00       	cmp/eq	r0,r3
    3e4e:	34 00       	cmp/eq	r0,r4
    3e50:	36 00       	cmp/eq	r0,r6
    3e52:	38 00       	cmp/eq	r0,r8
    3e54:	3a 00       	cmp/eq	r0,r10
    3e56:	3c 00       	cmp/eq	r0,r12
    3e58:	3e 00       	cmp/eq	r0,r14
    3e5a:	40 00       	shll	r0
    3e5c:	42 00       	shll	r2
    3e5e:	44 00       	shll	r4
    3e60:	48 00       	shll	r8
    3e62:	4c 00       	shll	r12
    3e64:	50 00       	mov.l	@(0,r0),r0
    3e66:	54 00       	mov.l	@(0,r0),r4
    3e68:	58 00       	mov.l	@(0,r0),r8
    3e6a:	5c 00       	mov.l	@(0,r0),r12
    3e6c:	5f ff       	mov.l	@(60,r15),r15
	...
    3e7a:	00 01       	.word 0x0001
    3e7c:	01 01       	.word 0x0101
    3e7e:	02 02       	stc	sr,r2
    3e80:	03 03       	bsrf	r3
    3e82:	04 05       	mov.w	r0,@(r0,r4)
    3e84:	06 07       	mul.l	r0,r6
    3e86:	08 09       	.word 0x0809
    3e88:	0a 0b       	.word 0x0a0b
    3e8a:	0d 0e       	mov.l	@(r0,r0),r13
    3e8c:	10 11       	mov.l	r1,@(4,r0)
    3e8e:	13 15       	mov.l	r1,@(20,r3)
    3e90:	17 19       	mov.l	r1,@(36,r7)
    3e92:	1b 1d       	mov.l	r1,@(52,r11)
    3e94:	20 22       	mov.l	r2,@r0
    3e96:	25 27       	div0s	r2,r5
    3e98:	2a 2d       	xtrct	r2,r10
    3e9a:	30 33       	cmp/ge	r3,r0
    3e9c:	36 39       	.word 0x3639
    3e9e:	3c 3f       	addv	r3,r12
    3ea0:	43 46       	.word 0x4346
    3ea2:	4a 4d       	shld	r4,r10
    3ea4:	51 55       	mov.l	@(20,r5),r1
    3ea6:	58 5c       	mov.l	@(48,r5),r8
    3ea8:	60 64       	mov.b	@r6+,r0
    3eaa:	68 6c       	extu.b	r6,r8
    3eac:	70 74       	add	#116,r0
    3eae:	78 7c       	add	#124,r8
    3eb0:	80 83       	mov.b	r0,@(3,r8)
    3eb2:	87 8b       	.word 0x878b
    3eb4:	8f 93       	bf.s	3dde <_sddrv_129i+0x3dde>
    3eb6:	97 9b       	mov.w	3ff0 <_sddrv_129i+0x3ff0>,r7	! 32da
    3eb8:	9f a3       	mov.w	4002 <_sddrv_129i+0x4002>,r15	! 4
    3eba:	a7 aa       	bra	4e12 <_sddrv_129i+0x4e12>
    3ebc:	ae b2       	bra	3c24 <_sddrv_129i+0x3c24>
    3ebe:	b5 b9       	bsr	4a34 <_sddrv_129i+0x4a34>
    3ec0:	bc c0       	bsr	3844 <_sddrv_129i+0x3844>
    3ec2:	c3 c6       	trapa	#-58
    3ec4:	c9 cc       	and	#-52,r0
    3ec6:	cf d2       	or.b	#-46,@(r0,gbr)
    3ec8:	d5 d8       	mov.l	422c <_sddrv_129i+0x422c>,r5	! 6000fcf4
    3eca:	da dd       	mov.l	4240 <_sddrv_129i+0x4240>,r10	! 4a426a00
    3ecc:	df e2       	mov.l	4258 <_sddrv_129i+0x4258>,r15	! 2870000
    3ece:	e4 e6       	mov	#-26,r4
    3ed0:	e8 ea       	mov	#-22,r8
    3ed2:	ec ee       	mov	#-18,r12
    3ed4:	ef f1       	mov	#-15,r15
    3ed6:	f2 f4       	fcmp/eq	fr15,fr2
    3ed8:	f5 f6       	fmov	@(r0,r15),fr5
    3eda:	f7 f8       	fmov	@r15,fr7
    3edc:	f9 fa       	fmov	fr15,@r9
    3ede:	fb fc       	fmov	fr15,fr11
    3ee0:	fc fd       	fsca	fpul,dr12
    3ee2:	fd fe       	fmac	fr0,fr15,fr13
    3ee4:	fe fe       	fmac	fr0,fr15,fr14
    3ee6:	ff ff       	.word 0xffff
    3ee8:	ff ff       	.word 0xffff
    3eea:	ff ff       	.word 0xffff
    3eec:	ff ff       	.word 0xffff
    3eee:	ff ff       	.word 0xffff
    3ef0:	45 f9       	.word 0x45f9
    3ef2:	00 00       	.word 0x0000
    3ef4:	3f 4c       	add	r4,r15
    3ef6:	60 00       	mov.b	@r0,r0
    3ef8:	00 34       	mov.b	r3,@(r0,r0)
    3efa:	45 f9       	.word 0x45f9
    3efc:	00 00       	.word 0x0000
    3efe:	3f 74       	div1	r7,r15
    3f00:	60 00       	mov.b	@r0,r0
    3f02:	00 2a       	sts	pr,r0
    3f04:	45 f9       	.word 0x45f9
    3f06:	00 00       	.word 0x0000
    3f08:	3f 60       	cmp/eq	r6,r15
    3f0a:	60 00       	mov.b	@r0,r0
    3f0c:	00 20       	.word 0x0020
    3f0e:	45 f9       	.word 0x45f9
    3f10:	00 00       	.word 0x0000
    3f12:	3f 88       	sub	r8,r15
    3f14:	60 00       	mov.b	@r0,r0
    3f16:	00 16       	mov.l	r1,@(r0,r0)
    3f18:	45 f9       	.word 0x45f9
    3f1a:	00 00       	.word 0x0000
    3f1c:	3f 9c       	add	r9,r15
    3f1e:	60 00       	mov.b	@r0,r0
    3f20:	00 0c       	mov.b	@(r0,r0),r0
    3f22:	80 40       	mov.b	r0,@(0,r4)
    3f24:	4e 75       	.word 0x4e75
    3f26:	00 3c       	mov.b	@(r0,r3),r0
    3f28:	00 01       	.word 0x0001
    3f2a:	4e 75       	.word 0x4e75
    3f2c:	61 00       	mov.b	@r0,r1
    3f2e:	0a 3c       	mov.b	@(r0,r3),r10
    3f30:	02 40       	.word 0x0240
    3f32:	00 07       	mul.l	r0,r0
    3f34:	3e 3c       	add	r3,r14
    3f36:	00 60       	.word 0x0060
    3f38:	ce c0       	xor.b	#-64,@(r0,gbr)
    3f3a:	dd c7       	mov.l	4258 <_sddrv_129i+0x4258>,r13	! 2870000
    3f3c:	42 87       	ldc.l	@r2+,r0_bank
    3f3e:	1e 2e       	mov.l	r2,@(56,r14)
    3f40:	00 02       	stc	sr,r0
    3f42:	02 07       	mul.l	r0,r2
    3f44:	00 07       	mul.l	r0,r0
    3f46:	e5 0f       	mov	#15,r5
    3f48:	d5 c7       	mov.l	4268 <_sddrv_129i+0x4268>,r5	! 10002e2e
    3f4a:	4e d2       	.word 0x4ed2
    3f4c:	60 00       	mov.b	@r0,r0
    3f4e:	03 78       	.word 0x0378
    3f50:	60 00       	mov.b	@r0,r0
    3f52:	03 5a       	sts	fpul,r3
    3f54:	60 00       	mov.b	@r0,r0
    3f56:	03 56       	mov.l	r5,@(r0,r3)
    3f58:	60 00       	mov.b	@r0,r0
    3f5a:	03 52       	stc	r5_bank,r3
    3f5c:	60 00       	mov.b	@r0,r0
    3f5e:	03 4e       	mov.l	@(r0,r4),r3
    3f60:	60 00       	mov.b	@r0,r0
    3f62:	ff c0       	fadd	fr12,fr15
    3f64:	60 00       	mov.b	@r0,r0
    3f66:	04 de       	mov.l	@(r0,r13),r4
    3f68:	60 00       	mov.b	@r0,r0
    3f6a:	04 e2       	stc	r6_bank,r4
    3f6c:	60 00       	mov.b	@r0,r0
    3f6e:	ff b4       	fcmp/eq	fr11,fr15
    3f70:	60 00       	mov.b	@r0,r0
    3f72:	ff b0       	fadd	fr11,fr15
    3f74:	60 00       	mov.b	@r0,r0
    3f76:	ff ac       	fmov	fr10,fr15
    3f78:	60 00       	mov.b	@r0,r0
    3f7a:	04 f2       	stc	r7_bank,r4
    3f7c:	60 00       	mov.b	@r0,r0
    3f7e:	04 ee       	mov.l	@(r0,r14),r4
    3f80:	60 00       	mov.b	@r0,r0
    3f82:	04 ea       	.word 0x04ea
    3f84:	60 00       	mov.b	@r0,r0
    3f86:	04 e6       	mov.l	r14,@(r0,r4)
    3f88:	60 00       	mov.b	@r0,r0
    3f8a:	ff 98       	fmov	@r9,fr15
    3f8c:	60 00       	mov.b	@r0,r0
    3f8e:	ff 94       	fcmp/eq	fr9,fr15
    3f90:	60 00       	mov.b	@r0,r0
    3f92:	ff 90       	fadd	fr9,fr15
    3f94:	60 00       	mov.b	@r0,r0
    3f96:	04 f6       	mov.l	r15,@(r0,r4)
    3f98:	60 00       	mov.b	@r0,r0
    3f9a:	04 fa       	stc	dbr,r4
    3f9c:	60 00       	mov.b	@r0,r0
    3f9e:	05 0e       	mov.l	@(r0,r0),r5
    3fa0:	60 00       	mov.b	@r0,r0
    3fa2:	05 14       	mov.b	r1,@(r0,r5)
    3fa4:	60 00       	mov.b	@r0,r0
    3fa6:	05 1a       	sts	macl,r5
    3fa8:	60 00       	mov.b	@r0,r0
    3faa:	05 20       	.word 0x0520
    3fac:	60 00       	mov.b	@r0,r0
    3fae:	05 26       	mov.l	r2,@(r0,r5)
    3fb0:	20 78       	tst	r7,r0
    3fb2:	04 12       	stc	gbr,r4
    3fb4:	14 28       	mov.l	r2,@(32,r4)
    3fb6:	00 04       	mov.b	r0,@(r0,r0)
    3fb8:	02 02       	stc	sr,r2
    3fba:	00 30       	.word 0x0030
    3fbc:	67 00       	mov.b	@r0,r7
    3fbe:	ff 64       	fcmp/eq	fr6,fr15
    3fc0:	22 7c       	cmp/str	r7,r2
    3fc2:	00 10       	.word 0x0010
    3fc4:	07 00       	.word 0x0700
    3fc6:	45 f9       	.word 0x45f9
    3fc8:	00 00       	.word 0x0000
    3fca:	40 7a       	.word 0x407a
    3fcc:	76 07       	add	#7,r6
    3fce:	08 02       	stc	sr,r8
    3fd0:	00 04       	mov.b	r0,@(r0,r0)
    3fd2:	67 04       	mov.b	@r0+,r7
    3fd4:	16 3c       	mov.l	r3,@(48,r6)
    3fd6:	00 03       	bsrf	r0
    3fd8:	c0 83       	mov.b	r0,@(131,gbr)
    3fda:	e7 88       	mov	#-120,r7
    3fdc:	02 81       	.word 0x0281
    3fde:	00 00       	.word 0x0000
    3fe0:	00 1f       	mac.l	@r1+,@r0+
    3fe2:	e7 89       	mov	#-119,r7
    3fe4:	42 87       	ldc.l	@r2+,r0_bank
    3fe6:	1e 28       	mov.l	r2,@(32,r14)
    3fe8:	00 05       	mov.w	r0,@(r0,r0)
    3fea:	d3 c7       	mov.l	4308 <_sddrv_129i+0x4308>,r3	! 22780404
    3fec:	d3 c0       	mov.l	42f0 <_sddrv_129i+0x42f0>,r3	! 46700
    3fee:	d5 c1       	mov.l	42f4 <_sddrv_129i+0x42f4>,r5	! 81d7c
    3ff0:	32 da       	subc	r13,r2
    3ff2:	32 da       	subc	r13,r2
    3ff4:	32 da       	subc	r13,r2
    3ff6:	32 da       	subc	r13,r2
    3ff8:	60 00       	mov.b	@r0,r0
    3ffa:	ff 28       	fmov	@r2,fr15
    3ffc:	20 78       	tst	r7,r0
    3ffe:	04 12       	stc	gbr,r4
    4000:	18 28       	mov.l	r2,@(32,r8)
    4002:	00 04       	mov.b	r0,@(r0,r0)
    4004:	02 04       	mov.b	r0,@(r0,r2)
    4006:	00 c0       	.word 0x00c0
    4008:	67 00       	mov.b	@r0,r7
    400a:	ff 18       	fmov	@r1,fr15
    400c:	d1 fc       	mov.l	4400 <_sddrv_129i+0x4400>,r1	! 2160010
    400e:	00 00       	.word 0x0000
    4010:	00 08       	clrt	
    4012:	08 04       	mov.b	r0,@(r0,r8)
    4014:	00 06       	mov.l	r0,@(r0,r0)
    4016:	67 0a       	negc	r0,r7
    4018:	02 80       	.word 0x0280
    401a:	00 00       	.word 0x0000
    401c:	00 01       	.word 0x0001
    401e:	e9 88       	mov	#-120,r9
    4020:	d1 c0       	mov.l	4324 <_sddrv_129i+0x4324>,r1	! c400018
    4022:	10 c1       	mov.l	r12,@(4,r0)
    4024:	10 c2       	mov.l	r12,@(8,r0)
    4026:	10 c3       	mov.l	r12,@(12,r0)
    4028:	10 fc       	mov.l	r15,@(48,r0)
    402a:	00 80       	.word 0x0080
    402c:	10 fc       	mov.l	r15,@(48,r0)
    402e:	00 7f       	mac.l	@r7+,@r0+
    4030:	10 fc       	mov.l	r15,@(48,r0)
    4032:	00 7f       	mac.l	@r7+,@r0+
    4034:	10 bc       	mov.l	r11,@(48,r0)
    4036:	00 7f       	mac.l	@r7+,@r0+
    4038:	61 00       	mov.b	@r0,r1
    403a:	0f e2       	stc	r6_bank,r15
    403c:	60 00       	mov.b	@r0,r0
    403e:	fe e4       	fcmp/eq	fr14,fr14
    4040:	20 78       	tst	r7,r0
    4042:	04 12       	stc	gbr,r4
    4044:	12 28       	mov.l	r2,@(32,r2)
    4046:	00 04       	mov.b	r0,@(r0,r0)
    4048:	02 01       	.word 0x0201
    404a:	00 c0       	.word 0x00c0
    404c:	67 00       	mov.b	@r0,r7
    404e:	fe d4       	fcmp/eq	fr13,fr14
    4050:	d1 fc       	mov.l	4444 <_sddrv_129i+0x4444>,r1	! 1d7c0003
    4052:	00 00       	.word 0x0000
    4054:	00 08       	clrt	
    4056:	08 01       	.word 0x0801
    4058:	00 06       	mov.l	r0,@(r0,r0)
    405a:	67 0c       	extu.b	r0,r7
    405c:	02 80       	.word 0x0280
    405e:	00 00       	.word 0x0000
    4060:	00 01       	.word 0x0001
    4062:	e9 88       	mov	#-120,r9
    4064:	50 80       	mov.l	@(0,r8),r0
    4066:	d1 c0       	mov.l	4368 <_sddrv_129i+0x4368>,r1	! 650000be
    4068:	10 18       	mov.l	r1,@(32,r0)
    406a:	12 18       	mov.l	r1,@(32,r2)
    406c:	14 10       	mov.l	r1,@(0,r4)
    406e:	60 00       	mov.b	@r0,r0
    4070:	fe b2       	fmul	fr11,fr14
    4072:	61 00       	mov.b	@r0,r1
    4074:	0f 04       	mov.b	r0,@(r0,r15)
    4076:	60 00       	mov.b	@r0,r0
    4078:	fe aa       	fmov	fr10,@r14
    407a:	00 00       	.word 0x0000
    407c:	7f f8       	add	#-8,r15
    407e:	00 00       	.word 0x0000
    4080:	7f f8       	add	#-8,r15
    4082:	00 00       	.word 0x0000
    4084:	7f f8       	add	#-8,r15
    4086:	00 00       	.word 0x0000
    4088:	72 f0       	add	#-16,r2
    408a:	00 00       	.word 0x0000
    408c:	7f f8       	add	#-8,r15
    408e:	00 00       	.word 0x0000
    4090:	5f 90       	mov.l	@(0,r9),r15
    4092:	00 00       	.word 0x0000
    4094:	7f f8       	add	#-8,r15
    4096:	00 00       	.word 0x0000
    4098:	4f c8       	.word 0x4fc8
    409a:	00 00       	.word 0x0000
    409c:	7f f8       	add	#-8,r15
    409e:	00 00       	.word 0x0000
    40a0:	3b 80       	cmp/eq	r8,r11
    40a2:	00 00       	.word 0x0000
    40a4:	7f f8       	add	#-8,r15
    40a6:	00 00       	.word 0x0000
    40a8:	21 70       	mov.b	r7,@r1
    40aa:	00 00       	.word 0x0000
    40ac:	7f f8       	add	#-8,r15
    40ae:	00 00       	.word 0x0000
    40b0:	12 20       	mov.l	r2,@(0,r2)
    40b2:	00 00       	.word 0x0000
    40b4:	7f f8       	add	#-8,r15
    40b6:	0c c8       	.word 0x0cc8
    40b8:	03 f8       	.word 0x03f8
    40ba:	00 00       	.word 0x0000
    40bc:	79 98       	add	#-104,r9
    40be:	19 98       	mov.l	r9,@(32,r9)
    40c0:	01 60       	.word 0x0160
    40c2:	00 00       	.word 0x0000
    40c4:	79 98       	add	#-104,r9
    40c6:	19 98       	mov.l	r9,@(32,r9)
    40c8:	00 a8       	.word 0x00a8
    40ca:	00 00       	.word 0x0000
    40cc:	73 30       	add	#48,r3
    40ce:	33 30       	cmp/eq	r3,r3
    40d0:	00 50       	.word 0x0050
    40d2:	00 00       	.word 0x0000
    40d4:	73 30       	add	#48,r3
    40d6:	40 00       	shll	r0
    40d8:	00 28       	clrmac	
    40da:	00 00       	.word 0x0000
    40dc:	6c c8       	swap.b	r12,r12
    40de:	46 60       	.word 0x4660
    40e0:	00 10       	.word 0x0010
    40e2:	00 00       	.word 0x0000
    40e4:	6c c8       	swap.b	r12,r12
    40e6:	4c c8       	.word 0x4cc8
    40e8:	00 08       	clrt	
    40ea:	00 00       	.word 0x0000
    40ec:	66 60       	mov.b	@r6,r6
    40ee:	53 30       	mov.l	@(0,r3),r3
    40f0:	00 00       	.word 0x0000
    40f2:	00 00       	.word 0x0000
    40f4:	59 98       	mov.l	@(32,r9),r9
    40f6:	59 98       	mov.l	@(32,r9),r9
    40f8:	00 00       	.word 0x0000
    40fa:	00 00       	.word 0x0000
    40fc:	53 30       	mov.l	@(0,r3),r3
    40fe:	66 60       	mov.b	@r6,r6
    4100:	00 00       	.word 0x0000
    4102:	00 08       	clrt	
    4104:	4c c8       	.word 0x4cc8
    4106:	6c c8       	swap.b	r12,r12
    4108:	00 00       	.word 0x0000
    410a:	00 10       	.word 0x0010
    410c:	46 60       	.word 0x4660
    410e:	6c c8       	swap.b	r12,r12
    4110:	00 00       	.word 0x0000
    4112:	00 28       	clrmac	
    4114:	40 00       	shll	r0
    4116:	73 30       	add	#48,r3
    4118:	00 00       	.word 0x0000
    411a:	00 58       	sets	
    411c:	33 30       	cmp/eq	r3,r3
    411e:	73 30       	add	#48,r3
    4120:	00 00       	.word 0x0000
    4122:	00 b0       	.word 0x00b0
    4124:	26 60       	mov.b	r6,@r6
    4126:	79 98       	add	#-104,r9
    4128:	00 00       	.word 0x0000
    412a:	01 60       	.word 0x0160
    412c:	19 98       	mov.l	r9,@(32,r9)
    412e:	79 98       	add	#-104,r9
    4130:	00 00       	.word 0x0000
    4132:	03 f8       	.word 0x03f8
    4134:	0c c8       	.word 0x0cc8
    4136:	7f f8       	add	#-8,r15
    4138:	00 00       	.word 0x0000
    413a:	12 88       	mov.l	r8,@(32,r2)
    413c:	00 00       	.word 0x0000
    413e:	7f f8       	add	#-8,r15
    4140:	00 00       	.word 0x0000
    4142:	23 d8       	tst	r13,r3
    4144:	00 00       	.word 0x0000
    4146:	7f f8       	add	#-8,r15
    4148:	00 00       	.word 0x0000
    414a:	3b 80       	cmp/eq	r8,r11
    414c:	00 00       	.word 0x0000
    414e:	7f f8       	add	#-8,r15
    4150:	00 00       	.word 0x0000
    4152:	4f c8       	.word 0x4fc8
    4154:	00 00       	.word 0x0000
    4156:	7f f8       	add	#-8,r15
    4158:	00 00       	.word 0x0000
    415a:	5f 90       	mov.l	@(0,r9),r15
    415c:	00 00       	.word 0x0000
    415e:	7f f8       	add	#-8,r15
    4160:	00 00       	.word 0x0000
    4162:	6f 30       	mov.b	@r3,r15
    4164:	00 00       	.word 0x0000
    4166:	7f f8       	add	#-8,r15
    4168:	00 00       	.word 0x0000
    416a:	7f f8       	add	#-8,r15
    416c:	00 00       	.word 0x0000
    416e:	7f f8       	add	#-8,r15
    4170:	00 00       	.word 0x0000
    4172:	61 00       	mov.b	@r0,r1
    4174:	07 f6       	mov.l	r15,@(r0,r7)
    4176:	08 2c       	mov.b	@(r0,r2),r8
    4178:	00 07       	mul.l	r0,r0
    417a:	00 01       	.word 0x0001
    417c:	66 00       	mov.b	@r0,r6
    417e:	00 92       	stc	r1_bank,r0
    4180:	08 ec       	mov.b	@(r0,r14),r8
    4182:	00 07       	mul.l	r0,r0
    4184:	00 01       	.word 0x0001
    4186:	48 e7       	ldc.l	@r8+,r6_bank
    4188:	ff ff       	.word 0xffff
    418a:	20 78       	tst	r7,r0
    418c:	04 12       	stc	gbr,r4
    418e:	18 28       	mov.l	r2,@(32,r8)
    4190:	00 04       	mov.b	r0,@(r0,r0)
    4192:	02 04       	mov.b	r0,@(r0,r2)
    4194:	00 c0       	.word 0x00c0
    4196:	67 00       	mov.b	@r0,r7
    4198:	00 06       	mov.l	r0,@(r0,r0)
    419a:	61 00       	mov.b	@r0,r1
    419c:	0e 80       	.word 0x0e80
    419e:	4c df       	mac.w	@r13+,@r12+
    41a0:	ff ff       	.word 0xffff
    41a2:	61 00       	mov.b	@r0,r1
    41a4:	06 e4       	mov.b	r14,@(r0,r6)
    41a6:	61 00       	mov.b	@r0,r1
    41a8:	07 50       	.word 0x0750
    41aa:	3e 3c       	add	r3,r14
    41ac:	00 1f       	mac.l	@r1+,@r0+
    41ae:	61 00       	mov.b	@r0,r1
    41b0:	06 6a       	sts	fpscr,r6
    41b2:	db fc       	mov.l	45a4 <_sddrv_129i+0x45a4>,r11	! 226700
    41b4:	00 00       	.word 0x0000
    41b6:	00 0c       	mov.b	@(r0,r0),r0
    41b8:	51 cf       	mov.l	@(60,r12),r1
    41ba:	ff f4       	fcmp/eq	fr15,fr15
    41bc:	61 00       	mov.b	@r0,r1
    41be:	07 ac       	mov.b	@(r0,r10),r7
    41c0:	61 00       	mov.b	@r0,r1
    41c2:	04 10       	.word 0x0410
    41c4:	dd fc       	mov.l	45b8 <_sddrv_129i+0x45b8>,r13	! 1d410022
    41c6:	00 00       	.word 0x0000
    41c8:	00 60       	.word 0x0060
    41ca:	61 00       	mov.b	@r0,r1
    41cc:	04 06       	mov.l	r0,@(r0,r4)
    41ce:	dd fc       	mov.l	45c0 <_sddrv_129i+0x45c0>,r13	! 236100
    41d0:	00 00       	.word 0x0000
    41d2:	00 60       	.word 0x0060
    41d4:	61 00       	mov.b	@r0,r1
    41d6:	03 fc       	mov.b	@(r0,r15),r3
    41d8:	dd fc       	mov.l	45cc <_sddrv_129i+0x45cc>,r13	! 46000
    41da:	00 00       	.word 0x0000
    41dc:	00 60       	.word 0x0060
    41de:	61 00       	mov.b	@r0,r1
    41e0:	03 f2       	stc	r7_bank,r3
    41e2:	dd fc       	mov.l	45d4 <_sddrv_129i+0x45d4>,r13	! 76700
    41e4:	00 00       	.word 0x0000
    41e6:	00 60       	.word 0x0060
    41e8:	61 00       	mov.b	@r0,r1
    41ea:	03 e8       	.word 0x03e8
    41ec:	dd fc       	mov.l	45e0 <_sddrv_129i+0x45e0>,r13	! 21c202e
    41ee:	00 00       	.word 0x0000
    41f0:	00 60       	.word 0x0060
    41f2:	61 00       	mov.b	@r0,r1
    41f4:	03 de       	mov.l	@(r0,r13),r3
    41f6:	dd fc       	mov.l	45e8 <_sddrv_129i+0x45e8>,r13	! 1c6400
    41f8:	00 00       	.word 0x0000
    41fa:	00 60       	.word 0x0060
    41fc:	61 00       	mov.b	@r0,r1
    41fe:	03 d4       	mov.b	r13,@(r0,r3)
    4200:	dd fc       	mov.l	45f4 <_sddrv_129i+0x45f4>,r13	! 148e7
    4202:	00 00       	.word 0x0000
    4204:	00 60       	.word 0x0060
    4206:	61 00       	mov.b	@r0,r1
    4208:	03 ca       	.word 0x03ca
    420a:	08 ac       	mov.b	@(r0,r10),r8
    420c:	00 07       	mul.l	r0,r0
    420e:	00 01       	.word 0x0001
    4210:	60 00       	mov.b	@r0,r0
    4212:	fd 10       	fadd	fr1,fr13
    4214:	61 00       	mov.b	@r0,r1
    4216:	07 54       	mov.b	r5,@(r0,r7)
    4218:	08 ec       	mov.b	@(r0,r14),r8
    421a:	00 07       	mul.l	r0,r0
    421c:	00 02       	stc	sr,r0
    421e:	60 00       	mov.b	@r0,r0
    4220:	fd 02       	fmul	fr0,fr13
    4222:	61 00       	mov.b	@r0,r1
    4224:	07 46       	mov.l	r4,@(r0,r7)
    4226:	08 ac       	mov.b	@(r0,r10),r8
    4228:	00 07       	mul.l	r0,r0
    422a:	00 02       	stc	sr,r0
    422c:	60 00       	mov.b	@r0,r0
    422e:	fc f4       	fcmp/eq	fr15,fr12
    4230:	61 00       	mov.b	@r0,r1
    4232:	07 38       	.word 0x0738
    4234:	02 40       	.word 0x0240
    4236:	00 07       	mul.l	r0,r0
    4238:	3e 3c       	add	r3,r14
    423a:	00 60       	.word 0x0060
    423c:	ce c0       	xor.b	#-64,@(r0,gbr)
    423e:	dd c7       	mov.l	455c <_sddrv_129i+0x455c>,r13	! 102e0022
    4240:	4a 42       	.word 0x4a42
    4242:	6a 00       	mov.b	@r0,r10
    4244:	00 22       	stc	vbr,r0
    4246:	44 42       	.word 0x4442
    4248:	06 42       	stc	spc,r6
    424a:	10 00       	mov.l	r0,@(0,r0)
    424c:	2e 2e       	mulu.w	r2,r14
    424e:	00 30       	.word 0x0030
    4250:	3c 3c       	add	r3,r12
    4252:	10 00       	mov.l	r0,@(0,r0)
    4254:	ce c6       	xor.b	#-58,@(r0,gbr)
    4256:	8e c2       	.word 0x8ec2
    4258:	02 87       	mul.l	r8,r2
    425a:	00 00       	.word 0x0000
    425c:	ff ff       	.word 0xffff
    425e:	2d 47       	div0s	r4,r13
    4260:	00 14       	mov.b	r1,@(r0,r0)
    4262:	60 00       	mov.b	@r0,r0
    4264:	00 14       	mov.b	r1,@(r0,r0)
    4266:	06 42       	stc	spc,r6
    4268:	10 00       	mov.l	r0,@(0,r0)
    426a:	2e 2e       	mulu.w	r2,r14
    426c:	00 30       	.word 0x0030
    426e:	ce c2       	xor.b	#-62,@(r0,gbr)
    4270:	e0 8f       	mov	#-113,r0
    4272:	e8 8f       	mov	#-113,r8
    4274:	2d 47       	div0s	r4,r13
    4276:	00 14       	mov.b	r1,@(r0,r0)
    4278:	60 00       	mov.b	@r0,r0
    427a:	fc a8       	fmov	@r10,fr12
    427c:	61 00       	mov.b	@r0,r1
    427e:	06 ec       	mov.b	@(r0,r14),r6
    4280:	3c 3c       	add	r3,r12
    4282:	00 07       	mul.l	r0,r0
    4284:	1c bc       	mov.l	r11,@(48,r12)
    4286:	00 00       	.word 0x0000
    4288:	1e 3c       	mov.l	r3,@(48,r14)
    428a:	00 01       	.word 0x0001
    428c:	61 00       	mov.b	@r0,r1
    428e:	06 f8       	.word 0x06f8
    4290:	1d 7c       	mov.l	r7,@(48,r13)
    4292:	00 00       	.word 0x0000
    4294:	00 02       	stc	sr,r0
    4296:	1d 7c       	mov.l	r7,@(48,r13)
    4298:	00 00       	.word 0x0000
    429a:	00 03       	bsrf	r0
    429c:	61 00       	mov.b	@r0,r1
    429e:	07 82       	stc	r0_bank,r7
    42a0:	dd fc       	mov.l	4694 <_sddrv_129i+0x4694>,r13	! 50d56e
    42a2:	00 00       	.word 0x0000
    42a4:	00 60       	.word 0x0060
    42a6:	51 ce       	mov.l	@(56,r12),r1
    42a8:	ff dc       	fmov	fr13,fr15
    42aa:	4e 75       	.word 0x4e75
    42ac:	48 e7       	ldc.l	@r8+,r6_bank
    42ae:	e0 80       	mov	#-128,r0
    42b0:	1c bc       	mov.l	r11,@(48,r12)
    42b2:	00 00       	.word 0x0000
    42b4:	1e 3c       	mov.l	r3,@(48,r14)
    42b6:	00 01       	.word 0x0001
    42b8:	61 00       	mov.b	@r0,r1
    42ba:	06 cc       	mov.b	@(r0,r12),r6
    42bc:	1d 7c       	mov.l	r7,@(48,r13)
    42be:	00 00       	.word 0x0000
    42c0:	00 20       	.word 0x0020
    42c2:	4c df       	mac.w	@r13+,@r12+
    42c4:	01 07       	mul.l	r0,r1
    42c6:	02 80       	.word 0x0280
    42c8:	00 00       	.word 0x0000
    42ca:	00 07       	mul.l	r0,r0
    42cc:	02 81       	.word 0x0281
    42ce:	00 00       	.word 0x0000
    42d0:	00 1f       	mac.l	@r1+,@r0+
    42d2:	02 82       	stc	r0_bank,r2
    42d4:	00 00       	.word 0x0000
    42d6:	00 01       	.word 0x0001
    42d8:	1d 40       	mov.l	r4,@(0,r13)
    42da:	00 01       	.word 0x0001
    42dc:	1d 41       	mov.l	r4,@(4,r13)
    42de:	00 04       	mov.b	r0,@(r0,r0)
    42e0:	1d 42       	mov.l	r4,@(8,r13)
    42e2:	00 05       	mov.w	r0,@(r0,r0)
    42e4:	2d 48       	tst	r4,r13
    42e6:	00 10       	.word 0x0010
    42e8:	1d 7c       	mov.l	r7,@(48,r13)
    42ea:	00 01       	.word 0x0001
    42ec:	00 02       	stc	sr,r0
    42ee:	08 16       	mov.l	r1,@(r0,r8)
    42f0:	00 04       	mov.b	r0,@(r0,r0)
    42f2:	67 00       	mov.b	@r0,r7
    42f4:	00 08       	clrt	
    42f6:	1d 7c       	mov.l	r7,@(48,r13)
    42f8:	00 02       	stc	sr,r0
    42fa:	00 02       	stc	sr,r0
    42fc:	1d 7c       	mov.l	r7,@(48,r13)
    42fe:	00 00       	.word 0x0000
    4300:	00 03       	bsrf	r0
    4302:	61 00       	mov.b	@r0,r1
    4304:	07 1c       	mov.b	@(r0,r1),r7
    4306:	e3 88       	mov	#-120,r3
    4308:	22 78       	tst	r7,r2
    430a:	04 04       	mov.b	r0,@(r0,r4)
    430c:	d3 c0       	mov.l	4610 <_sddrv_129i+0x4610>,r3	! 67000006
    430e:	45 e9       	.word 0x45e9
    4310:	00 80       	.word 0x0080
    4312:	2d 4a       	xor	r4,r13
    4314:	00 3c       	mov.b	@(r0,r3),r0
    4316:	45 e9       	.word 0x45e9
    4318:	00 b0       	.word 0x00b0
    431a:	2d 4a       	xor	r4,r13
    431c:	00 38       	ldtlb	
    431e:	34 bc       	add	r11,r4
    4320:	00 00       	.word 0x0000
    4322:	30 10       	cmp/eq	r1,r0
    4324:	0c 40       	.word 0x0c40
    4326:	00 18       	sett	
    4328:	65 00       	mov.b	@r0,r5
    432a:	00 e2       	stc	r6_bank,r0
    432c:	0c 40       	.word 0x0c40
    432e:	03 c1       	.word 0x03c1
    4330:	64 00       	mov.b	@r0,r4
    4332:	00 da       	.word 0x00da
    4334:	3d 40       	cmp/eq	r4,r13
    4336:	00 06       	mov.l	r0,@(r0,r0)
    4338:	1d 7c       	mov.l	r7,@(48,r13)
    433a:	00 00       	.word 0x0000
    433c:	00 20       	.word 0x0020
    433e:	70 02       	add	#2,r0
    4340:	42 81       	.word 0x4281
    4342:	12 2e       	mov.l	r2,@(56,r2)
    4344:	00 01       	.word 0x0001
    4346:	20 6e       	mulu.w	r6,r0
    4348:	00 10       	.word 0x0010
    434a:	48 e7       	ldc.l	@r8+,r6_bank
    434c:	00 0e       	mov.l	@(r0,r0),r0
    434e:	61 00       	mov.b	@r0,r1
    4350:	08 34       	mov.b	r3,@(r0,r8)
    4352:	4c df       	mac.w	@r13+,@r12+
    4354:	70 00       	add	#0,r0
    4356:	0c 00       	.word 0x0c00
    4358:	00 00       	.word 0x0000
    435a:	67 00       	mov.b	@r0,r7
    435c:	00 06       	mov.l	r0,@(r0,r0)
    435e:	60 00       	mov.b	@r0,r0
    4360:	00 c0       	.word 0x00c0
    4362:	0c 82       	stc	r0_bank,r12
    4364:	00 03       	bsrf	r0
    4366:	0d 40       	.word 0x0d40
    4368:	65 00       	mov.b	@r0,r5
    436a:	00 be       	mov.l	@(r0,r11),r0
    436c:	0c 82       	stc	r0_bank,r12
    436e:	00 16       	mov.l	r1,@(r0,r0)
    4370:	e3 61       	mov	#97,r3
    4372:	64 00       	mov.b	@r0,r4
    4374:	00 b4       	mov.b	r11,@(r0,r0)
    4376:	2d 41       	mov.w	r4,@r13
    4378:	00 0c       	mov.b	@(r0,r0),r0
    437a:	2d 42       	mov.l	r4,@r13
    437c:	00 08       	clrt	
    437e:	e1 89       	mov	#-119,r1
    4380:	2d 41       	mov.w	r4,@r13
    4382:	00 1c       	mov.b	@(r0,r1),r0
    4384:	30 2e       	addc	r2,r0
    4386:	00 06       	mov.l	r0,@(r0,r0)
    4388:	84 c0       	mov.b	@(0,r12),r0
    438a:	20 3c       	cmp/str	r3,r0
    438c:	00 07       	mul.l	r0,r0
    438e:	d0 00       	mov.l	4390 <_sddrv_129i+0x4390>,r0	! 80c20280
    4390:	80 c2       	mov.b	r0,@(2,r12)
    4392:	02 80       	.word 0x0280
    4394:	00 00       	.word 0x0000
    4396:	ff ff       	.word 0xffff
    4398:	2d 40       	mov.b	r4,@r13
    439a:	00 14       	mov.b	r1,@(r0,r0)
    439c:	2d 40       	mov.b	r4,@r13
    439e:	00 30       	.word 0x0030
    43a0:	70 01       	add	#1,r0
    43a2:	42 81       	.word 0x4281
    43a4:	12 2e       	mov.l	r2,@(56,r2)
    43a6:	00 01       	.word 0x0001
    43a8:	20 6e       	mulu.w	r6,r0
    43aa:	00 10       	.word 0x0010
    43ac:	48 e7       	ldc.l	@r8+,r6_bank
    43ae:	00 0e       	mov.l	@(r0,r0),r0
    43b0:	61 00       	mov.b	@r0,r1
    43b2:	07 d2       	stc	r5_bank,r7
    43b4:	4c df       	mac.w	@r13+,@r12+
    43b6:	70 00       	add	#0,r0
    43b8:	0c 00       	.word 0x0c00
    43ba:	00 00       	.word 0x0000
    43bc:	67 00       	mov.b	@r0,r7
    43be:	00 0e       	mov.l	@(r0,r0),r0
    43c0:	0c 00       	.word 0x0c00
    43c2:	00 01       	.word 0x0001
    43c4:	67 00       	mov.b	@r0,r7
    43c6:	00 50       	.word 0x0050
    43c8:	60 00       	mov.b	@r0,r0
    43ca:	00 56       	mov.l	r5,@(r0,r0)
    43cc:	02 03       	bsrf	r2
    43ce:	00 f0       	.word 0x00f0
    43d0:	1d 43       	mov.l	r4,@(12,r13)
    43d2:	00 2d       	mov.w	@(r0,r2),r0
    43d4:	1d 44       	mov.l	r4,@(16,r13)
    43d6:	00 2f       	mac.l	@r2+,@r0+
    43d8:	48 44       	.word 0x4844
    43da:	1d 44       	mov.l	r4,@(16,r13)
    43dc:	00 2e       	mov.l	@(r0,r2),r0
    43de:	e1 89       	mov	#-119,r1
    43e0:	e1 8a       	mov	#-118,r1
    43e2:	2d 41       	mov.w	r4,@r13
    43e4:	00 18       	sett	
    43e6:	2d 42       	mov.l	r4,@r13
    43e8:	00 28       	clrmac	
    43ea:	e0 48       	mov	#72,r0
    43ec:	36 00       	cmp/eq	r0,r6
    43ee:	02 00       	.word 0x0200
    43f0:	00 0f       	mac.l	@r0+,@r0+
    43f2:	81 2e       	mov.w	r0,@(28,r2)
    43f4:	00 2d       	mov.w	@(r0,r2),r0
    43f6:	e8 4b       	mov	#75,r8
    43f8:	02 03       	bsrf	r2
    43fa:	00 01       	.word 0x0001
    43fc:	1d 43       	mov.l	r4,@(12,r13)
    43fe:	00 2c       	mov.b	@(r0,r2),r0
    4400:	02 16       	mov.l	r1,@(r0,r2)
    4402:	00 10       	.word 0x0010
    4404:	00 16       	mov.l	r1,@(r0,r0)
    4406:	00 80       	.word 0x0080
    4408:	60 00       	mov.b	@r0,r0
    440a:	fb 18       	fmov	@r1,fr11
    440c:	1d 7c       	mov.l	r7,@(48,r13)
    440e:	00 80       	.word 0x0080
    4410:	00 03       	bsrf	r0
    4412:	60 00       	mov.b	@r0,r0
    4414:	00 28       	clrmac	
    4416:	1d 7c       	mov.l	r7,@(48,r13)
    4418:	00 82       	stc	r0_bank,r0
    441a:	00 03       	bsrf	r0
    441c:	60 00       	mov.b	@r0,r0
    441e:	00 1e       	mov.l	@(r0,r1),r0
    4420:	1d 40       	mov.l	r4,@(0,r13)
    4422:	00 03       	bsrf	r0
    4424:	60 00       	mov.b	@r0,r0
    4426:	00 16       	mov.l	r1,@(r0,r0)
    4428:	1d 7c       	mov.l	r7,@(48,r13)
    442a:	00 83       	pref	@r0
    442c:	00 03       	bsrf	r0
    442e:	60 00       	mov.b	@r0,r0
    4430:	00 0c       	mov.b	@(r0,r0),r0
    4432:	1d 7c       	mov.l	r7,@(48,r13)
    4434:	00 84       	mov.b	r8,@(r0,r0)
    4436:	00 03       	bsrf	r0
    4438:	60 00       	mov.b	@r0,r0
    443a:	00 02       	stc	sr,r0
    443c:	61 00       	mov.b	@r0,r1
    443e:	05 e2       	stc	r6_bank,r5
    4440:	60 00       	mov.b	@r0,r0
    4442:	fa e4       	fcmp/eq	fr14,fr10
    4444:	1d 7c       	mov.l	r7,@(48,r13)
    4446:	00 03       	bsrf	r0
    4448:	00 02       	stc	sr,r0
    444a:	60 06       	mov.l	@r0+,r0
    444c:	1d 7c       	mov.l	r7,@(48,r13)
    444e:	00 04       	mov.b	r0,@(r0,r0)
    4450:	00 02       	stc	sr,r0
    4452:	08 d6       	mov.l	r13,@(r0,r8)
    4454:	00 06       	mov.l	r0,@(r0,r0)
    4456:	1e 3c       	mov.l	r3,@(48,r14)
    4458:	00 00       	.word 0x0000
    445a:	61 00       	mov.b	@r0,r1
    445c:	05 2a       	sts	pr,r5
    445e:	1d 7c       	mov.l	r7,@(48,r13)
    4460:	00 00       	.word 0x0000
    4462:	00 03       	bsrf	r0
    4464:	61 00       	mov.b	@r0,r1
    4466:	05 ba       	.word 0x05ba
    4468:	60 00       	mov.b	@r0,r0
    446a:	fa b8       	fmov	@r11,fr10
    446c:	1c bc       	mov.l	r11,@(48,r12)
    446e:	00 00       	.word 0x0000
    4470:	1e 3c       	mov.l	r3,@(48,r14)
    4472:	00 01       	.word 0x0001
    4474:	61 00       	mov.b	@r0,r1
    4476:	05 10       	.word 0x0510
    4478:	1d 7c       	mov.l	r7,@(48,r13)
    447a:	00 00       	.word 0x0000
    447c:	00 02       	stc	sr,r0
    447e:	1d 7c       	mov.l	r7,@(48,r13)
    4480:	00 00       	.word 0x0000
    4482:	00 03       	bsrf	r0
    4484:	61 00       	mov.b	@r0,r1
    4486:	05 9a       	.word 0x059a
    4488:	60 00       	mov.b	@r0,r0
    448a:	fa 98       	fmov	@r9,fr10
    448c:	1d 7c       	mov.l	r7,@(48,r13)
    448e:	00 01       	.word 0x0001
    4490:	00 02       	stc	sr,r0
    4492:	60 06       	mov.l	@r0+,r0
    4494:	1d 7c       	mov.l	r7,@(48,r13)
    4496:	00 02       	stc	sr,r0
    4498:	00 02       	stc	sr,r0
    449a:	08 96       	mov.l	r9,@(r0,r8)
    449c:	00 06       	mov.l	r0,@(r0,r0)
    449e:	1d 7c       	mov.l	r7,@(48,r13)
    44a0:	00 00       	.word 0x0000
    44a2:	00 03       	bsrf	r0
    44a4:	61 00       	mov.b	@r0,r1
    44a6:	05 7a       	.word 0x057a
    44a8:	60 00       	mov.b	@r0,r0
    44aa:	fa 78       	fmov	@r7,fr10
    44ac:	4a 02       	sts.l	mach,@-r10
    44ae:	67 00       	mov.b	@r0,r7
    44b0:	00 2e       	mov.l	@(r0,r2),r0
    44b2:	60 00       	mov.b	@r0,r0
    44b4:	00 b0       	.word 0x00b0
    44b6:	4a 02       	sts.l	mach,@-r10
    44b8:	67 00       	mov.b	@r0,r7
    44ba:	00 24       	mov.b	r2,@(r0,r0)
    44bc:	60 00       	mov.b	@r0,r0
    44be:	00 c8       	.word 0x00c8
    44c0:	4a 02       	sts.l	mach,@-r10
    44c2:	67 00       	mov.b	@r0,r7
    44c4:	00 38       	ldtlb	
    44c6:	60 00       	mov.b	@r0,r0
    44c8:	00 80       	.word 0x0080
    44ca:	4a 02       	sts.l	mach,@-r10
    44cc:	67 00       	mov.b	@r0,r7
    44ce:	00 10       	.word 0x0010
    44d0:	60 00       	mov.b	@r0,r0
    44d2:	00 72       	stc	r7_bank,r0
    44d4:	4a 02       	sts.l	mach,@-r10
    44d6:	67 00       	mov.b	@r0,r7
    44d8:	00 3e       	mov.l	@(r0,r3),r0
    44da:	60 00       	mov.b	@r0,r0
    44dc:	00 68       	.word 0x0068
    44de:	02 01       	.word 0x0201
    44e0:	00 7f       	mac.l	@r7+,@r0+
    44e2:	1e 3c       	mov.l	r3,@(48,r14)
    44e4:	00 7f       	mac.l	@r7+,@r0+
    44e6:	9e 01       	mov.w	44ec <_sddrv_129i+0x44ec>,r14	! 4
    44e8:	12 07       	mov.l	r0,@(28,r2)
    44ea:	08 96       	mov.l	r9,@(r0,r8)
    44ec:	00 04       	mov.b	r0,@(r0,r0)
    44ee:	1d 41       	mov.l	r4,@(4,r13)
    44f0:	00 22       	stc	vbr,r0
    44f2:	1d 7c       	mov.l	r7,@(48,r13)
    44f4:	00 00       	.word 0x0000
    44f6:	00 23       	braf	r0
    44f8:	60 00       	mov.b	@r0,r0
    44fa:	fa 28       	fmov	@r2,fr10
    44fc:	02 01       	.word 0x0201
    44fe:	00 7f       	mac.l	@r7+,@r0+
    4500:	1e 3c       	mov.l	r3,@(48,r14)
    4502:	00 7f       	mac.l	@r7+,@r0+
    4504:	9e 01       	mov.w	450a <_sddrv_129i+0x450a>,r14	! 4
    4506:	12 07       	mov.l	r0,@(28,r2)
    4508:	08 96       	mov.l	r9,@(r0,r8)
    450a:	00 04       	mov.b	r0,@(r0,r0)
    450c:	1d 7c       	mov.l	r7,@(48,r13)
    450e:	00 01       	.word 0x0001
    4510:	00 02       	stc	sr,r0
    4512:	60 00       	mov.b	@r0,r0
    4514:	00 18       	sett	
    4516:	02 01       	.word 0x0201
    4518:	00 7f       	mac.l	@r7+,@r0+
    451a:	1e 3c       	mov.l	r3,@(48,r14)
    451c:	00 7f       	mac.l	@r7+,@r0+
    451e:	9e 01       	mov.w	4524 <_sddrv_129i+0x4524>,r14	! 4
    4520:	12 07       	mov.l	r0,@(28,r2)
    4522:	08 96       	mov.l	r9,@(r0,r8)
    4524:	00 04       	mov.b	r0,@(r0,r0)
    4526:	1d 7c       	mov.l	r7,@(48,r13)
    4528:	00 03       	bsrf	r0
    452a:	00 02       	stc	sr,r0
    452c:	1d 7c       	mov.l	r7,@(48,r13)
    452e:	00 00       	.word 0x0000
    4530:	00 03       	bsrf	r0
    4532:	61 00       	mov.b	@r0,r1
    4534:	04 ec       	mov.b	@(r0,r14),r4
    4536:	1d 41       	mov.l	r4,@(4,r13)
    4538:	00 22       	stc	vbr,r0
    453a:	1d 7c       	mov.l	r7,@(48,r13)
    453c:	00 00       	.word 0x0000
    453e:	00 23       	braf	r0
    4540:	60 00       	mov.b	@r0,r0
    4542:	f9 e0       	fadd	fr14,fr9
    4544:	60 00       	mov.b	@r0,r0
    4546:	f9 dc       	fmov	fr13,fr9
    4548:	02 01       	.word 0x0201
    454a:	00 7f       	mac.l	@r7+,@r0+
    454c:	1e 3c       	mov.l	r3,@(48,r14)
    454e:	00 7f       	mac.l	@r7+,@r0+
    4550:	9e 01       	mov.w	4556 <_sddrv_129i+0x4556>,r14	! 22
    4552:	12 07       	mov.l	r0,@(28,r2)
    4554:	b2 2e       	bsr	49b4 <_sddrv_129i+0x49b4>
    4556:	00 22       	stc	vbr,r0
    4558:	67 00       	mov.b	@r0,r7
    455a:	00 74       	mov.b	r7,@(r0,r0)
    455c:	10 2e       	mov.l	r2,@(56,r0)
    455e:	00 22       	stc	vbr,r0
    4560:	60 00       	mov.b	@r0,r0
    4562:	00 56       	mov.l	r5,@(r0,r0)
    4564:	02 01       	.word 0x0201
    4566:	00 7f       	mac.l	@r7+,@r0+
    4568:	1e 3c       	mov.l	r3,@(48,r14)
    456a:	00 7f       	mac.l	@r7+,@r0+
    456c:	9e 01       	mov.w	4572 <_sddrv_129i+0x4572>,r14	! 22
    456e:	12 07       	mov.l	r0,@(28,r2)
    4570:	b2 2e       	bsr	49d0 <_sddrv_129i+0x49d0>
    4572:	00 22       	stc	vbr,r0
    4574:	67 00       	mov.b	@r0,r7
    4576:	00 58       	sets	
    4578:	10 2e       	mov.l	r2,@(56,r0)
    457a:	00 22       	stc	vbr,r0
    457c:	3d 7c       	add	r7,r13
    457e:	7f 00       	add	#0,r15
    4580:	00 24       	mov.b	r2,@(r0,r0)
    4582:	60 00       	mov.b	@r0,r0
    4584:	00 34       	mov.b	r3,@(r0,r0)
    4586:	1d 7c       	mov.l	r7,@(48,r13)
    4588:	00 02       	stc	sr,r0
    458a:	00 02       	stc	sr,r0
    458c:	1d 7c       	mov.l	r7,@(48,r13)
    458e:	00 00       	.word 0x0000
    4590:	00 03       	bsrf	r0
    4592:	61 00       	mov.b	@r0,r1
    4594:	04 8c       	mov.b	@(r0,r8),r4
    4596:	02 01       	.word 0x0201
    4598:	00 7f       	mac.l	@r7+,@r0+
    459a:	1e 3c       	mov.l	r3,@(48,r14)
    459c:	00 7f       	mac.l	@r7+,@r0+
    459e:	9e 01       	mov.w	45a4 <_sddrv_129i+0x45a4>,r14	! 22
    45a0:	12 07       	mov.l	r0,@(28,r2)
    45a2:	b2 2e       	bsr	4a02 <_sddrv_129i+0x4a02>
    45a4:	00 22       	stc	vbr,r0
    45a6:	67 00       	mov.b	@r0,r7
    45a8:	00 26       	mov.l	r2,@(r0,r0)
    45aa:	10 2e       	mov.l	r2,@(56,r0)
    45ac:	00 22       	stc	vbr,r0
    45ae:	1d 40       	mov.l	r4,@(0,r13)
    45b0:	00 24       	mov.b	r2,@(r0,r0)
    45b2:	1d 7c       	mov.l	r7,@(48,r13)
    45b4:	00 00       	.word 0x0000
    45b6:	00 25       	mov.w	r2,@(r0,r0)
    45b8:	1d 41       	mov.l	r4,@(4,r13)
    45ba:	00 22       	stc	vbr,r0
    45bc:	1d 7c       	mov.l	r7,@(48,r13)
    45be:	00 00       	.word 0x0000
    45c0:	00 23       	braf	r0
    45c2:	61 00       	mov.b	@r0,r1
    45c4:	05 98       	.word 0x0598
    45c6:	3d 42       	cmp/hs	r4,r13
    45c8:	00 26       	mov.l	r2,@(r0,r0)
    45ca:	08 d6       	mov.l	r13,@(r0,r8)
    45cc:	00 04       	mov.b	r0,@(r0,r0)
    45ce:	60 00       	mov.b	@r0,r0
    45d0:	f9 52       	fmul	fr5,fr9
    45d2:	08 16       	mov.l	r1,@(r0,r8)
    45d4:	00 07       	mul.l	r0,r0
    45d6:	67 00       	mov.b	@r0,r7
    45d8:	02 24       	mov.b	r2,@(r0,r2)
    45da:	08 16       	mov.l	r1,@(r0,r8)
    45dc:	00 06       	mov.l	r0,@(r0,r0)
    45de:	66 00       	mov.b	@r0,r6
    45e0:	02 1c       	mov.b	@(r0,r1),r2
    45e2:	20 2e       	mulu.w	r2,r0
    45e4:	00 14       	mov.b	r1,@(r0,r0)
    45e6:	91 ae       	mov.w	4746 <_sddrv_129i+0x4746>,r1	! 1
    45e8:	00 1c       	mov.b	@(r0,r1),r0
    45ea:	64 00       	mov.b	@r0,r4
    45ec:	00 6a       	sts	fpscr,r0
    45ee:	70 03       	add	#3,r0
    45f0:	42 81       	.word 0x4281
    45f2:	12 2e       	mov.l	r2,@(56,r2)
    45f4:	00 01       	.word 0x0001
    45f6:	48 e7       	ldc.l	@r8+,r6_bank
    45f8:	00 0e       	mov.l	@(r0,r0),r0
    45fa:	61 00       	mov.b	@r0,r1
    45fc:	05 88       	.word 0x0588
    45fe:	4c df       	mac.w	@r13+,@r12+
    4600:	70 00       	add	#0,r0
    4602:	10 00       	mov.l	r0,@(0,r0)
    4604:	67 00       	mov.b	@r0,r7
    4606:	00 12       	stc	gbr,r0
    4608:	0c 00       	.word 0x0c00
    460a:	00 02       	stc	sr,r0
    460c:	65 00       	mov.b	@r0,r5
    460e:	00 48       	clrs	
    4610:	67 00       	mov.b	@r0,r7
    4612:	00 06       	mov.l	r0,@(r0,r0)
    4614:	60 00       	mov.b	@r0,r0
    4616:	01 e8       	.word 0x01e8
    4618:	0c 82       	stc	r0_bank,r12
    461a:	00 03       	bsrf	r0
    461c:	0d 40       	.word 0x0d40
    461e:	65 00       	mov.b	@r0,r5
    4620:	01 e6       	mov.l	r14,@(r0,r1)
    4622:	0c 82       	stc	r0_bank,r12
    4624:	00 16       	mov.l	r1,@(r0,r0)
    4626:	e3 61       	mov	#97,r3
    4628:	64 00       	mov.b	@r0,r4
    462a:	01 dc       	mov.b	@(r0,r13),r1
    462c:	2d 41       	mov.w	r4,@r13
    462e:	00 0c       	mov.b	@(r0,r0),r0
    4630:	2d 42       	mov.l	r4,@r13
    4632:	00 08       	clrt	
    4634:	e1 89       	mov	#-119,r1
    4636:	d3 ae       	mov.l	48f0 <_sddrv_129i+0x48f0>,r3	! 2143540
    4638:	00 1c       	mov.b	@(r0,r1),r0
    463a:	30 2e       	addc	r2,r0
    463c:	00 06       	mov.l	r0,@(r0,r0)
    463e:	84 c0       	mov.b	@(0,r12),r0
    4640:	20 3c       	cmp/str	r3,r0
    4642:	00 07       	mul.l	r0,r0
    4644:	d0 00       	mov.l	4648 <_sddrv_129i+0x4648>,r0	! 2800000
    4646:	80 c2       	mov.b	r0,@(2,r12)
    4648:	02 80       	.word 0x0280
    464a:	00 00       	.word 0x0000
    464c:	ff ff       	.word 0xffff
    464e:	2d 40       	mov.b	r4,@r13
    4650:	00 14       	mov.b	r1,@(r0,r0)
    4652:	2d 40       	mov.b	r4,@r13
    4654:	00 30       	.word 0x0030
    4656:	08 16       	mov.l	r1,@(r0,r8)
    4658:	00 04       	mov.b	r0,@(r0,r0)
    465a:	67 00       	mov.b	@r0,r7
    465c:	00 88       	.word 0x0088
    465e:	53 2e       	mov.l	@(56,r2),r3
    4660:	00 35       	mov.w	r3,@(r0,r0)
    4662:	64 00       	mov.b	@r0,r4
    4664:	00 80       	.word 0x0080
    4666:	1d 7c       	mov.l	r7,@(48,r13)
    4668:	00 31       	.word 0x0031
    466a:	00 35       	mov.w	r3,@(r0,r0)
    466c:	30 2e       	addc	r2,r0
    466e:	00 22       	stc	vbr,r0
    4670:	32 2e       	addc	r2,r2
    4672:	00 24       	mov.b	r2,@(r0,r0)
    4674:	34 2e       	addc	r2,r4
    4676:	00 26       	mov.l	r2,@(r0,r0)
    4678:	b2 40       	bsr	4afc <_sddrv_129i+0x4afc>
    467a:	65 00       	mov.b	@r0,r5
    467c:	00 1a       	sts	macl,r0
    467e:	95 6e       	mov.w	475e <_sddrv_129i+0x475e>,r5	! 1
    4680:	00 24       	mov.b	r2,@(r0,r0)
    4682:	65 00       	mov.b	@r0,r5
    4684:	00 32       	stc	ssr,r0
    4686:	b0 6e       	bsr	4766 <_sddrv_129i+0x4766>
    4688:	00 24       	mov.b	r2,@(r0,r0)
    468a:	67 00       	mov.b	@r0,r7
    468c:	00 2a       	sts	pr,r0
    468e:	64 00       	mov.b	@r0,r4
    4690:	00 26       	mov.l	r2,@(r0,r0)
    4692:	60 00       	mov.b	@r0,r0
    4694:	00 50       	.word 0x0050
    4696:	d5 6e       	mov.l	4850 <_sddrv_129i+0x4850>,r5	! 10200
    4698:	00 24       	mov.b	r2,@(r0,r0)
    469a:	65 00       	mov.b	@r0,r5
    469c:	00 12       	stc	gbr,r0
    469e:	b0 6e       	bsr	477e <_sddrv_129i+0x477e>
    46a0:	00 24       	mov.b	r2,@(r0,r0)
    46a2:	67 00       	mov.b	@r0,r7
    46a4:	00 0a       	sts	mach,r0
    46a6:	65 00       	mov.b	@r0,r5
    46a8:	00 06       	mov.l	r0,@(r0,r0)
    46aa:	60 00       	mov.b	@r0,r0
    46ac:	00 38       	ldtlb	
    46ae:	0c 40       	.word 0x0c40
    46b0:	7f 00       	add	#0,r15
    46b2:	67 00       	mov.b	@r0,r7
    46b4:	00 1a       	sts	macl,r0
    46b6:	08 96       	mov.l	r9,@(r0,r8)
    46b8:	00 04       	mov.b	r0,@(r0,r0)
    46ba:	1d 7c       	mov.l	r7,@(48,r13)
    46bc:	00 01       	.word 0x0001
    46be:	00 02       	stc	sr,r0
    46c0:	1d 7c       	mov.l	r7,@(48,r13)
    46c2:	00 00       	.word 0x0000
    46c4:	00 03       	bsrf	r0
    46c6:	61 00       	mov.b	@r0,r1
    46c8:	03 58       	.word 0x0358
    46ca:	60 00       	mov.b	@r0,r0
    46cc:	00 18       	sett	
    46ce:	1c bc       	mov.l	r11,@(48,r12)
    46d0:	00 00       	.word 0x0000
    46d2:	1e 3c       	mov.l	r3,@(48,r14)
    46d4:	00 01       	.word 0x0001
    46d6:	61 00       	mov.b	@r0,r1
    46d8:	02 ae       	mov.l	@(r0,r10),r2
    46da:	1d 7c       	mov.l	r7,@(48,r13)
    46dc:	00 00       	.word 0x0000
    46de:	00 20       	.word 0x0020
    46e0:	60 00       	mov.b	@r0,r0
    46e2:	01 06       	mov.l	r0,@(r0,r1)
    46e4:	53 2e       	mov.l	@(56,r2),r3
    46e6:	00 34       	mov.b	r3,@(r0,r0)
    46e8:	64 00       	mov.b	@r0,r4
    46ea:	00 0e       	mov.l	@(r0,r0),r0
    46ec:	1d 7c       	mov.l	r7,@(48,r13)
    46ee:	00 31       	.word 0x0031
    46f0:	00 34       	mov.b	r3,@(r0,r0)
    46f2:	20 6e       	mulu.w	r6,r0
    46f4:	00 38       	ldtlb	
    46f6:	52 50       	mov.l	@(0,r5),r2
    46f8:	08 16       	mov.l	r1,@(r0,r8)
    46fa:	00 00       	.word 0x0000
    46fc:	66 00       	mov.b	@r0,r6
    46fe:	00 fe       	mov.l	@(r0,r15),r0
    4700:	20 2e       	mulu.w	r2,r0
    4702:	00 14       	mov.b	r1,@(r0,r0)
    4704:	91 ae       	mov.w	4864 <_sddrv_129i+0x4864>,r1	! 20
    4706:	00 18       	sett	
    4708:	67 00       	mov.b	@r0,r7
    470a:	00 06       	mov.l	r0,@(r0,r0)
    470c:	64 00       	mov.b	@r0,r4
    470e:	00 ee       	mov.l	@(r0,r14),r0
    4710:	10 2e       	mov.l	r2,@(56,r0)
    4712:	00 2d       	mov.w	@(r0,r2),r0
    4714:	12 2e       	mov.l	r2,@(56,r2)
    4716:	00 2e       	mov.l	@(r0,r2),r0
    4718:	14 2e       	mov.l	r2,@(56,r4)
    471a:	00 2f       	mac.l	@r2+,@r0+
    471c:	16 2e       	mov.l	r2,@(56,r6)
    471e:	00 2c       	mov.b	@(r0,r2),r0
    4720:	61 00       	mov.b	@r0,r1
    4722:	03 72       	stc	r7_bank,r3
    4724:	0c 00       	.word 0x0c00
    4726:	00 90       	.word 0x0090
    4728:	66 00       	mov.b	@r0,r6
    472a:	00 16       	mov.l	r1,@(r0,r0)
    472c:	10 2e       	mov.l	r2,@(56,r0)
    472e:	00 2d       	mov.w	@(r0,r2),r0
    4730:	28 2e       	mulu.w	r2,r8
    4732:	00 28       	clrmac	
    4734:	d8 ae       	mov.l	49f0 <_sddrv_129i+0x49f0>,r8	! 102d0001
    4736:	00 18       	sett	
    4738:	61 00       	mov.b	@r0,r1
    473a:	03 10       	.word 0x0310
    473c:	52 2e       	mov.l	@(56,r2),r2
    473e:	00 20       	.word 0x0020
    4740:	70 00       	add	#0,r0
    4742:	42 81       	.word 0x4281
    4744:	12 2e       	mov.l	r2,@(56,r2)
    4746:	00 01       	.word 0x0001
    4748:	48 e7       	ldc.l	@r8+,r6_bank
    474a:	00 0e       	mov.l	@(r0,r0),r0
    474c:	61 00       	mov.b	@r0,r1
    474e:	04 36       	mov.l	r3,@(r0,r4)
    4750:	4c df       	mac.w	@r13+,@r12+
    4752:	70 00       	add	#0,r0
    4754:	0c 00       	.word 0x0c00
    4756:	00 00       	.word 0x0000
    4758:	67 00       	mov.b	@r0,r7
    475a:	00 1e       	mov.l	@(r0,r1),r0
    475c:	0c 00       	.word 0x0c00
    475e:	00 01       	.word 0x0001
    4760:	67 00       	mov.b	@r0,r7
    4762:	00 06       	mov.l	r0,@(r0,r0)
    4764:	60 00       	mov.b	@r0,r0
    4766:	00 98       	.word 0x0098
    4768:	08 d6       	mov.l	r13,@(r0,r8)
    476a:	00 00       	.word 0x0000
    476c:	4a 2e       	ldc	r10,vbr
    476e:	00 20       	.word 0x0020
    4770:	67 00       	mov.b	@r0,r7
    4772:	00 76       	mov.l	r7,@(r0,r0)
    4774:	60 00       	mov.b	@r0,r0
    4776:	00 86       	mov.l	r8,@(r0,r0)
    4778:	02 03       	bsrf	r2
    477a:	00 f0       	.word 0x00f0
    477c:	1d 43       	mov.l	r4,@(12,r13)
    477e:	00 2d       	mov.w	@(r0,r2),r0
    4780:	1d 44       	mov.l	r4,@(16,r13)
    4782:	00 2f       	mac.l	@r2+,@r0+
    4784:	48 44       	.word 0x4844
    4786:	1d 44       	mov.l	r4,@(16,r13)
    4788:	00 2e       	mov.l	@(r0,r2),r0
    478a:	e0 48       	mov	#72,r0
    478c:	36 00       	cmp/eq	r0,r6
    478e:	02 00       	.word 0x0200
    4790:	00 0f       	mac.l	@r0+,@r0+
    4792:	81 2e       	mov.w	r0,@(28,r2)
    4794:	00 2d       	mov.w	@(r0,r2),r0
    4796:	e8 4b       	mov	#75,r8
    4798:	02 03       	bsrf	r2
    479a:	00 01       	.word 0x0001
    479c:	1d 43       	mov.l	r4,@(12,r13)
    479e:	00 2c       	mov.b	@(r0,r2),r0
    47a0:	e1 8a       	mov	#-118,r1
    47a2:	2d 42       	mov.l	r4,@r13
    47a4:	00 28       	clrmac	
    47a6:	e1 89       	mov	#-119,r1
    47a8:	d3 ae       	mov.l	4a64 <_sddrv_129i+0x4a64>,r3	! 530766ee
    47aa:	00 18       	sett	
    47ac:	67 00       	mov.b	@r0,r7
    47ae:	00 06       	mov.l	r0,@(r0,r0)
    47b0:	6a 00       	mov.b	@r0,r10
    47b2:	00 4a       	.word 0x004a
    47b4:	10 2e       	mov.l	r2,@(56,r0)
    47b6:	00 2d       	mov.w	@(r0,r2),r0
    47b8:	12 2e       	mov.l	r2,@(56,r2)
    47ba:	00 2e       	mov.l	@(r0,r2),r0
    47bc:	14 2e       	mov.l	r2,@(56,r4)
    47be:	00 2f       	mac.l	@r2+,@r0+
    47c0:	16 2e       	mov.l	r2,@(56,r6)
    47c2:	00 2c       	mov.b	@(r0,r2),r0
    47c4:	61 00       	mov.b	@r0,r1
    47c6:	02 ce       	mov.l	@(r0,r12),r2
    47c8:	0c 00       	.word 0x0c00
    47ca:	00 90       	.word 0x0090
    47cc:	66 00       	mov.b	@r0,r6
    47ce:	00 16       	mov.l	r1,@(r0,r0)
    47d0:	10 2e       	mov.l	r2,@(56,r0)
    47d2:	00 2d       	mov.w	@(r0,r2),r0
    47d4:	28 2e       	mulu.w	r2,r8
    47d6:	00 28       	clrmac	
    47d8:	d8 ae       	mov.l	4a94 <_sddrv_129i+0x4a94>,r8	! 48e70700
    47da:	00 18       	sett	
    47dc:	61 00       	mov.b	@r0,r1
    47de:	02 6c       	mov.b	@(r0,r6),r2
    47e0:	52 2e       	mov.l	@(56,r2),r2
    47e2:	00 20       	.word 0x0020
    47e4:	60 00       	mov.b	@r0,r0
    47e6:	ff 5a       	fmov	fr5,@r15
    47e8:	1d 7c       	mov.l	r7,@(48,r13)
    47ea:	00 00       	.word 0x0000
    47ec:	00 03       	bsrf	r0
    47ee:	1d 7c       	mov.l	r7,@(48,r13)
    47f0:	00 00       	.word 0x0000
    47f2:	00 02       	stc	sr,r0
    47f4:	1c bc       	mov.l	r11,@(48,r12)
    47f6:	00 00       	.word 0x0000
    47f8:	61 00       	mov.b	@r0,r1
    47fa:	02 26       	mov.l	r2,@(r0,r2)
    47fc:	4e 75       	.word 0x4e75
    47fe:	1d 40       	mov.l	r4,@(0,r13)
    4800:	00 03       	bsrf	r0
    4802:	60 00       	mov.b	@r0,r0
    4804:	00 0c       	mov.b	@(r0,r0),r0
    4806:	1d 7c       	mov.l	r7,@(48,r13)
    4808:	00 83       	pref	@r0
    480a:	00 03       	bsrf	r0
    480c:	60 00       	mov.b	@r0,r0
    480e:	00 02       	stc	sr,r0
    4810:	1e 3c       	mov.l	r3,@(48,r14)
    4812:	00 01       	.word 0x0001
    4814:	61 00       	mov.b	@r0,r1
    4816:	01 70       	.word 0x0170
    4818:	60 d4       	mov.b	@r13+,r0
    481a:	08 15       	mov.w	r1,@(r0,r8)
    481c:	00 07       	mul.l	r0,r0
    481e:	67 00       	mov.b	@r0,r7
    4820:	00 66       	mov.l	r6,@(r0,r0)
    4822:	2c 6d       	xtrct	r6,r12
    4824:	00 08       	clrt	
    4826:	08 16       	mov.l	r1,@(r0,r8)
    4828:	00 06       	mov.l	r0,@(r0,r0)
    482a:	66 00       	mov.b	@r0,r6
    482c:	00 5a       	sts	fpul,r0
    482e:	20 2e       	mulu.w	r2,r0
    4830:	00 14       	mov.b	r1,@(r0,r0)
    4832:	91 ad       	mov.w	4990 <_sddrv_129i+0x4990>,r1	! 7
    4834:	00 04       	mov.b	r0,@(r0,r0)
    4836:	67 00       	mov.b	@r0,r7
    4838:	00 06       	mov.l	r0,@(r0,r0)
    483a:	6a 00       	mov.b	@r0,r10
    483c:	00 4a       	.word 0x004a
    483e:	10 2d       	mov.l	r2,@(52,r0)
    4840:	00 01       	.word 0x0001
    4842:	12 2d       	mov.l	r2,@(52,r2)
    4844:	00 02       	stc	sr,r0
    4846:	14 2d       	mov.l	r2,@(52,r4)
    4848:	00 03       	bsrf	r0
    484a:	16 2d       	mov.l	r2,@(52,r6)
    484c:	00 00       	.word 0x0000
    484e:	02 03       	bsrf	r2
    4850:	00 01       	.word 0x0001
    4852:	02 00       	.word 0x0200
    4854:	00 0f       	mac.l	@r0+,@r0+
    4856:	00 00       	.word 0x0000
    4858:	00 80       	.word 0x0080
    485a:	61 00       	mov.b	@r0,r1
    485c:	02 38       	.word 0x0238
    485e:	08 95       	mov.w	r9,@(r0,r8)
    4860:	00 07       	mul.l	r0,r0
    4862:	53 2e       	mov.l	@(56,r2),r3
    4864:	00 20       	.word 0x0020
    4866:	66 00       	mov.b	@r0,r6
    4868:	00 1e       	mov.l	@(r0,r1),r0
    486a:	08 16       	mov.l	r1,@(r0,r8)
    486c:	00 00       	.word 0x0000
    486e:	67 00       	mov.b	@r0,r7
    4870:	00 16       	mov.l	r1,@(r0,r0)
    4872:	1c bc       	mov.l	r11,@(48,r12)
    4874:	00 00       	.word 0x0000
    4876:	1d 7c       	mov.l	r7,@(48,r13)
    4878:	00 00       	.word 0x0000
    487a:	00 02       	stc	sr,r0
    487c:	1d 7c       	mov.l	r7,@(48,r13)
    487e:	00 00       	.word 0x0000
    4880:	00 03       	bsrf	r0
    4882:	61 00       	mov.b	@r0,r1
    4884:	01 9c       	mov.b	@(r0,r9),r1
    4886:	4e 75       	.word 0x4e75
    4888:	08 2c       	mov.b	@(r0,r2),r8
    488a:	00 07       	mul.l	r0,r0
    488c:	00 02       	stc	sr,r0
    488e:	67 00       	mov.b	@r0,r7
    4890:	00 66       	mov.l	r6,@(r0,r0)
    4892:	53 2c       	mov.l	@(48,r2),r3
    4894:	00 03       	bsrf	r0
    4896:	64 00       	mov.b	@r0,r4
    4898:	00 5e       	mov.l	@(r0,r5),r0
    489a:	19 7c       	mov.l	r7,@(48,r9)
    489c:	00 07       	mul.l	r0,r0
    489e:	00 03       	bsrf	r0
    48a0:	24 78       	tst	r7,r4
    48a2:	04 04       	mov.b	r0,@(r0,r4)
    48a4:	20 7c       	cmp/str	r7,r0
    48a6:	00 10       	.word 0x0010
    48a8:	0e e0       	.word 0x0ee0
    48aa:	43 ea       	.word 0x43ea
    48ac:	00 90       	.word 0x0090
    48ae:	61 00       	mov.b	@r0,r1
    48b0:	02 54       	mov.b	r5,@(r0,r2)
    48b2:	20 7c       	cmp/str	r7,r0
    48b4:	00 10       	.word 0x0010
    48b6:	0e e2       	stc	r6_bank,r14
    48b8:	43 ea       	.word 0x43ea
    48ba:	00 92       	stc	r1_bank,r0
    48bc:	61 00       	mov.b	@r0,r1
    48be:	02 46       	mov.l	r4,@(r0,r2)
    48c0:	20 7c       	cmp/str	r7,r0
    48c2:	00 10       	.word 0x0010
    48c4:	0e d2       	stc	r5_bank,r14
    48c6:	43 ea       	.word 0x43ea
    48c8:	00 94       	mov.b	r9,@(r0,r0)
    48ca:	61 00       	mov.b	@r0,r1
    48cc:	02 38       	.word 0x0238
    48ce:	35 40       	cmp/eq	r4,r5
    48d0:	00 96       	mov.l	r9,@(r0,r0)
    48d2:	20 7c       	cmp/str	r7,r0
    48d4:	00 10       	.word 0x0010
    48d6:	0e d4       	mov.b	r13,@(r0,r14)
    48d8:	43 ea       	.word 0x43ea
    48da:	00 98       	.word 0x0098
    48dc:	61 00       	mov.b	@r0,r1
    48de:	02 26       	mov.l	r2,@(r0,r2)
    48e0:	35 40       	cmp/eq	r4,r5
    48e2:	00 9a       	.word 0x009a
    48e4:	20 7c       	cmp/str	r7,r0
    48e6:	00 10       	.word 0x0010
    48e8:	0e d6       	mov.l	r13,@(r0,r14)
    48ea:	43 ea       	.word 0x43ea
    48ec:	00 9c       	mov.b	@(r0,r9),r0
    48ee:	61 00       	mov.b	@r0,r1
    48f0:	02 14       	mov.b	r1,@(r0,r2)
    48f2:	35 40       	cmp/eq	r4,r5
    48f4:	00 9e       	mov.l	@(r0,r9),r0
    48f6:	4e 75       	.word 0x4e75
    48f8:	53 2c       	mov.l	@(48,r2),r3
    48fa:	00 04       	mov.b	r0,@(r0,r0)
    48fc:	64 00       	mov.b	@r0,r4
    48fe:	00 6a       	sts	fpscr,r0
    4900:	19 7c       	mov.l	r7,@(48,r9)
    4902:	00 07       	mul.l	r0,r0
    4904:	00 04       	mov.b	r0,@(r0,r0)
    4906:	20 78       	tst	r7,r0
    4908:	04 50       	.word 0x0450
    490a:	d1 fc       	mov.l	4cfc <_sddrv_129i+0x4cfc>,r1	! d8054e75
    490c:	00 00       	.word 0x0000
    490e:	18 90       	mov.l	r9,@(0,r8)
    4910:	22 78       	tst	r7,r2
    4912:	04 04       	mov.b	r0,@(r0,r4)
    4914:	d3 fc       	mov.l	4d08 <_sddrv_129i+0x4d08>,r3	! d0872406
    4916:	00 00       	.word 0x0000
    4918:	00 a0       	.word 0x00a0
    491a:	70 00       	add	#0,r0
    491c:	72 00       	add	#0,r2
    491e:	7e 07       	add	#7,r14
    4920:	61 00       	mov.b	@r0,r1
    4922:	01 fe       	mov.l	@(r0,r15),r1
    4924:	d1 fc       	mov.l	4d18 <_sddrv_129i+0x4d18>,r1	! de47363b
    4926:	00 00       	.word 0x0000
    4928:	00 02       	stc	sr,r0
    492a:	d3 fc       	mov.l	4d1c <_sddrv_129i+0x4d1c>,r3	! 70064efb
    492c:	00 00       	.word 0x0000
    492e:	00 02       	stc	sr,r0
    4930:	52 00       	mov.l	@(0,r0),r2
    4932:	51 cf       	mov.l	@(60,r12),r1
    4934:	ff ec       	fmov	fr14,fr15
    4936:	20 78       	tst	r7,r0
    4938:	04 12       	stc	gbr,r4
    493a:	08 28       	.word 0x0828
    493c:	00 07       	mul.l	r0,r0
    493e:	00 00       	.word 0x0000
    4940:	67 00       	mov.b	@r0,r7
    4942:	00 26       	mov.l	r2,@(r0,r0)
    4944:	4a 01       	shlr	r10
    4946:	67 00       	mov.b	@r0,r7
    4948:	00 20       	.word 0x0020
    494a:	11 41       	mov.l	r4,@(4,r1)
    494c:	00 02       	stc	sr,r0
    494e:	11 7c       	mov.l	r7,@(48,r1)
    4950:	00 01       	.word 0x0001
    4952:	00 01       	.word 0x0001
    4954:	43 f9       	.word 0x43f9
    4956:	00 10       	.word 0x0010
    4958:	00 00       	.word 0x0000
    495a:	33 7c       	add	r7,r3
    495c:	00 20       	.word 0x0020
    495e:	04 2a       	sts	pr,r4
    4960:	4e 71       	.word 0x4e71
    4962:	33 7c       	add	r7,r3
    4964:	00 20       	.word 0x0020
    4966:	04 2c       	mov.b	@(r0,r2),r4
    4968:	4e 75       	.word 0x4e75
    496a:	28 78       	tst	r7,r8
    496c:	04 50       	.word 0x0450
    496e:	d9 fc       	mov.l	4d60 <_sddrv_129i+0x4d60>,r9	! 1c6015a
    4970:	00 00       	.word 0x0000
    4972:	20 00       	mov.b	r0,@r0
    4974:	2a 4c       	cmp/str	r4,r10
    4976:	2c 4c       	cmp/str	r4,r12
    4978:	db fc       	mov.l	4d6c <_sddrv_129i+0x4d6c>,r11	! 15a015a
    497a:	00 00       	.word 0x0000
    497c:	04 00       	.word 0x0400
    497e:	dd fc       	mov.l	4d70 <_sddrv_129i+0x4d70>,r13	! 15a015a
    4980:	00 00       	.word 0x0000
    4982:	01 00       	.word 0x0100
    4984:	4e 75       	.word 0x4e75
    4986:	48 e7       	ldc.l	@r8+,r6_bank
    4988:	02 04       	mov.b	r0,@(r0,r2)
    498a:	3c 3c       	add	r3,r12
    498c:	00 1f       	mac.l	@r1+,@r0+
    498e:	08 15       	mov.w	r1,@(r0,r8)
    4990:	00 07       	mul.l	r0,r0
    4992:	67 00       	mov.b	@r0,r7
    4994:	00 34       	mov.b	r3,@(r0,r0)
    4996:	bd ed       	bsr	4574 <_sddrv_129i+0x4574>
    4998:	00 08       	clrt	
    499a:	66 00       	mov.b	@r0,r6
    499c:	00 2c       	mov.b	@(r0,r2),r0
    499e:	4a 07       	ldc.l	@r10+,sr
    49a0:	67 00       	mov.b	@r0,r7
    49a2:	00 06       	mov.l	r0,@(r0,r0)
    49a4:	08 95       	mov.w	r9,@(r0,r8)
    49a6:	00 07       	mul.l	r0,r0
    49a8:	10 2d       	mov.l	r2,@(52,r0)
    49aa:	00 01       	.word 0x0001
    49ac:	12 2d       	mov.l	r2,@(52,r2)
    49ae:	00 02       	stc	sr,r0
    49b0:	14 2d       	mov.l	r2,@(52,r4)
    49b2:	00 03       	bsrf	r0
    49b4:	16 2d       	mov.l	r2,@(52,r6)
    49b6:	00 00       	.word 0x0000
    49b8:	02 03       	bsrf	r2
    49ba:	00 01       	.word 0x0001
    49bc:	02 00       	.word 0x0200
    49be:	00 0f       	mac.l	@r0+,@r0+
    49c0:	00 00       	.word 0x0000
    49c2:	00 80       	.word 0x0080
    49c4:	61 00       	mov.b	@r0,r1
    49c6:	00 ce       	mov.l	@(r0,r12),r0
    49c8:	db fc       	mov.l	4dbc <_sddrv_129i+0x4dbc>,r11	! 1440144
    49ca:	00 00       	.word 0x0000
    49cc:	00 0c       	mov.b	@(r0,r0),r0
    49ce:	51 ce       	mov.l	@(56,r12),r1
    49d0:	ff be       	fmac	fr0,fr11,fr15
    49d2:	4c df       	mac.w	@r13+,@r12+
    49d4:	20 40       	mov.b	r4,@r0
    49d6:	4e 75       	.word 0x4e75
    49d8:	48 e7       	ldc.l	@r8+,r6_bank
    49da:	02 04       	mov.b	r0,@(r0,r2)
    49dc:	3c 3c       	add	r3,r12
    49de:	00 1f       	mac.l	@r1+,@r0+
    49e0:	08 15       	mov.w	r1,@(r0,r8)
    49e2:	00 07       	mul.l	r0,r0
    49e4:	67 00       	mov.b	@r0,r7
    49e6:	00 2a       	sts	pr,r0
    49e8:	bd ed       	bsr	45c6 <_sddrv_129i+0x45c6>
    49ea:	00 08       	clrt	
    49ec:	66 00       	mov.b	@r0,r6
    49ee:	00 22       	stc	vbr,r0
    49f0:	10 2d       	mov.l	r2,@(52,r0)
    49f2:	00 01       	.word 0x0001
    49f4:	12 2d       	mov.l	r2,@(52,r2)
    49f6:	00 02       	stc	sr,r0
    49f8:	14 2d       	mov.l	r2,@(52,r4)
    49fa:	00 03       	bsrf	r0
    49fc:	16 2d       	mov.l	r2,@(52,r6)
    49fe:	00 00       	.word 0x0000
    4a00:	02 03       	bsrf	r2
    4a02:	00 01       	.word 0x0001
    4a04:	02 00       	.word 0x0200
    4a06:	00 0f       	mac.l	@r0+,@r0+
    4a08:	00 00       	.word 0x0000
    4a0a:	00 90       	.word 0x0090
    4a0c:	61 00       	mov.b	@r0,r1
    4a0e:	00 86       	mov.l	r8,@(r0,r0)
    4a10:	db fc       	mov.l	4e04 <_sddrv_129i+0x4e04>,r11	! 1c601c6
    4a12:	00 00       	.word 0x0000
    4a14:	00 0c       	mov.b	@(r0,r0),r0
    4a16:	51 ce       	mov.l	@(56,r12),r1
    4a18:	ff c8       	fmov	@r12,fr15
    4a1a:	4c df       	mac.w	@r13+,@r12+
    4a1c:	20 40       	mov.b	r4,@r0
    4a1e:	4e 75       	.word 0x4e75
    4a20:	48 e7       	ldc.l	@r8+,r6_bank
    4a22:	e0 80       	mov	#-128,r0
    4a24:	20 78       	tst	r7,r0
    4a26:	04 04       	mov.b	r0,@(r0,r4)
    4a28:	41 e8       	.word 0x41e8
    4a2a:	00 80       	.word 0x0080
    4a2c:	10 2e       	mov.l	r2,@(56,r0)
    4a2e:	00 02       	stc	sr,r0
    4a30:	12 2e       	mov.l	r2,@(56,r2)
    4a32:	00 03       	bsrf	r0
    4a34:	42 82       	.word 0x4282
    4a36:	14 2e       	mov.l	r2,@(56,r4)
    4a38:	00 01       	.word 0x0001
    4a3a:	e3 4a       	mov	#74,r3
    4a3c:	11 80       	mov.l	r8,@(0,r1)
    4a3e:	20 00       	mov.b	r0,@r0
    4a40:	11 81       	mov.l	r8,@(4,r1)
    4a42:	20 01       	mov.w	r0,@r0
    4a44:	4c df       	mac.w	@r13+,@r12+
    4a46:	01 07       	mul.l	r0,r1
    4a48:	4e 75       	.word 0x4e75
    4a4a:	48 e7       	ldc.l	@r8+,r6_bank
    4a4c:	01 04       	mov.b	r0,@(r0,r1)
    4a4e:	7e 20       	add	#32,r14
    4a50:	46 fc       	shad	r15,r6
    4a52:	27 00       	mov.b	r0,@r7
    4a54:	40 e7       	ldc.l	@r0+,r6_bank
    4a56:	08 15       	mov.w	r1,@(r0,r8)
    4a58:	00 07       	mul.l	r0,r0
    4a5a:	67 00       	mov.b	@r0,r7
    4a5c:	00 18       	sett	
    4a5e:	db fc       	mov.l	4e50 <_sddrv_129i+0x4e50>,r11	! 20690004
    4a60:	00 00       	.word 0x0000
    4a62:	00 0c       	mov.b	@(r0,r0),r0
    4a64:	53 07       	mov.l	@(28,r0),r3
    4a66:	66 ee       	exts.b	r14,r6
    4a68:	00 3c       	mov.b	@(r0,r3),r0
    4a6a:	00 01       	.word 0x0001
    4a6c:	46 df       	mac.w	@r13+,@r6+
    4a6e:	4c df       	mac.w	@r13+,@r12+
    4a70:	20 80       	mov.b	r8,@r0
    4a72:	4e 75       	.word 0x4e75
    4a74:	1b 40       	mov.l	r4,@(0,r11)
    4a76:	00 01       	.word 0x0001
    4a78:	1b 41       	mov.l	r4,@(4,r11)
    4a7a:	00 02       	stc	sr,r0
    4a7c:	1b 42       	mov.l	r4,@(8,r11)
    4a7e:	00 03       	bsrf	r0
    4a80:	1b 43       	mov.l	r4,@(12,r11)
    4a82:	00 00       	.word 0x0000
    4a84:	2b 44       	mov.b	r4,@-r11
    4a86:	00 04       	mov.b	r0,@(r0,r0)
    4a88:	2b 4e       	mulu.w	r4,r11
    4a8a:	00 08       	clrt	
    4a8c:	08 d5       	mov.w	r13,@(r0,r8)
    4a8e:	00 07       	mul.l	r0,r0
    4a90:	80 40       	mov.b	r0,@(0,r4)
    4a92:	60 d8       	swap.b	r13,r0
    4a94:	48 e7       	ldc.l	@r8+,r6_bank
    4a96:	07 00       	.word 0x0700
    4a98:	20 78       	tst	r7,r0
    4a9a:	04 50       	.word 0x0450
    4a9c:	43 e8       	.word 0x43e8
    4a9e:	18 40       	mov.l	r4,@(0,r8)
    4aa0:	45 e8       	.word 0x45e8
    4aa2:	1a 00       	mov.l	r0,@(0,r10)
    4aa4:	1a 00       	mov.l	r0,@(0,r10)
    4aa6:	1c 00       	mov.l	r0,@(0,r12)
    4aa8:	02 00       	.word 0x0200
    4aaa:	00 f0       	.word 0x00f0
    4aac:	0c 00       	.word 0x0c00
    4aae:	00 90       	.word 0x0090
    4ab0:	66 00       	mov.b	@r0,r6
    4ab2:	00 1a       	sts	macl,r0
    4ab4:	1e 2e       	mov.l	r2,@(56,r14)
    4ab6:	00 22       	stc	vbr,r0
    4ab8:	08 16       	mov.l	r1,@(r0,r8)
    4aba:	00 04       	mov.b	r0,@(r0,r0)
    4abc:	67 00       	mov.b	@r0,r7
    4abe:	00 06       	mov.l	r0,@(r0,r0)
    4ac0:	1e 2e       	mov.l	r2,@(56,r14)
    4ac2:	00 24       	mov.b	r2,@(r0,r0)
    4ac4:	94 07       	mov.w	4ad6 <_sddrv_129i+0x4ad6>,r4	! e90b
    4ac6:	64 00       	mov.b	@r0,r4
    4ac8:	00 04       	mov.b	r0,@(r0,r0)
    4aca:	42 02       	sts.l	mach,@-r2
    4acc:	e8 0d       	mov	#13,r8
    4ace:	02 05       	mov.w	r0,@(r0,r2)
    4ad0:	00 07       	mul.l	r0,r0
    4ad2:	02 06       	mov.l	r0,@(r0,r2)
    4ad4:	00 0f       	mac.l	@r0+,@r0+
    4ad6:	e9 0b       	mov	#11,r9
    4ad8:	8c 03       	.word 0x8c03
    4ada:	1e 2e       	mov.l	r2,@(56,r14)
    4adc:	00 01       	.word 0x0001
    4ade:	eb 0f       	mov	#15,r11
    4ae0:	8c 07       	.word 0x8c07
    4ae2:	42 87       	ldc.l	@r2+,r0_bank
    4ae4:	40 e7       	ldc.l	@r0+,r6_bank
    4ae6:	46 fc       	shad	r15,r6
    4ae8:	27 00       	mov.b	r0,@r7
    4aea:	1e 11       	mov.l	r1,@(4,r14)
    4aec:	52 11       	mov.l	@(4,r1),r2
    4aee:	de 47       	mov.l	4c0c <_sddrv_129i+0x4c0c>,r14	! 0 <_sddrv_129i>
    4af0:	de 47       	mov.l	4c10 <_sddrv_129i+0x4c10>,r14	! 0 <_sddrv_129i>
    4af2:	d5 c7       	mov.l	4e10 <_sddrv_129i+0x4e10>,r5	! 1c601c6
    4af4:	14 c5       	mov.l	r12,@(20,r4)
    4af6:	14 c6       	mov.l	r12,@(24,r4)
    4af8:	14 c1       	mov.l	r12,@(4,r4)
    4afa:	14 c2       	mov.l	r12,@(8,r4)
    4afc:	46 df       	mac.w	@r13+,@r6+
    4afe:	4c df       	mac.w	@r13+,@r12+
    4b00:	00 e0       	.word 0x00e0
    4b02:	4e 75       	.word 0x4e75
    4b04:	48 e7       	ldc.l	@r8+,r6_bank
    4b06:	40 00       	shll	r0
    4b08:	30 10       	cmp/eq	r1,r0
    4b0a:	4a 40       	.word 0x4a40
    4b0c:	6a 00       	mov.b	@r0,r10
    4b0e:	00 04       	mov.b	r0,@(r0,r0)
    4b10:	44 40       	.word 0x4440
    4b12:	32 11       	.word 0x3211
    4b14:	d0 41       	mov.l	4c1c <_sddrv_129i+0x4c1c>,r0	! 0 <_sddrv_129i>
    4b16:	e2 48       	mov	#72,r2
    4b18:	32 80       	cmp/eq	r8,r2
    4b1a:	4c df       	mac.w	@r13+,@r12+
    4b1c:	00 02       	stc	sr,r0
    4b1e:	4e 75       	.word 0x4e75
    4b20:	08 10       	.word 0x0810
    4b22:	00 07       	mul.l	r0,r0
    4b24:	66 00       	mov.b	@r0,r6
    4b26:	00 08       	clrt	
    4b28:	12 bc       	mov.l	r11,@(48,r2)
    4b2a:	00 00       	.word 0x0000
    4b2c:	4e 75       	.word 0x4e75
    4b2e:	24 7c       	cmp/str	r7,r4
    4b30:	00 10       	.word 0x0010
    4b32:	04 08       	.word 0x0408
    4b34:	14 10       	mov.l	r1,@(0,r4)
    4b36:	02 02       	stc	sr,r2
    4b38:	00 1f       	mac.l	@r1+,@r0+
    4b3a:	e1 4a       	mov	#74,r1
    4b3c:	e7 4a       	mov	#74,r7
    4b3e:	34 82       	cmp/hs	r8,r4
    4b40:	34 3c       	add	r3,r4
    4b42:	00 0e       	mov.l	@(r0,r0),r0
    4b44:	4e 71       	.word 0x4e71
    4b46:	51 ca       	mov.l	@(40,r12),r1
    4b48:	ff fc       	fmov	fr15,fr15
    4b4a:	34 12       	cmp/hs	r1,r4
    4b4c:	ee 4a       	mov	#74,r14
    4b4e:	02 02       	stc	sr,r2
    4b50:	00 0f       	mac.l	@r0+,@r0+
    4b52:	b4 11       	bsr	5378 <_sddrv_129i+0x5378>
    4b54:	67 d6       	mov.l	@r13+,r7
    4b56:	12 82       	mov.l	r8,@(8,r2)
    4b58:	01 c1       	.word 0x01c1
    4b5a:	60 d0       	mov.b	@r13,r0
    4b5c:	48 e7       	ldc.l	@r8+,r6_bank
    4b5e:	c0 00       	mov.b	r0,@(0,gbr)
    4b60:	b2 00       	bsr	4f64 <_sddrv_129i+0x4f64>
    4b62:	64 00       	mov.b	@r0,r4
    4b64:	00 08       	clrt	
    4b66:	90 01       	mov.w	4b6c <_sddrv_129i+0x4b6c>,r0	! 9200
    4b68:	12 00       	mov.l	r0,@(0,r2)
    4b6a:	60 02       	mov.l	@r0,r0
    4b6c:	92 00       	mov.w	4b70 <_sddrv_129i+0x4b70>,r2	! 281
    4b6e:	e1 49       	mov	#73,r1
    4b70:	02 81       	.word 0x0281
    4b72:	00 00       	.word 0x0000
    4b74:	7f ff       	add	#-1,r15
    4b76:	02 42       	stc	spc,r2
    4b78:	00 ff       	mac.l	@r15+,@r0+
    4b7a:	82 c2       	.word 0x82c2
    4b7c:	34 01       	.word 0x3401
    4b7e:	4c df       	mac.w	@r13+,@r12+
    4b80:	00 03       	bsrf	r0
    4b82:	4e 75       	.word 0x4e75
    4b84:	eb 49       	mov	#73,r11
    4b86:	43 fb       	.word 0x43fb
    4b88:	10 5e       	mov.l	r5,@(56,r0)
    4b8a:	d0 40       	mov.l	4c8c <_sddrv_129i+0x4c8c>,r0	! 0 <_sddrv_129i>
    4b8c:	66 00       	mov.b	@r0,r6
    4b8e:	03 64       	mov.b	r6,@(r0,r3)
    4b90:	20 51       	mov.w	r5,@r0
    4b92:	70 00       	add	#0,r0
    4b94:	72 00       	add	#0,r2
    4b96:	74 00       	add	#0,r4
    4b98:	76 00       	add	#0,r6
    4b9a:	78 00       	add	#0,r8
    4b9c:	7a 00       	add	#0,r10
    4b9e:	7c 00       	add	#0,r12
    4ba0:	14 18       	mov.l	r1,@(32,r4)
    4ba2:	0c 02       	stc	sr,r12
    4ba4:	00 7f       	mac.l	@r7+,@r0+
    4ba6:	62 00       	mov.b	@r0,r2
    4ba8:	01 6a       	sts	fpscr,r1
    4baa:	18 18       	mov.l	r1,@(32,r8)
    4bac:	1a 18       	mov.l	r1,@(32,r10)
    4bae:	2e 02       	mov.l	r0,@r14
    4bb0:	de 47       	mov.l	4cd0 <_sddrv_129i+0x4cd0>,r14	! 0 <_sddrv_129i>
    4bb2:	de 47       	mov.l	4cd0 <_sddrv_129i+0x4cd0>,r14	! 0 <_sddrv_129i>
    4bb4:	36 07       	cmp/gt	r0,r6
    4bb6:	02 47       	mul.l	r4,r2
    4bb8:	00 ff       	mac.l	@r15+,@r0+
    4bba:	de 47       	mov.l	4cd8 <_sddrv_129i+0x4cd8>,r14	! 0 <_sddrv_129i>
    4bbc:	16 18       	mov.l	r1,@(32,r6)
    4bbe:	dc 83       	mov.l	4dcc <_sddrv_129i+0x4dcc>,r12	! 1440144
    4bc0:	1e 18       	mov.l	r1,@(32,r14)
    4bc2:	d2 87       	mov.l	4de0 <_sddrv_129i+0x4de0>,r2	! 144014e
    4bc4:	02 02       	stc	sr,r2
    4bc6:	00 1f       	mac.l	@r1+,@r0+
    4bc8:	36 3c       	add	r3,r6
    4bca:	00 90       	.word 0x0090
    4bcc:	b0 69       	bsr	4ca2 <_sddrv_129i+0x4ca2>
    4bce:	00 18       	sett	
    4bd0:	66 00       	mov.b	@r0,r6
    4bd2:	01 14       	mov.b	r1,@(r0,r1)
    4bd4:	22 88       	tst	r8,r2
    4bd6:	2e 00       	mov.b	r0,@r14
    4bd8:	10 02       	mov.l	r0,@(8,r0)
    4bda:	e1 48       	mov	#72,r1
    4bdc:	d0 87       	mov.l	4dfc <_sddrv_129i+0x4dfc>,r0	! 14e014e
    4bde:	24 06       	mov.l	r0,@-r4
    4be0:	48 44       	.word 0x4844
    4be2:	d8 05       	mov.l	4bf8 <_sddrv_129i+0x4bf8>,r8	! 0 <_sddrv_129i>
    4be4:	4e 75       	.word 0x4e75
	...
    4ce6:	53 29       	mov.l	@(36,r2),r3
    4ce8:	00 18       	sett	
    4cea:	66 14       	mov.b	@r1+,r6
    4cec:	22 a9       	and	r10,r2
    4cee:	00 08       	clrt	
    4cf0:	2e 00       	mov.b	r0,@r14
    4cf2:	10 02       	mov.l	r0,@(8,r0)
    4cf4:	e1 48       	mov	#72,r1
    4cf6:	d0 87       	mov.l	4f14 <_sddrv_129i+0x4f14>,r0	! 186000
    4cf8:	24 06       	mov.l	r0,@-r4
    4cfa:	48 44       	.word 0x4844
    4cfc:	d8 05       	mov.l	4d14 <_sddrv_129i+0x4d14>,r8	! 4470080
    4cfe:	4e 75       	.word 0x4e75
    4d00:	22 88       	tst	r8,r2
    4d02:	2e 00       	mov.b	r0,@r14
    4d04:	10 02       	mov.l	r0,@(8,r0)
    4d06:	e1 48       	mov	#72,r1
    4d08:	d0 87       	mov.l	4f28 <_sddrv_129i+0x4f28>,r0	! 23470014
    4d0a:	24 06       	mov.l	r0,@-r4
    4d0c:	48 44       	.word 0x4844
    4d0e:	d8 05       	mov.l	4d24 <_sddrv_129i+0x4d24>,r8	! 100011c
    4d10:	4e 75       	.word 0x4e75
    4d12:	2e 02       	mov.l	r0,@r14
    4d14:	04 47       	mul.l	r4,r4
    4d16:	00 80       	.word 0x0080
    4d18:	de 47       	mov.l	4e38 <_sddrv_129i+0x4e38>,r14	! 78006000
    4d1a:	36 3b       	subv	r3,r6
    4d1c:	70 06       	add	#6,r0
    4d1e:	4e fb       	.word 0x4efb
    4d20:	30 02       	cmp/hs	r0,r0
    4d22:	01 c6       	mov.l	r12,@(r0,r1)
    4d24:	01 00       	.word 0x0100
    4d26:	01 1c       	mov.b	@(r0,r1),r1
    4d28:	01 3e       	mov.l	@(r0,r3),r1
    4d2a:	01 c6       	mov.l	r12,@(r0,r1)
    4d2c:	01 c6       	mov.l	r12,@(r0,r1)
    4d2e:	01 c6       	mov.l	r12,@(r0,r1)
    4d30:	01 c6       	mov.l	r12,@(r0,r1)
    4d32:	01 92       	stc	r1_bank,r1
    4d34:	01 92       	stc	r1_bank,r1
    4d36:	01 92       	stc	r1_bank,r1
    4d38:	01 92       	stc	r1_bank,r1
    4d3a:	01 9c       	mov.b	@(r0,r9),r1
    4d3c:	01 9c       	mov.b	@(r0,r9),r1
    4d3e:	01 9c       	mov.b	@(r0,r9),r1
    4d40:	01 9c       	mov.b	@(r0,r9),r1
    4d42:	01 c6       	mov.l	r12,@(r0,r1)
    4d44:	01 c6       	mov.l	r12,@(r0,r1)
    4d46:	01 c6       	mov.l	r12,@(r0,r1)
    4d48:	01 c6       	mov.l	r12,@(r0,r1)
    4d4a:	01 c6       	mov.l	r12,@(r0,r1)
    4d4c:	01 c6       	mov.l	r12,@(r0,r1)
    4d4e:	01 c6       	mov.l	r12,@(r0,r1)
    4d50:	01 c6       	mov.l	r12,@(r0,r1)
    4d52:	01 c6       	mov.l	r12,@(r0,r1)
    4d54:	01 c6       	mov.l	r12,@(r0,r1)
    4d56:	01 c6       	mov.l	r12,@(r0,r1)
    4d58:	01 c6       	mov.l	r12,@(r0,r1)
    4d5a:	01 c6       	mov.l	r12,@(r0,r1)
    4d5c:	01 c6       	mov.l	r12,@(r0,r1)
    4d5e:	01 c6       	mov.l	r12,@(r0,r1)
    4d60:	01 c6       	mov.l	r12,@(r0,r1)
    4d62:	01 5a       	sts	fpul,r1
    4d64:	01 5a       	sts	fpul,r1
    4d66:	01 5a       	sts	fpul,r1
    4d68:	01 5a       	sts	fpul,r1
    4d6a:	01 5a       	sts	fpul,r1
    4d6c:	01 5a       	sts	fpul,r1
    4d6e:	01 5a       	sts	fpul,r1
    4d70:	01 5a       	sts	fpul,r1
    4d72:	01 5a       	sts	fpul,r1
    4d74:	01 5a       	sts	fpul,r1
    4d76:	01 5a       	sts	fpul,r1
    4d78:	01 5a       	sts	fpul,r1
    4d7a:	01 5a       	sts	fpul,r1
    4d7c:	01 5a       	sts	fpul,r1
    4d7e:	01 5a       	sts	fpul,r1
    4d80:	01 5a       	sts	fpul,r1
    4d82:	01 5a       	sts	fpul,r1
    4d84:	01 5a       	sts	fpul,r1
    4d86:	01 5a       	sts	fpul,r1
    4d88:	01 5a       	sts	fpul,r1
    4d8a:	01 5a       	sts	fpul,r1
    4d8c:	01 5a       	sts	fpul,r1
    4d8e:	01 5a       	sts	fpul,r1
    4d90:	01 5a       	sts	fpul,r1
    4d92:	01 5a       	sts	fpul,r1
    4d94:	01 5a       	sts	fpul,r1
    4d96:	01 5a       	sts	fpul,r1
    4d98:	01 5a       	sts	fpul,r1
    4d9a:	01 5a       	sts	fpul,r1
    4d9c:	01 5a       	sts	fpul,r1
    4d9e:	01 5a       	sts	fpul,r1
    4da0:	01 5a       	sts	fpul,r1
    4da2:	01 44       	mov.b	r4,@(r0,r1)
    4da4:	01 44       	mov.b	r4,@(r0,r1)
    4da6:	01 44       	mov.b	r4,@(r0,r1)
    4da8:	01 44       	mov.b	r4,@(r0,r1)
    4daa:	01 44       	mov.b	r4,@(r0,r1)
    4dac:	01 44       	mov.b	r4,@(r0,r1)
    4dae:	01 44       	mov.b	r4,@(r0,r1)
    4db0:	01 44       	mov.b	r4,@(r0,r1)
    4db2:	01 44       	mov.b	r4,@(r0,r1)
    4db4:	01 44       	mov.b	r4,@(r0,r1)
    4db6:	01 44       	mov.b	r4,@(r0,r1)
    4db8:	01 44       	mov.b	r4,@(r0,r1)
    4dba:	01 44       	mov.b	r4,@(r0,r1)
    4dbc:	01 44       	mov.b	r4,@(r0,r1)
    4dbe:	01 44       	mov.b	r4,@(r0,r1)
    4dc0:	01 44       	mov.b	r4,@(r0,r1)
    4dc2:	01 44       	mov.b	r4,@(r0,r1)
    4dc4:	01 44       	mov.b	r4,@(r0,r1)
    4dc6:	01 44       	mov.b	r4,@(r0,r1)
    4dc8:	01 44       	mov.b	r4,@(r0,r1)
    4dca:	01 44       	mov.b	r4,@(r0,r1)
    4dcc:	01 44       	mov.b	r4,@(r0,r1)
    4dce:	01 44       	mov.b	r4,@(r0,r1)
    4dd0:	01 44       	mov.b	r4,@(r0,r1)
    4dd2:	01 44       	mov.b	r4,@(r0,r1)
    4dd4:	01 44       	mov.b	r4,@(r0,r1)
    4dd6:	01 44       	mov.b	r4,@(r0,r1)
    4dd8:	01 44       	mov.b	r4,@(r0,r1)
    4dda:	01 44       	mov.b	r4,@(r0,r1)
    4ddc:	01 44       	mov.b	r4,@(r0,r1)
    4dde:	01 44       	mov.b	r4,@(r0,r1)
    4de0:	01 44       	mov.b	r4,@(r0,r1)
    4de2:	01 4e       	mov.l	@(r0,r4),r1
    4de4:	01 4e       	mov.l	@(r0,r4),r1
    4de6:	01 4e       	mov.l	@(r0,r4),r1
    4de8:	01 4e       	mov.l	@(r0,r4),r1
    4dea:	01 4e       	mov.l	@(r0,r4),r1
    4dec:	01 4e       	mov.l	@(r0,r4),r1
    4dee:	01 4e       	mov.l	@(r0,r4),r1
    4df0:	01 4e       	mov.l	@(r0,r4),r1
    4df2:	01 4e       	mov.l	@(r0,r4),r1
    4df4:	01 4e       	mov.l	@(r0,r4),r1
    4df6:	01 4e       	mov.l	@(r0,r4),r1
    4df8:	01 4e       	mov.l	@(r0,r4),r1
    4dfa:	01 4e       	mov.l	@(r0,r4),r1
    4dfc:	01 4e       	mov.l	@(r0,r4),r1
    4dfe:	01 4e       	mov.l	@(r0,r4),r1
    4e00:	01 4e       	mov.l	@(r0,r4),r1
    4e02:	01 c6       	mov.l	r12,@(r0,r1)
    4e04:	01 c6       	mov.l	r12,@(r0,r1)
    4e06:	01 c6       	mov.l	r12,@(r0,r1)
    4e08:	01 c6       	mov.l	r12,@(r0,r1)
    4e0a:	01 c6       	mov.l	r12,@(r0,r1)
    4e0c:	01 c6       	mov.l	r12,@(r0,r1)
    4e0e:	01 c6       	mov.l	r12,@(r0,r1)
    4e10:	01 c6       	mov.l	r12,@(r0,r1)
    4e12:	01 c6       	mov.l	r12,@(r0,r1)
    4e14:	01 c6       	mov.l	r12,@(r0,r1)
    4e16:	01 c6       	mov.l	r12,@(r0,r1)
    4e18:	01 c6       	mov.l	r12,@(r0,r1)
    4e1a:	01 c6       	mov.l	r12,@(r0,r1)
    4e1c:	01 c6       	mov.l	r12,@(r0,r1)
    4e1e:	01 c6       	mov.l	r12,@(r0,r1)
    4e20:	01 c6       	mov.l	r12,@(r0,r1)
    4e22:	7e 00       	add	#0,r14
    4e24:	1e 18       	mov.l	r1,@(32,r14)
    4e26:	e1 4f       	mov	#79,r1
    4e28:	1e 18       	mov.l	r1,@(32,r14)
    4e2a:	13 58       	mov.l	r5,@(32,r3)
    4e2c:	00 18       	sett	
    4e2e:	23 48       	tst	r4,r3
    4e30:	00 08       	clrt	
    4e32:	2c 69       	and	r6,r12
    4e34:	00 0c       	mov.b	@(r0,r0),r0
    4e36:	41 f6       	ldc.l	@r1+,dbr
    4e38:	78 00       	add	#0,r8
    4e3a:	60 00       	mov.b	@r0,r0
    4e3c:	fd 64       	fcmp/eq	fr6,fr13
    4e3e:	7e 00       	add	#0,r14
    4e40:	1e 18       	mov.l	r1,@(32,r14)
    4e42:	d2 87       	mov.l	5060 <_sddrv_129i+0x5060>,r2	! 81d7c
    4e44:	0c a9       	.word 0x0ca9
    4e46:	00 00       	.word 0x0000
    4e48:	00 00       	.word 0x0000
    4e4a:	00 04       	mov.b	r0,@(r0,r0)
    4e4c:	67 00       	mov.b	@r0,r7
    4e4e:	00 0a       	sts	mach,r0
    4e50:	20 69       	and	r6,r0
    4e52:	00 04       	mov.b	r0,@(r0,r0)
    4e54:	60 00       	mov.b	@r0,r0
    4e56:	fd 4a       	fmov	fr4,@r13
    4e58:	23 48       	tst	r4,r3
    4e5a:	00 04       	mov.b	r0,@(r0,r0)
    4e5c:	60 00       	mov.b	@r0,r0
    4e5e:	fd 42       	fmul	fr4,fr13
    4e60:	70 01       	add	#1,r0
    4e62:	60 00       	mov.b	@r0,r0
    4e64:	fe 9e       	fmac	fr0,fr9,fr14
    4e66:	18 18       	mov.l	r1,@(32,r8)
    4e68:	08 84       	mov.b	r8,@(r0,r8)
    4e6a:	00 07       	mul.l	r0,r0
    4e6c:	60 00       	mov.b	@r0,r0
    4e6e:	00 16       	mov.l	r1,@(r0,r0)
    4e70:	78 00       	add	#0,r8
    4e72:	1a 18       	mov.l	r1,@(32,r10)
    4e74:	08 85       	mov.w	r8,@(r0,r8)
    4e76:	00 07       	mul.l	r0,r0
    4e78:	60 00       	mov.b	@r0,r0
    4e7a:	00 0a       	sts	mach,r0
    4e7c:	18 18       	mov.l	r1,@(32,r8)
    4e7e:	1a 18       	mov.l	r1,@(32,r10)
    4e80:	08 84       	mov.b	r8,@(r0,r8)
    4e82:	00 07       	mul.l	r0,r0
    4e84:	66 00       	mov.b	@r0,r6
    4e86:	00 16       	mov.l	r1,@(r0,r0)
    4e88:	26 02       	mov.l	r0,@r6
    4e8a:	02 02       	stc	sr,r2
    4e8c:	00 0f       	mac.l	@r0+,@r0+
    4e8e:	02 03       	bsrf	r2
    4e90:	00 f0       	.word 0x00f0
    4e92:	7e 00       	add	#0,r14
    4e94:	1e 18       	mov.l	r1,@(32,r14)
    4e96:	d2 87       	mov.l	50b4 <_sddrv_129i+0x50b4>,r2	! 1c2e0002
    4e98:	60 00       	mov.b	@r0,r0
    4e9a:	fd 32       	fmul	fr3,fr13
    4e9c:	26 02       	mov.l	r0,@r6
    4e9e:	02 02       	stc	sr,r2
    4ea0:	00 0f       	mac.l	@r0+,@r0+
    4ea2:	08 c2       	stc	r4_bank,r8
    4ea4:	00 04       	mov.b	r0,@(r0,r0)
    4ea6:	02 03       	bsrf	r2
    4ea8:	00 f0       	.word 0x00f0
    4eaa:	7e 00       	add	#0,r14
    4eac:	1e 18       	mov.l	r1,@(32,r14)
    4eae:	d2 87       	mov.l	50cc <_sddrv_129i+0x50cc>,r2	! 6700000a
    4eb0:	60 00       	mov.b	@r0,r0
    4eb2:	fd 1a       	fmov	fr1,@r13
    4eb4:	36 3b       	subv	r3,r6
    4eb6:	70 12       	add	#18,r0
    4eb8:	dc 83       	mov.l	50c8 <_sddrv_129i+0x50c8>,r12	! 1002c
    4eba:	60 00       	mov.b	@r0,r0
    4ebc:	fc e4       	fcmp/eq	fr14,fr12
    4ebe:	36 3b       	subv	r3,r6
    4ec0:	70 08       	add	#8,r0
    4ec2:	d2 83       	mov.l	50d0 <_sddrv_129i+0x50d0>,r2	! 4eba0028
    4ec4:	60 00       	mov.b	@r0,r0
    4ec6:	fc da       	fmov	fr13,@r12
	...
    4ed8:	02 00       	.word 0x0200
    4eda:	08 00       	.word 0x0800
    4edc:	10 00       	mov.l	r0,@(0,r0)
    4ede:	20 00       	mov.b	r0,@r0
    4ee0:	01 00       	.word 0x0100
    4ee2:	02 00       	.word 0x0200
    4ee4:	08 00       	.word 0x0800
    4ee6:	10 00       	mov.l	r0,@(0,r0)
    4ee8:	20 3c       	cmp/str	r3,r0
    4eea:	00 00       	.word 0x0000
    4eec:	00 ff       	mac.l	@r15+,@r0+
    4eee:	60 00       	mov.b	@r0,r0
    4ef0:	fe 12       	fmul	fr1,fr14
    4ef2:	30 3b       	subv	r3,r0
    4ef4:	00 06       	mov.l	r0,@(r0,r0)
    4ef6:	4e fb       	.word 0x4efb
    4ef8:	00 02       	stc	sr,r0
    4efa:	fc 96       	fmov	@(r0,r9),fr12
    4efc:	00 08       	clrt	
    4efe:	00 20       	.word 0x0020
    4f00:	00 48       	clrs	
    4f02:	d0 e8       	mov.l	52a4 <_sddrv_129i+0x52a4>,r0	! 5f5e5d5c
    4f04:	00 04       	mov.b	r0,@(r0,r0)
    4f06:	22 88       	tst	r8,r2
    4f08:	23 48       	tst	r4,r3
    4f0a:	00 0c       	mov.b	@(r0,r0),r0
    4f0c:	7e 00       	add	#0,r14
    4f0e:	23 47       	div0s	r4,r3
    4f10:	00 04       	mov.b	r0,@(r0,r0)
    4f12:	13 47       	mov.l	r4,@(28,r3)
    4f14:	00 18       	sett	
    4f16:	60 00       	mov.b	@r0,r0
    4f18:	fc 7a       	fmov	fr7,@r12
    4f1a:	70 00       	add	#0,r0
    4f1c:	24 48       	tst	r4,r4
    4f1e:	d4 e8       	mov.l	52c0 <_sddrv_129i+0x52c0>,r4	! 43424140
    4f20:	00 04       	mov.b	r0,@(r0,r0)
    4f22:	23 4a       	xor	r4,r3
    4f24:	00 0c       	mov.b	@(r0,r0),r0
    4f26:	7e 00       	add	#0,r14
    4f28:	23 47       	div0s	r4,r3
    4f2a:	00 14       	mov.b	r1,@(r0,r0)
    4f2c:	3e 28       	sub	r2,r14
    4f2e:	00 06       	mov.l	r0,@(r0,r0)
    4f30:	67 00       	mov.b	@r0,r7
    4f32:	00 08       	clrt	
    4f34:	de 88       	mov.l	5158 <_sddrv_129i+0x5158>,r14	! 90036400
    4f36:	23 47       	div0s	r4,r3
    4f38:	00 14       	mov.b	r1,@(r0,r0)
    4f3a:	45 e8       	.word 0x45e8
    4f3c:	00 08       	clrt	
    4f3e:	60 00       	mov.b	@r0,r0
    4f40:	00 2c       	mov.b	@(r0,r2),r0
    4f42:	70 00       	add	#0,r0
    4f44:	24 69       	and	r6,r4
    4f46:	00 10       	.word 0x0010
    4f48:	b5 e9       	bsr	5b1e <_sddrv_129i+0x5b1e>
    4f4a:	00 0c       	mov.b	@(r0,r0),r0
    4f4c:	66 00       	mov.b	@r0,r6
    4f4e:	00 1e       	mov.l	@(r0,r1),r0
    4f50:	0c a9       	.word 0x0ca9
    4f52:	00 00       	.word 0x0000
    4f54:	00 00       	.word 0x0000
    4f56:	00 14       	mov.b	r1,@(r0,r0)
    4f58:	66 00       	mov.b	@r0,r6
    4f5a:	00 08       	clrt	
    4f5c:	70 01       	add	#1,r0
    4f5e:	60 00       	mov.b	@r0,r0
    4f60:	fd a2       	fmul	fr10,fr13
    4f62:	23 69       	and	r6,r3
    4f64:	00 14       	mov.b	r1,@(r0,r0)
    4f66:	00 10       	.word 0x0010
    4f68:	24 69       	and	r6,r4
    4f6a:	00 10       	.word 0x0010
    4f6c:	22 1a       	xor	r1,r2
    4f6e:	2c 1a       	xor	r1,r12
    4f70:	23 4a       	xor	r4,r3
    4f72:	00 10       	.word 0x0010
    4f74:	60 00       	mov.b	@r0,r0
    4f76:	fd 8c       	fmov	fr8,fr13
    4f78:	48 e7       	ldc.l	@r8+,r6_bank
    4f7a:	ff fe       	fmac	fr0,fr15,fr15
    4f7c:	24 78       	tst	r7,r4
    4f7e:	04 12       	stc	gbr,r4
    4f80:	4d ea       	.word 0x4dea
    4f82:	00 28       	clrmac	
    4f84:	4b ea       	.word 0x4bea
    4f86:	00 08       	clrt	
    4f88:	70 00       	add	#0,r0
    4f8a:	1b 40       	mov.l	r4,@(0,r11)
    4f8c:	00 00       	.word 0x0000
    4f8e:	1b 40       	mov.l	r4,@(0,r11)
    4f90:	00 01       	.word 0x0001
    4f92:	1b 7c       	mov.l	r7,@(48,r11)
    4f94:	00 20       	.word 0x0020
    4f96:	00 02       	stc	sr,r0
    4f98:	1b 40       	mov.l	r4,@(0,r11)
    4f9a:	00 03       	bsrf	r0
    4f9c:	1b 40       	mov.l	r4,@(0,r11)
    4f9e:	00 04       	mov.b	r0,@(r0,r0)
    4fa0:	1b 40       	mov.l	r4,@(0,r11)
    4fa2:	00 05       	mov.w	r0,@(r0,r0)
    4fa4:	1b 40       	mov.l	r4,@(0,r11)
    4fa6:	00 06       	mov.l	r0,@(r0,r0)
    4fa8:	1b 40       	mov.l	r4,@(0,r11)
    4faa:	00 08       	clrt	
    4fac:	1b 40       	mov.l	r4,@(0,r11)
    4fae:	00 09       	nop	
    4fb0:	1b 7c       	mov.l	r7,@(48,r11)
    4fb2:	00 20       	.word 0x0020
    4fb4:	00 0a       	sts	mach,r0
    4fb6:	3d 40       	cmp/eq	r4,r13
    4fb8:	00 00       	.word 0x0000
    4fba:	3d 40       	cmp/eq	r4,r13
    4fbc:	00 02       	stc	sr,r0
    4fbe:	3d 7c       	add	r7,r13
    4fc0:	20 00       	mov.b	r0,@r0
    4fc2:	00 04       	mov.b	r0,@(r0,r0)
    4fc4:	3d 40       	cmp/eq	r4,r13
    4fc6:	00 06       	mov.l	r0,@(r0,r0)
    4fc8:	3d 40       	cmp/eq	r4,r13
    4fca:	00 08       	clrt	
    4fcc:	3d 40       	cmp/eq	r4,r13
    4fce:	00 0a       	sts	mach,r0
    4fd0:	3d 40       	cmp/eq	r4,r13
    4fd2:	00 26       	mov.l	r2,@(r0,r0)
    4fd4:	3d 40       	cmp/eq	r4,r13
    4fd6:	00 28       	clrmac	
    4fd8:	3d 40       	cmp/eq	r4,r13
    4fda:	00 2a       	sts	pr,r0
    4fdc:	3d 40       	cmp/eq	r4,r13
    4fde:	00 0c       	mov.b	@(r0,r0),r0
    4fe0:	3d 40       	cmp/eq	r4,r13
    4fe2:	00 0e       	mov.l	@(r0,r0),r0
    4fe4:	3d 7c       	add	r7,r13
    4fe6:	20 00       	mov.b	r0,@r0
    4fe8:	00 10       	.word 0x0010
    4fea:	3d 40       	cmp/eq	r4,r13
    4fec:	00 12       	stc	gbr,r0
    4fee:	3d 40       	cmp/eq	r4,r13
    4ff0:	00 14       	mov.b	r1,@(r0,r0)
    4ff2:	3d 40       	cmp/eq	r4,r13
    4ff4:	00 16       	mov.l	r1,@(r0,r0)
    4ff6:	3d 40       	cmp/eq	r4,r13
    4ff8:	00 18       	sett	
    4ffa:	3d 40       	cmp/eq	r4,r13
    4ffc:	00 2c       	mov.b	@(r0,r2),r0
    4ffe:	3d 40       	cmp/eq	r4,r13
    5000:	00 1a       	sts	macl,r0
    5002:	3d 40       	cmp/eq	r4,r13
    5004:	00 1c       	mov.b	@(r0,r1),r0
    5006:	3d 40       	cmp/eq	r4,r13
    5008:	00 1e       	mov.l	@(r0,r1),r0
    500a:	3d 40       	cmp/eq	r4,r13
    500c:	00 20       	.word 0x0020
    500e:	3d 40       	cmp/eq	r4,r13
    5010:	00 22       	stc	vbr,r0
    5012:	3d 40       	cmp/eq	r4,r13
    5014:	00 24       	mov.b	r2,@(r0,r0)
    5016:	4c df       	mac.w	@r13+,@r12+
    5018:	7f ff       	add	#-1,r15
    501a:	4e 75       	.word 0x4e75
    501c:	48 e7       	ldc.l	@r8+,r6_bank
    501e:	ff fe       	fmac	fr0,fr15,fr15
    5020:	24 78       	tst	r7,r4
    5022:	04 12       	stc	gbr,r4
    5024:	4d ea       	.word 0x4dea
    5026:	00 28       	clrmac	
    5028:	4b ea       	.word 0x4bea
    502a:	00 08       	clrt	
    502c:	70 00       	add	#0,r0
    502e:	d9 c0       	mov.l	5330 <_sddrv_129i+0x5330>,r9	! a9aaabac
    5030:	10 2a       	mov.l	r2,@(40,r0)
    5032:	00 07       	mul.l	r0,r0
    5034:	d7 c0       	mov.l	5338 <_sddrv_129i+0x5338>,r7	! b2b3b4b5
    5036:	08 ad       	mov.w	@(r0,r10),r8
    5038:	00 07       	mul.l	r0,r0
    503a:	00 03       	bsrf	r0
    503c:	67 00       	mov.b	@r0,r7
    503e:	00 60       	.word 0x0060
    5040:	1d 6d       	mov.l	r6,@(52,r13)
    5042:	00 00       	.word 0x0000
    5044:	00 12       	stc	gbr,r0
    5046:	1d 6d       	mov.l	r6,@(52,r13)
    5048:	00 01       	.word 0x0001
    504a:	00 14       	mov.b	r1,@(r0,r0)
    504c:	1d 6d       	mov.l	r6,@(52,r13)
    504e:	00 02       	stc	sr,r0
    5050:	00 16       	mov.l	r1,@(r0,r0)
    5052:	1d 6d       	mov.l	r6,@(52,r13)
    5054:	00 03       	bsrf	r0
    5056:	00 18       	sett	
    5058:	1d 6d       	mov.l	r6,@(52,r13)
    505a:	00 04       	mov.b	r0,@(r0,r0)
    505c:	00 1a       	sts	macl,r0
    505e:	66 00       	mov.b	@r0,r6
    5060:	00 08       	clrt	
    5062:	1d 7c       	mov.l	r7,@(48,r13)
    5064:	00 01       	.word 0x0001
    5066:	00 1a       	sts	macl,r0
    5068:	1d 6d       	mov.l	r6,@(52,r13)
    506a:	00 05       	mov.w	r0,@(r0,r0)
    506c:	00 1c       	mov.b	@(r0,r1),r0
    506e:	14 2d       	mov.l	r2,@(52,r4)
    5070:	00 05       	mov.w	r0,@(r0,r0)
    5072:	02 02       	stc	sr,r2
    5074:	00 7f       	mac.l	@r7+,@r0+
    5076:	66 00       	mov.b	@r0,r6
    5078:	00 08       	clrt	
    507a:	1d 7c       	mov.l	r7,@(48,r13)
    507c:	00 01       	.word 0x0001
    507e:	00 1c       	mov.b	@(r0,r1),r0
    5080:	1d 6d       	mov.l	r6,@(52,r13)
    5082:	00 06       	mov.l	r0,@(r0,r0)
    5084:	00 1e       	mov.l	@(r0,r1),r0
    5086:	14 2d       	mov.l	r2,@(52,r4)
    5088:	00 06       	mov.l	r0,@(r0,r0)
    508a:	02 02       	stc	sr,r2
    508c:	00 7f       	mac.l	@r7+,@r0+
    508e:	66 00       	mov.b	@r0,r6
    5090:	00 08       	clrt	
    5092:	1d 7c       	mov.l	r7,@(48,r13)
    5094:	00 01       	.word 0x0001
    5096:	00 1e       	mov.l	@(r0,r1),r0
    5098:	08 ee       	mov.l	@(r0,r14),r8
    509a:	00 01       	.word 0x0001
    509c:	00 2c       	mov.b	@(r0,r2),r0
    509e:	14 2e       	mov.l	r2,@(56,r4)
    50a0:	00 0c       	mov.b	@(r0,r0),r0
    50a2:	16 2e       	mov.l	r2,@(56,r6)
    50a4:	00 0e       	mov.l	@(r0,r0),r0
    50a6:	18 2e       	mov.l	r2,@(56,r8)
    50a8:	00 10       	.word 0x0010
    50aa:	7a 00       	add	#0,r10
    50ac:	7c 00       	add	#0,r12
    50ae:	7e 00       	add	#0,r14
    50b0:	1a 2e       	mov.l	r2,@(56,r10)
    50b2:	00 00       	.word 0x0000
    50b4:	1c 2e       	mov.l	r2,@(56,r12)
    50b6:	00 02       	stc	sr,r0
    50b8:	1e 2e       	mov.l	r2,@(56,r14)
    50ba:	00 04       	mov.b	r0,@(r0,r0)
    50bc:	08 2e       	mov.l	@(r0,r2),r8
    50be:	00 00       	.word 0x0000
    50c0:	00 2c       	mov.b	@(r0,r2),r0
    50c2:	66 00       	mov.b	@r0,r6
    50c4:	00 10       	.word 0x0010
    50c6:	08 ae       	mov.l	@(r0,r10),r8
    50c8:	00 01       	.word 0x0001
    50ca:	00 2c       	mov.b	@(r0,r2),r0
    50cc:	67 00       	mov.b	@r0,r7
    50ce:	00 0a       	sts	mach,r0
    50d0:	4e ba       	.word 0x4eba
    50d2:	00 28       	clrmac	
    50d4:	4e ba       	.word 0x4eba
    50d6:	00 f2       	stc	r7_bank,r0
    50d8:	1b 6e       	mov.l	r6,@(56,r11)
    50da:	00 00       	.word 0x0000
    50dc:	00 08       	clrt	
    50de:	1b 6e       	mov.l	r6,@(56,r11)
    50e0:	00 02       	stc	sr,r0
    50e2:	00 09       	nop	
    50e4:	1b 6e       	mov.l	r6,@(56,r11)
    50e6:	00 04       	mov.b	r0,@(r0,r0)
    50e8:	00 0a       	sts	mach,r0
    50ea:	4c df       	mac.w	@r13+,@r12+
    50ec:	7f ff       	add	#-1,r15
    50ee:	70 00       	add	#0,r0
    50f0:	10 2e       	mov.l	r2,@(56,r0)
    50f2:	00 2c       	mov.b	@(r0,r2),r0
    50f4:	02 00       	.word 0x0200
    50f6:	00 03       	bsrf	r0
    50f8:	4e 75       	.word 0x4e75
    50fa:	08 ee       	mov.l	@(r0,r14),r8
    50fc:	00 00       	.word 0x0000
    50fe:	00 2c       	mov.b	@(r0,r2),r0
    5100:	14 2e       	mov.l	r2,@(56,r4)
    5102:	00 12       	stc	gbr,r0
    5104:	16 2e       	mov.l	r2,@(56,r6)
    5106:	00 14       	mov.b	r1,@(r0,r0)
    5108:	18 2e       	mov.l	r2,@(56,r8)
    510a:	00 16       	mov.l	r1,@(r0,r0)
    510c:	12 2e       	mov.l	r2,@(56,r2)
    510e:	00 1a       	sts	macl,r0
    5110:	02 01       	.word 0x0201
    5112:	00 7f       	mac.l	@r7+,@r0+
    5114:	1d 41       	mov.l	r4,@(4,r13)
    5116:	00 26       	mov.l	r2,@(r0,r0)
    5118:	70 00       	add	#0,r0
    511a:	b4 05       	bsr	5928 <_sddrv_129i+0x5928>
    511c:	65 00       	mov.b	@r0,r5
    511e:	00 12       	stc	gbr,r0
    5120:	10 02       	mov.l	r0,@(8,r0)
    5122:	90 05       	mov.w	5130 <_sddrv_129i+0x5130>,r0	! 1005
    5124:	1d 40       	mov.l	r4,@(0,r13)
    5126:	00 20       	.word 0x0020
    5128:	1d 41       	mov.l	r4,@(4,r13)
    512a:	00 06       	mov.l	r0,@(r0,r0)
    512c:	60 00       	mov.b	@r0,r0
    512e:	00 10       	.word 0x0010
    5130:	10 05       	mov.l	r0,@(20,r0)
    5132:	90 02       	mov.w	513a <_sddrv_129i+0x513a>,r0	! 1d41
    5134:	1d 40       	mov.l	r4,@(0,r13)
    5136:	00 20       	.word 0x0020
    5138:	44 01       	shlr	r4
    513a:	1d 41       	mov.l	r4,@(4,r13)
    513c:	00 06       	mov.l	r0,@(r0,r0)
    513e:	12 2e       	mov.l	r2,@(56,r2)
    5140:	00 1c       	mov.b	@(r0,r1),r0
    5142:	1d 41       	mov.l	r4,@(4,r13)
    5144:	00 08       	clrt	
    5146:	08 01       	.word 0x0801
    5148:	00 07       	mul.l	r0,r0
    514a:	67 00       	mov.b	@r0,r7
    514c:	00 1a       	sts	macl,r0
    514e:	44 01       	shlr	r4
    5150:	1d 41       	mov.l	r4,@(4,r13)
    5152:	00 28       	clrmac	
    5154:	70 00       	add	#0,r0
    5156:	10 06       	mov.l	r0,@(24,r0)
    5158:	90 03       	mov.w	5162 <_sddrv_129i+0x5162>,r0	! 6000
    515a:	64 00       	mov.b	@r0,r4
    515c:	00 1c       	mov.b	@(r0,r1),r0
    515e:	06 00       	.word 0x0600
    5160:	00 80       	.word 0x0080
    5162:	60 00       	mov.b	@r0,r0
    5164:	00 14       	mov.b	r1,@(r0,r0)
    5166:	1d 41       	mov.l	r4,@(4,r13)
    5168:	00 28       	clrmac	
    516a:	70 00       	add	#0,r0
    516c:	10 03       	mov.l	r0,@(12,r0)
    516e:	90 06       	mov.w	517e <_sddrv_129i+0x517e>,r0	! 1e
    5170:	64 00       	mov.b	@r0,r4
    5172:	00 06       	mov.l	r0,@(r0,r0)
    5174:	06 00       	.word 0x0600
    5176:	00 80       	.word 0x0080
    5178:	1d 40       	mov.l	r4,@(0,r13)
    517a:	00 22       	stc	vbr,r0
    517c:	12 2e       	mov.l	r2,@(56,r2)
    517e:	00 1e       	mov.l	@(r0,r1),r0
    5180:	1d 41       	mov.l	r4,@(4,r13)
    5182:	00 0a       	sts	mach,r0
    5184:	08 01       	.word 0x0801
    5186:	00 07       	mul.l	r0,r0
    5188:	67 00       	mov.b	@r0,r7
    518a:	00 1a       	sts	macl,r0
    518c:	44 01       	shlr	r4
    518e:	1d 41       	mov.l	r4,@(4,r13)
    5190:	00 2a       	sts	pr,r0
    5192:	70 00       	add	#0,r0
    5194:	10 07       	mov.l	r0,@(28,r0)
    5196:	90 04       	mov.w	51a2 <_sddrv_129i+0x51a2>,r0	! 14
    5198:	64 00       	mov.b	@r0,r4
    519a:	00 1c       	mov.b	@(r0,r1),r0
    519c:	06 00       	.word 0x0600
    519e:	00 80       	.word 0x0080
    51a0:	60 00       	mov.b	@r0,r0
    51a2:	00 14       	mov.b	r1,@(r0,r0)
    51a4:	1d 41       	mov.l	r4,@(4,r13)
    51a6:	00 2a       	sts	pr,r0
    51a8:	70 00       	add	#0,r0
    51aa:	10 04       	mov.l	r0,@(16,r0)
    51ac:	90 07       	mov.w	51be <_sddrv_129i+0x51be>,r0	! 1d43
    51ae:	64 00       	mov.b	@r0,r4
    51b0:	00 06       	mov.l	r0,@(r0,r0)
    51b2:	06 00       	.word 0x0600
    51b4:	00 80       	.word 0x0080
    51b6:	1d 40       	mov.l	r4,@(0,r13)
    51b8:	00 24       	mov.b	r2,@(r0,r0)
    51ba:	1d 42       	mov.l	r4,@(8,r13)
    51bc:	00 0c       	mov.b	@(r0,r0),r0
    51be:	1d 43       	mov.l	r4,@(12,r13)
    51c0:	00 0e       	mov.l	@(r0,r0),r0
    51c2:	1d 44       	mov.l	r4,@(16,r13)
    51c4:	00 10       	.word 0x0010
    51c6:	4e 75       	.word 0x4e75
    51c8:	45 f9       	.word 0x45f9
    51ca:	00 10       	.word 0x0010
    51cc:	00 00       	.word 0x0000
    51ce:	23 ca       	xor	r12,r3
    51d0:	00 f3       	.word 0x00f3
    51d2:	fc 30       	fadd	fr3,fr12
    51d4:	49 ea       	.word 0x49ea
    51d6:	07 00       	.word 0x0700
    51d8:	47 ea       	.word 0x47ea
    51da:	07 80       	.word 0x0780
    51dc:	24 78       	tst	r7,r4
    51de:	04 12       	stc	gbr,r4
    51e0:	70 00       	add	#0,r0
    51e2:	10 2a       	mov.l	r2,@(40,r0)
    51e4:	00 06       	mov.l	r0,@(r0,r0)
    51e6:	d9 c0       	mov.l	54e8 <_sddrv_129i+0x54e8>,r9	! 3040404
    51e8:	10 2a       	mov.l	r2,@(40,r0)
    51ea:	00 07       	mul.l	r0,r0
    51ec:	d7 c0       	mov.l	54f0 <_sddrv_129i+0x54f0>,r7	! 5050506
    51ee:	08 ae       	mov.l	@(r0,r10),r8
    51f0:	00 00       	.word 0x0000
    51f2:	00 2c       	mov.b	@(r0,r2),r0
    51f4:	ba 02       	bsr	45fc <_sddrv_129i+0x45fc>
    51f6:	67 00       	mov.b	@r0,r7
    51f8:	00 20       	.word 0x0020
    51fa:	10 2e       	mov.l	r2,@(56,r0)
    51fc:	00 06       	mov.l	r0,@(r0,r0)
    51fe:	12 2e       	mov.l	r2,@(56,r2)
    5200:	00 26       	mov.l	r2,@(r0,r0)
    5202:	08 ee       	mov.l	@(r0,r14),r8
    5204:	00 00       	.word 0x0000
    5206:	00 2c       	mov.b	@(r0,r2),r0
    5208:	da 00       	mov.l	520c <_sddrv_129i+0x520c>,r10	! 206200
    520a:	93 2e       	mov.w	526a <_sddrv_129i+0x526a>,r3	! 4
    520c:	00 20       	.word 0x0020
    520e:	62 00       	mov.b	@r0,r2
    5210:	00 04       	mov.b	r0,@(r0,r0)
    5212:	1a 02       	mov.l	r0,@(8,r10)
    5214:	02 05       	mov.w	r0,@(r0,r2)
    5216:	00 7f       	mac.l	@r7+,@r0+
    5218:	bc 03       	bsr	4a22 <_sddrv_129i+0x4a22>
    521a:	67 00       	mov.b	@r0,r7
    521c:	00 20       	.word 0x0020
    521e:	10 2e       	mov.l	r2,@(56,r0)
    5220:	00 08       	clrt	
    5222:	12 2e       	mov.l	r2,@(56,r2)
    5224:	00 28       	clrmac	
    5226:	08 ee       	mov.l	@(r0,r14),r8
    5228:	00 00       	.word 0x0000
    522a:	00 2c       	mov.b	@(r0,r2),r0
    522c:	dc 00       	mov.l	5230 <_sddrv_129i+0x5230>,r12	! 226200
    522e:	93 2e       	mov.w	528e <_sddrv_129i+0x528e>,r3	! 7574
    5230:	00 22       	stc	vbr,r0
    5232:	62 00       	mov.b	@r0,r2
    5234:	00 04       	mov.b	r0,@(r0,r0)
    5236:	1c 03       	mov.l	r0,@(12,r12)
    5238:	02 06       	mov.l	r0,@(r0,r2)
    523a:	00 7f       	mac.l	@r7+,@r0+
    523c:	be 04       	bsr	4e48 <_sddrv_129i+0x4e48>
    523e:	67 00       	mov.b	@r0,r7
    5240:	00 20       	.word 0x0020
    5242:	10 2e       	mov.l	r2,@(56,r0)
    5244:	00 0a       	sts	mach,r0
    5246:	12 2e       	mov.l	r2,@(56,r2)
    5248:	00 2a       	sts	pr,r0
    524a:	08 ee       	mov.l	@(r0,r14),r8
    524c:	00 00       	.word 0x0000
    524e:	00 2c       	mov.b	@(r0,r2),r0
    5250:	de 00       	mov.l	5254 <_sddrv_129i+0x5254>,r14	! 246200
    5252:	93 2e       	mov.w	52b2 <_sddrv_129i+0x52b2>,r3	! 5150
    5254:	00 24       	mov.b	r2,@(r0,r0)
    5256:	62 00       	mov.b	@r0,r2
    5258:	00 04       	mov.b	r0,@(r0,r0)
    525a:	1e 04       	mov.l	r0,@(16,r14)
    525c:	02 07       	mul.l	r0,r2
    525e:	00 7f       	mac.l	@r7+,@r0+
    5260:	1d 45       	mov.l	r4,@(20,r13)
    5262:	00 00       	.word 0x0000
    5264:	1d 46       	mov.l	r4,@(24,r13)
    5266:	00 02       	stc	sr,r0
    5268:	1d 47       	mov.l	r4,@(28,r13)
    526a:	00 04       	mov.b	r0,@(r0,r0)
    526c:	20 7c       	cmp/str	r7,r0
    526e:	00 00       	.word 0x0000
    5270:	00 00       	.word 0x0000
    5272:	70 00       	add	#0,r0
    5274:	30 45       	dmulu.l	r4,r0
    5276:	10 3b       	mov.l	r3,@(44,r0)
    5278:	80 0c       	mov.b	r0,@(12,r0)
    527a:	e1 48       	mov	#72,r1
    527c:	39 40       	cmp/eq	r4,r9
    527e:	00 5a       	sts	fpul,r0
    5280:	60 00       	mov.b	@r0,r0
    5282:	00 82       	stc	r0_bank,r0
    5284:	7f 7e       	add	#126,r15
    5286:	7d 7c       	add	#124,r13
    5288:	7b 7a       	add	#122,r11
    528a:	79 78       	add	#120,r9
    528c:	77 76       	add	#118,r7
    528e:	75 74       	add	#116,r5
    5290:	73 72       	add	#114,r3
    5292:	71 70       	add	#112,r1
    5294:	6f 6e       	exts.b	r6,r15
    5296:	6d 6c       	extu.b	r6,r13
    5298:	6b 6a       	negc	r6,r11
    529a:	69 68       	swap.b	r6,r9
    529c:	67 66       	mov.l	@r6+,r7
    529e:	65 64       	mov.b	@r6+,r5
    52a0:	63 62       	mov.l	@r6,r3
    52a2:	61 60       	mov.b	@r6,r1
    52a4:	5f 5e       	mov.l	@(56,r5),r15
    52a6:	5d 5c       	mov.l	@(48,r5),r13
    52a8:	5b 5a       	mov.l	@(40,r5),r11
    52aa:	59 58       	mov.l	@(32,r5),r9
    52ac:	57 56       	mov.l	@(24,r5),r7
    52ae:	55 54       	mov.l	@(16,r5),r5
    52b0:	53 52       	mov.l	@(8,r5),r3
    52b2:	51 50       	mov.l	@(0,r5),r1
    52b4:	4f 4e       	ldc	r15,spc
    52b6:	4d 4c       	shad	r4,r13
    52b8:	4b 4a       	.word 0x4b4a
    52ba:	49 48       	.word 0x4948
    52bc:	47 46       	.word 0x4746
    52be:	45 44       	.word 0x4544
    52c0:	43 42       	.word 0x4342
    52c2:	41 40       	.word 0x4140
    52c4:	3f 3e       	addc	r3,r15
    52c6:	3d 3c       	add	r3,r13
    52c8:	3b 3a       	subc	r3,r11
    52ca:	39 38       	sub	r3,r9
    52cc:	37 36       	cmp/hi	r3,r7
    52ce:	35 34       	div1	r3,r5
    52d0:	33 32       	cmp/hs	r3,r3
    52d2:	31 30       	cmp/eq	r3,r1
    52d4:	2f 2e       	mulu.w	r2,r15
    52d6:	2d 2c       	cmp/str	r2,r13
    52d8:	2b 2a       	xor	r2,r11
    52da:	29 28       	tst	r2,r9
    52dc:	27 26       	mov.l	r2,@-r7
    52de:	25 24       	mov.b	r2,@-r5
    52e0:	23 22       	mov.l	r2,@r3
    52e2:	21 20       	mov.b	r2,@r1
    52e4:	1f 1e       	mov.l	r1,@(56,r15)
    52e6:	1d 1c       	mov.l	r1,@(48,r13)
    52e8:	1b 1a       	mov.l	r1,@(40,r11)
    52ea:	19 18       	mov.l	r1,@(32,r9)
    52ec:	17 16       	mov.l	r1,@(24,r7)
    52ee:	15 14       	mov.l	r1,@(16,r5)
    52f0:	13 12       	mov.l	r1,@(8,r3)
    52f2:	11 10       	mov.l	r1,@(0,r1)
    52f4:	0f 0e       	mov.l	@(r0,r0),r15
    52f6:	0d 0c       	mov.b	@(r0,r0),r13
    52f8:	0b 0a       	sts	mach,r11
    52fa:	09 08       	.word 0x0908
    52fc:	07 06       	mov.l	r0,@(r0,r7)
    52fe:	05 04       	mov.b	r0,@(r0,r5)
    5300:	03 02       	stc	sr,r3
    5302:	01 00       	.word 0x0100
    5304:	32 07       	cmp/gt	r0,r2
    5306:	08 07       	mul.l	r0,r8
    5308:	00 06       	mov.l	r0,@(r0,r0)
    530a:	67 00       	mov.b	@r0,r7
    530c:	00 08       	clrt	
    530e:	12 3c       	mov.l	r3,@(48,r2)
    5310:	00 80       	.word 0x0080
    5312:	92 07       	mov.w	5324 <_sddrv_129i+0x5324>,r2	! 4a
    5314:	70 00       	add	#0,r0
    5316:	30 41       	.word 0x3041
    5318:	10 3b       	mov.l	r3,@(44,r0)
    531a:	80 0c       	mov.b	r0,@(12,r0)
    531c:	e1 48       	mov	#72,r1
    531e:	39 40       	cmp/eq	r4,r9
    5320:	00 4c       	mov.b	@(r0,r4),r0
    5322:	60 00       	mov.b	@r0,r0
    5324:	00 4a       	.word 0x004a
    5326:	9f a0       	mov.w	546a <_sddrv_129i+0x546a>,r15	! 202
    5328:	a1 a2       	bra	5670 <_sddrv_129i+0x5670>
    532a:	a3 a4       	bra	5a76 <_sddrv_129i+0x5a76>
    532c:	a5 a6       	bra	5e7c <_sizeof_129i+0x29c>
    532e:	a7 a8       	bra	6282 <_sizeof_129i+0x6a2>
    5330:	a9 aa       	bra	4688 <_sddrv_129i+0x4688>
    5332:	ab ac       	bra	4a8e <_sddrv_129i+0x4a8e>
    5334:	ad ae       	bra	4e94 <_sddrv_129i+0x4e94>
    5336:	af b1       	bra	529c <_sddrv_129i+0x529c>
    5338:	b2 b3       	bsr	58a2 <_sddrv_129i+0x58a2>
    533a:	b4 b5       	bsr	5ca8 <_sizeof_129i+0xc8>
    533c:	b6 b7       	bsr	60ae <_sizeof_129i+0x4ce>
    533e:	b8 b9       	bsr	44b4 <_sddrv_129i+0x44b4>
    5340:	ba bb       	bsr	48ba <_sddrv_129i+0x48ba>
    5342:	bc bd       	bsr	4cc0 <_sddrv_129i+0x4cc0>
    5344:	be bf       	bsr	50c6 <_sddrv_129i+0x50c6>
    5346:	c0 c3       	mov.b	r0,@(195,gbr)
    5348:	c6 c9       	mov.l	@(804,gbr),r0
    534a:	cc cf       	tst.b	#-49,@(r0,gbr)
    534c:	d2 d5       	mov.l	56a4 <_sddrv_129i+0x56a4>,r2	! f0f0f0f
    534e:	d8 db       	mov.l	56bc <_sddrv_129i+0x56bc>,r8	! c0c0d0d
    5350:	de e1       	mov.l	56d8 <_sddrv_129i+0x56d8>,r14	! 90a0a0b
    5352:	e4 e7       	mov	#-25,r4
    5354:	ea ed       	mov	#-19,r10
    5356:	f0 f3       	fdiv	fr15,fr0
    5358:	f6 f9       	fmov	@r15+,fr6
    535a:	fc ff       	.word 0xfcff
    535c:	02 05       	mov.w	r0,@(r0,r2)
    535e:	08 0b       	.word 0x080b
    5360:	0e 11       	.word 0x0e11
    5362:	14 17       	mov.l	r1,@(28,r4)
    5364:	1a 1d       	mov.l	r1,@(52,r10)
    5366:	20 00       	mov.b	r0,@r0
    5368:	00 00       	.word 0x0000
    536a:	00 00       	.word 0x0000
    536c:	00 00       	.word 0x0000
    536e:	10 07       	mov.l	r0,@(28,r0)
    5370:	08 07       	mul.l	r0,r8
    5372:	00 06       	mov.l	r0,@(r0,r0)
    5374:	67 00       	mov.b	@r0,r7
    5376:	00 08       	clrt	
    5378:	10 3c       	mov.l	r3,@(48,r0)
    537a:	00 80       	.word 0x0080
    537c:	90 07       	mov.w	538e <_sddrv_129i+0x538e>,r0	! 383c
    537e:	78 00       	add	#0,r8
    5380:	18 00       	mov.l	r0,@(0,r8)
    5382:	02 44       	mov.b	r4,@(r0,r2)
    5384:	00 3f       	mac.l	@r3+,@r0+
    5386:	08 04       	mov.b	r0,@(r0,r8)
    5388:	00 05       	mov.w	r0,@(r0,r0)
    538a:	67 00       	mov.b	@r0,r7
    538c:	00 08       	clrt	
    538e:	38 3c       	add	r3,r8
    5390:	00 40       	.word 0x0040
    5392:	98 00       	mov.w	5396 <_sddrv_129i+0x5396>,r8	! 806
    5394:	10 06       	mov.l	r0,@(24,r0)
    5396:	08 06       	mov.l	r0,@(r0,r8)
    5398:	00 06       	mov.l	r0,@(r0,r0)
    539a:	67 00       	mov.b	@r0,r7
    539c:	00 08       	clrt	
    539e:	10 3c       	mov.l	r3,@(48,r0)
    53a0:	00 80       	.word 0x0080
    53a2:	90 06       	mov.w	53b2 <_sddrv_129i+0x53b2>,r0	! 8
    53a4:	72 00       	add	#0,r2
    53a6:	12 00       	mov.l	r0,@(0,r2)
    53a8:	02 41       	.word 0x0241
    53aa:	00 3f       	mac.l	@r3+,@r0+
    53ac:	08 01       	.word 0x0801
    53ae:	00 05       	mov.w	r0,@(r0,r0)
    53b0:	67 00       	mov.b	@r0,r7
    53b2:	00 08       	clrt	
    53b4:	12 3c       	mov.l	r3,@(48,r2)
    53b6:	00 40       	.word 0x0040
    53b8:	92 00       	mov.w	53bc <_sddrv_129i+0x53bc>,r2	! eb49
    53ba:	30 01       	.word 0x3001
    53bc:	eb 49       	mov	#73,r11
    53be:	d2 40       	mov.l	54c0 <_sddrv_129i+0x54c0>,r2	! 1010202
    53c0:	d2 44       	mov.l	54d4 <_sddrv_129i+0x54d4>,r2	! 5050505
    53c2:	70 00       	add	#0,r0
    53c4:	30 41       	.word 0x3041
    53c6:	10 3b       	mov.l	r3,@(44,r0)
    53c8:	80 2e       	mov.b	r0,@(14,r2)
    53ca:	08 06       	mov.l	r0,@(r0,r8)
    53cc:	00 06       	mov.l	r0,@(r0,r0)
    53ce:	67 00       	mov.b	@r0,r7
    53d0:	00 14       	mov.b	r1,@(r0,r0)
    53d2:	d0 6b       	mov.l	5580 <_sddrv_129i+0x5580>,r0	! a0a0001
    53d4:	00 00       	.word 0x0000
    53d6:	37 40       	cmp/eq	r4,r7
    53d8:	00 08       	clrt	
    53da:	37 6b       	subv	r6,r7
    53dc:	00 02       	stc	sr,r0
    53de:	00 0a       	sts	mach,r0
    53e0:	60 00       	mov.b	@r0,r0
    53e2:	04 7e       	mov.l	@(r0,r7),r4
    53e4:	d0 6b       	mov.l	5594 <_sddrv_129i+0x5594>,r0	! 8080909
    53e6:	00 02       	stc	sr,r0
    53e8:	37 6b       	subv	r6,r7
    53ea:	00 00       	.word 0x0000
    53ec:	00 08       	clrt	
    53ee:	37 40       	cmp/eq	r4,r7
    53f0:	00 0a       	sts	mach,r0
    53f2:	60 00       	mov.b	@r0,r0
    53f4:	04 6c       	mov.b	@(r0,r6),r4
	...
    5422:	00 01       	.word 0x0001
    5424:	01 01       	.word 0x0101
    5426:	01 01       	.word 0x0101
    5428:	01 01       	.word 0x0101
    542a:	01 01       	.word 0x0101
    542c:	01 01       	.word 0x0101
    542e:	01 01       	.word 0x0101
    5430:	01 01       	.word 0x0101
    5432:	01 01       	.word 0x0101
    5434:	01 01       	.word 0x0101
    5436:	01 01       	.word 0x0101
    5438:	00 00       	.word 0x0000
    543a:	00 00       	.word 0x0000
    543c:	00 00       	.word 0x0000
    543e:	01 01       	.word 0x0101
    5440:	01 01       	.word 0x0101
    5442:	01 01       	.word 0x0101
    5444:	01 01       	.word 0x0101
    5446:	01 01       	.word 0x0101
    5448:	01 01       	.word 0x0101
    544a:	01 01       	.word 0x0101
    544c:	02 02       	stc	sr,r2
    544e:	02 02       	stc	sr,r2
    5450:	02 02       	stc	sr,r2
    5452:	02 02       	stc	sr,r2
    5454:	02 02       	stc	sr,r2
    5456:	02 02       	stc	sr,r2
    5458:	02 00       	.word 0x0200
    545a:	00 00       	.word 0x0000
    545c:	00 01       	.word 0x0001
    545e:	01 01       	.word 0x0101
    5460:	01 01       	.word 0x0101
    5462:	01 01       	.word 0x0101
    5464:	01 02       	stc	sr,r1
    5466:	02 02       	stc	sr,r2
    5468:	02 02       	stc	sr,r2
    546a:	02 02       	stc	sr,r2
    546c:	02 02       	stc	sr,r2
    546e:	02 02       	stc	sr,r2
    5470:	02 03       	bsrf	r2
    5472:	03 03       	bsrf	r3
    5474:	03 03       	bsrf	r3
    5476:	03 03       	bsrf	r3
    5478:	03 03       	bsrf	r3
    547a:	00 00       	.word 0x0000
    547c:	00 01       	.word 0x0001
    547e:	01 01       	.word 0x0101
    5480:	01 01       	.word 0x0101
    5482:	01 02       	stc	sr,r1
    5484:	02 02       	stc	sr,r2
    5486:	02 02       	stc	sr,r2
    5488:	02 02       	stc	sr,r2
    548a:	03 03       	bsrf	r3
    548c:	03 03       	bsrf	r3
    548e:	03 03       	bsrf	r3
    5490:	03 03       	bsrf	r3
    5492:	03 03       	bsrf	r3
    5494:	03 04       	mov.b	r0,@(r0,r3)
    5496:	04 04       	mov.b	r0,@(r0,r4)
    5498:	04 04       	mov.b	r0,@(r0,r4)
    549a:	04 00       	.word 0x0400
    549c:	00 00       	.word 0x0000
    549e:	01 01       	.word 0x0101
    54a0:	01 01       	.word 0x0101
    54a2:	02 02       	stc	sr,r2
    54a4:	02 02       	stc	sr,r2
    54a6:	02 03       	bsrf	r2
    54a8:	03 03       	bsrf	r3
    54aa:	03 03       	bsrf	r3
    54ac:	03 04       	mov.b	r0,@(r0,r3)
    54ae:	04 04       	mov.b	r0,@(r0,r4)
    54b0:	04 04       	mov.b	r0,@(r0,r4)
    54b2:	04 04       	mov.b	r0,@(r0,r4)
    54b4:	04 04       	mov.b	r0,@(r0,r4)
    54b6:	04 04       	mov.b	r0,@(r0,r4)
    54b8:	04 05       	mov.w	r0,@(r0,r4)
    54ba:	05 05       	mov.w	r0,@(r0,r5)
    54bc:	00 00       	.word 0x0000
    54be:	01 01       	.word 0x0101
    54c0:	01 01       	.word 0x0101
    54c2:	02 02       	stc	sr,r2
    54c4:	02 02       	stc	sr,r2
    54c6:	03 03       	bsrf	r3
    54c8:	03 03       	bsrf	r3
    54ca:	03 04       	mov.b	r0,@(r0,r3)
    54cc:	04 04       	mov.b	r0,@(r0,r4)
    54ce:	04 04       	mov.b	r0,@(r0,r4)
    54d0:	05 05       	mov.w	r0,@(r0,r5)
    54d2:	05 05       	mov.w	r0,@(r0,r5)
    54d4:	05 05       	mov.w	r0,@(r0,r5)
    54d6:	05 05       	mov.w	r0,@(r0,r5)
    54d8:	05 05       	mov.w	r0,@(r0,r5)
    54da:	05 05       	mov.w	r0,@(r0,r5)
    54dc:	05 00       	.word 0x0500
    54de:	00 01       	.word 0x0001
    54e0:	01 01       	.word 0x0101
    54e2:	02 02       	stc	sr,r2
    54e4:	02 02       	stc	sr,r2
    54e6:	03 03       	bsrf	r3
    54e8:	03 04       	mov.b	r0,@(r0,r3)
    54ea:	04 04       	mov.b	r0,@(r0,r4)
    54ec:	04 04       	mov.b	r0,@(r0,r4)
    54ee:	05 05       	mov.w	r0,@(r0,r5)
    54f0:	05 05       	mov.w	r0,@(r0,r5)
    54f2:	05 06       	mov.l	r0,@(r0,r5)
    54f4:	06 06       	mov.l	r0,@(r0,r6)
    54f6:	06 06       	mov.l	r0,@(r0,r6)
    54f8:	06 06       	mov.l	r0,@(r0,r6)
    54fa:	06 06       	mov.l	r0,@(r0,r6)
    54fc:	06 06       	mov.l	r0,@(r0,r6)
    54fe:	00 00       	.word 0x0000
    5500:	01 01       	.word 0x0101
    5502:	01 02       	stc	sr,r1
    5504:	02 02       	stc	sr,r2
    5506:	03 03       	bsrf	r3
    5508:	03 04       	mov.b	r0,@(r0,r3)
    550a:	04 04       	mov.b	r0,@(r0,r4)
    550c:	05 05       	mov.w	r0,@(r0,r5)
    550e:	05 05       	mov.w	r0,@(r0,r5)
    5510:	06 06       	mov.l	r0,@(r0,r6)
    5512:	06 06       	mov.l	r0,@(r0,r6)
    5514:	06 06       	mov.l	r0,@(r0,r6)
    5516:	07 07       	mul.l	r0,r7
    5518:	07 07       	mul.l	r0,r7
    551a:	07 07       	mul.l	r0,r7
    551c:	07 07       	mul.l	r0,r7
    551e:	07 00       	.word 0x0700
    5520:	00 01       	.word 0x0001
    5522:	01 02       	stc	sr,r1
    5524:	02 02       	stc	sr,r2
    5526:	03 03       	bsrf	r3
    5528:	03 04       	mov.b	r0,@(r0,r3)
    552a:	04 04       	mov.b	r0,@(r0,r4)
    552c:	05 05       	mov.w	r0,@(r0,r5)
    552e:	05 06       	mov.l	r0,@(r0,r5)
    5530:	06 06       	mov.l	r0,@(r0,r6)
    5532:	06 07       	mul.l	r0,r6
    5534:	07 07       	mul.l	r0,r7
    5536:	07 07       	mul.l	r0,r7
    5538:	08 08       	.word 0x0808
    553a:	08 08       	.word 0x0808
    553c:	08 08       	.word 0x0808
    553e:	08 08       	.word 0x0808
    5540:	00 00       	.word 0x0000
    5542:	01 01       	.word 0x0101
    5544:	02 02       	stc	sr,r2
    5546:	03 03       	bsrf	r3
    5548:	03 04       	mov.b	r0,@(r0,r3)
    554a:	04 05       	mov.w	r0,@(r0,r4)
    554c:	05 05       	mov.w	r0,@(r0,r5)
    554e:	06 06       	mov.l	r0,@(r0,r6)
    5550:	06 07       	mul.l	r0,r6
    5552:	07 07       	mul.l	r0,r7
    5554:	07 08       	.word 0x0708
    5556:	08 08       	.word 0x0808
    5558:	08 08       	.word 0x0808
    555a:	08 09       	.word 0x0809
    555c:	09 09       	.word 0x0909
    555e:	09 09       	.word 0x0909
    5560:	09 00       	.word 0x0900
    5562:	00 01       	.word 0x0001
    5564:	01 02       	stc	sr,r1
    5566:	02 03       	bsrf	r2
    5568:	03 04       	mov.b	r0,@(r0,r3)
    556a:	04 05       	mov.w	r0,@(r0,r4)
    556c:	05 05       	mov.w	r0,@(r0,r5)
    556e:	06 06       	mov.l	r0,@(r0,r6)
    5570:	06 07       	mul.l	r0,r6
    5572:	07 07       	mul.l	r0,r7
    5574:	08 08       	.word 0x0808
    5576:	08 08       	.word 0x0808
    5578:	09 09       	.word 0x0909
    557a:	09 09       	.word 0x0909
    557c:	09 09       	.word 0x0909
    557e:	0a 0a       	sts	mach,r10
    5580:	0a 0a       	sts	mach,r10
    5582:	00 01       	.word 0x0001
    5584:	01 02       	stc	sr,r1
    5586:	02 03       	bsrf	r2
    5588:	03 04       	mov.b	r0,@(r0,r3)
    558a:	04 04       	mov.b	r0,@(r0,r4)
    558c:	05 05       	mov.w	r0,@(r0,r5)
    558e:	06 06       	mov.l	r0,@(r0,r6)
    5590:	07 07       	mul.l	r0,r7
    5592:	07 08       	.word 0x0708
    5594:	08 08       	.word 0x0808
    5596:	09 09       	.word 0x0909
    5598:	09 09       	.word 0x0909
    559a:	0a 0a       	sts	mach,r10
    559c:	0a 0a       	sts	mach,r10
    559e:	0a 0a       	sts	mach,r10
    55a0:	0a 0a       	sts	mach,r10
    55a2:	0a 00       	.word 0x0a00
    55a4:	01 01       	.word 0x0101
    55a6:	02 02       	stc	sr,r2
    55a8:	03 03       	bsrf	r3
    55aa:	04 04       	mov.b	r0,@(r0,r4)
    55ac:	05 05       	mov.w	r0,@(r0,r5)
    55ae:	06 06       	mov.l	r0,@(r0,r6)
    55b0:	07 07       	mul.l	r0,r7
    55b2:	07 08       	.word 0x0708
    55b4:	08 09       	.word 0x0809
    55b6:	09 09       	.word 0x0909
    55b8:	0a 0a       	sts	mach,r10
    55ba:	0a 0a       	sts	mach,r10
    55bc:	0a 0b       	.word 0x0a0b
    55be:	0b 0b       	.word 0x0b0b
    55c0:	0b 0b       	.word 0x0b0b
    55c2:	0b 0b       	.word 0x0b0b
    55c4:	00 01       	.word 0x0001
    55c6:	01 02       	stc	sr,r1
    55c8:	02 03       	bsrf	r2
    55ca:	03 04       	mov.b	r0,@(r0,r3)
    55cc:	05 05       	mov.w	r0,@(r0,r5)
    55ce:	06 06       	mov.l	r0,@(r0,r6)
    55d0:	07 07       	mul.l	r0,r7
    55d2:	08 08       	.word 0x0808
    55d4:	08 09       	.word 0x0809
    55d6:	09 0a       	sts	mach,r9
    55d8:	0a 0a       	sts	mach,r10
    55da:	0a 0b       	.word 0x0a0b
    55dc:	0b 0b       	.word 0x0b0b
    55de:	0b 0c       	mov.b	@(r0,r0),r11
    55e0:	0c 0c       	mov.b	@(r0,r0),r12
    55e2:	0c 0c       	mov.b	@(r0,r0),r12
    55e4:	0c 00       	.word 0x0c00
    55e6:	01 01       	.word 0x0101
    55e8:	02 02       	stc	sr,r2
    55ea:	03 04       	mov.b	r0,@(r0,r3)
    55ec:	04 05       	mov.w	r0,@(r0,r4)
    55ee:	05 06       	mov.l	r0,@(r0,r5)
    55f0:	06 07       	mul.l	r0,r6
    55f2:	07 08       	.word 0x0708
    55f4:	08 09       	.word 0x0809
    55f6:	09 0a       	sts	mach,r9
    55f8:	0a 0a       	sts	mach,r10
    55fa:	0b 0b       	.word 0x0b0b
    55fc:	0b 0c       	mov.b	@(r0,r0),r11
    55fe:	0c 0c       	mov.b	@(r0,r0),r12
    5600:	0c 0c       	mov.b	@(r0,r0),r12
    5602:	0c 0d       	mov.w	@(r0,r0),r12
    5604:	0d 0d       	mov.w	@(r0,r0),r13
    5606:	00 01       	.word 0x0001
    5608:	01 02       	stc	sr,r1
    560a:	03 03       	bsrf	r3
    560c:	04 04       	mov.b	r0,@(r0,r4)
    560e:	05 06       	mov.l	r0,@(r0,r5)
    5610:	06 07       	mul.l	r0,r6
    5612:	07 08       	.word 0x0708
    5614:	08 09       	.word 0x0809
    5616:	09 0a       	sts	mach,r9
    5618:	0a 0b       	.word 0x0a0b
    561a:	0b 0b       	.word 0x0b0b
    561c:	0c 0c       	mov.b	@(r0,r0),r12
    561e:	0c 0c       	mov.b	@(r0,r0),r12
    5620:	0d 0d       	mov.w	@(r0,r0),r13
    5622:	0d 0d       	mov.w	@(r0,r0),r13
    5624:	0d 0d       	mov.w	@(r0,r0),r13
    5626:	0d 00       	.word 0x0d00
    5628:	01 01       	.word 0x0101
    562a:	02 03       	bsrf	r2
    562c:	03 04       	mov.b	r0,@(r0,r3)
    562e:	05 05       	mov.w	r0,@(r0,r5)
    5630:	06 07       	mul.l	r0,r6
    5632:	07 08       	.word 0x0708
    5634:	08 09       	.word 0x0809
    5636:	09 0a       	sts	mach,r9
    5638:	0a 0b       	.word 0x0a0b
    563a:	0b 0c       	mov.b	@(r0,r0),r11
    563c:	0c 0c       	mov.b	@(r0,r0),r12
    563e:	0d 0d       	mov.w	@(r0,r0),r13
    5640:	0d 0d       	mov.w	@(r0,r0),r13
    5642:	0d 0e       	mov.l	@(r0,r0),r13
    5644:	0e 0e       	mov.l	@(r0,r0),r14
    5646:	0e 0e       	mov.l	@(r0,r0),r14
    5648:	00 01       	.word 0x0001
    564a:	01 02       	stc	sr,r1
    564c:	03 04       	mov.b	r0,@(r0,r3)
    564e:	04 05       	mov.w	r0,@(r0,r4)
    5650:	06 06       	mov.l	r0,@(r0,r6)
    5652:	07 07       	mul.l	r0,r7
    5654:	08 09       	.word 0x0809
    5656:	09 0a       	sts	mach,r9
    5658:	0a 0b       	.word 0x0a0b
    565a:	0b 0c       	mov.b	@(r0,r0),r11
    565c:	0c 0c       	mov.b	@(r0,r0),r12
    565e:	0d 0d       	mov.w	@(r0,r0),r13
    5660:	0d 0e       	mov.l	@(r0,r0),r13
    5662:	0e 0e       	mov.l	@(r0,r0),r14
    5664:	0e 0e       	mov.l	@(r0,r0),r14
    5666:	0e 0e       	mov.l	@(r0,r0),r14
    5668:	0e 00       	.word 0x0e00
    566a:	01 01       	.word 0x0101
    566c:	02 03       	bsrf	r2
    566e:	04 04       	mov.b	r0,@(r0,r4)
    5670:	05 06       	mov.l	r0,@(r0,r5)
    5672:	06 07       	mul.l	r0,r6
    5674:	08 08       	.word 0x0808
    5676:	09 0a       	sts	mach,r9
    5678:	0a 0b       	.word 0x0a0b
    567a:	0b 0c       	mov.b	@(r0,r0),r11
    567c:	0c 0c       	mov.b	@(r0,r0),r12
    567e:	0d 0d       	mov.w	@(r0,r0),r13
    5680:	0e 0e       	mov.l	@(r0,r0),r14
    5682:	0e 0e       	mov.l	@(r0,r0),r14
    5684:	0f 0f       	mac.l	@r0+,@r15+
    5686:	0f 0f       	mac.l	@r0+,@r15+
    5688:	0f 0f       	mac.l	@r0+,@r15+
    568a:	00 01       	.word 0x0001
    568c:	02 02       	stc	sr,r2
    568e:	03 04       	mov.b	r0,@(r0,r3)
    5690:	05 05       	mov.w	r0,@(r0,r5)
    5692:	06 07       	mul.l	r0,r6
    5694:	07 08       	.word 0x0708
    5696:	09 09       	.word 0x0909
    5698:	0a 0a       	sts	mach,r10
    569a:	0b 0c       	mov.b	@(r0,r0),r11
    569c:	0c 0c       	mov.b	@(r0,r0),r12
    569e:	0d 0d       	mov.w	@(r0,r0),r13
    56a0:	0e 0e       	mov.l	@(r0,r0),r14
    56a2:	0e 0f       	mac.l	@r0+,@r14+
    56a4:	0f 0f       	mac.l	@r0+,@r15+
    56a6:	0f 0f       	mac.l	@r0+,@r15+
    56a8:	0f 10       	.word 0x0f10
    56aa:	10 00       	mov.l	r0,@(0,r0)
    56ac:	01 02       	stc	sr,r1
    56ae:	02 03       	bsrf	r2
    56b0:	04 05       	mov.w	r0,@(r0,r4)
    56b2:	05 06       	mov.l	r0,@(r0,r5)
    56b4:	07 08       	.word 0x0708
    56b6:	08 09       	.word 0x0809
    56b8:	0a 0a       	sts	mach,r10
    56ba:	0b 0b       	.word 0x0b0b
    56bc:	0c 0c       	mov.b	@(r0,r0),r12
    56be:	0d 0d       	mov.w	@(r0,r0),r13
    56c0:	0e 0e       	mov.l	@(r0,r0),r14
    56c2:	0f 0f       	mac.l	@r0+,@r15+
    56c4:	0f 0f       	mac.l	@r0+,@r15+
    56c6:	10 10       	mov.l	r1,@(0,r0)
    56c8:	10 10       	mov.l	r1,@(0,r0)
    56ca:	10 10       	mov.l	r1,@(0,r0)
    56cc:	00 01       	.word 0x0001
    56ce:	02 02       	stc	sr,r2
    56d0:	03 04       	mov.b	r0,@(r0,r3)
    56d2:	05 06       	mov.l	r0,@(r0,r5)
    56d4:	06 07       	mul.l	r0,r6
    56d6:	08 08       	.word 0x0808
    56d8:	09 0a       	sts	mach,r9
    56da:	0a 0b       	.word 0x0a0b
    56dc:	0c 0c       	mov.b	@(r0,r0),r12
    56de:	0d 0d       	mov.w	@(r0,r0),r13
    56e0:	0e 0e       	mov.l	@(r0,r0),r14
    56e2:	0f 0f       	mac.l	@r0+,@r15+
    56e4:	0f 10       	.word 0x0f10
    56e6:	10 10       	mov.l	r1,@(0,r0)
    56e8:	10 10       	mov.l	r1,@(0,r0)
    56ea:	10 10       	mov.l	r1,@(0,r0)
    56ec:	10 00       	mov.l	r0,@(0,r0)
    56ee:	01 02       	stc	sr,r1
    56f0:	02 03       	bsrf	r2
    56f2:	04 05       	mov.w	r0,@(r0,r4)
    56f4:	06 06       	mov.l	r0,@(r0,r6)
    56f6:	07 08       	.word 0x0708
    56f8:	09 09       	.word 0x0909
    56fa:	0a 0b       	.word 0x0a0b
    56fc:	0b 0c       	mov.b	@(r0,r0),r11
    56fe:	0d 0d       	mov.w	@(r0,r0),r13
    5700:	0e 0e       	mov.l	@(r0,r0),r14
    5702:	0f 0f       	mac.l	@r0+,@r15+
    5704:	0f 10       	.word 0x0f10
    5706:	10 10       	mov.l	r1,@(0,r0)
    5708:	10 11       	mov.l	r1,@(4,r0)
    570a:	11 11       	mov.l	r1,@(4,r1)
    570c:	11 11       	mov.l	r1,@(4,r1)
    570e:	00 01       	.word 0x0001
    5710:	02 03       	bsrf	r2
    5712:	03 04       	mov.b	r0,@(r0,r3)
    5714:	05 06       	mov.l	r0,@(r0,r5)
    5716:	07 07       	mul.l	r0,r7
    5718:	08 09       	.word 0x0809
    571a:	0a 0a       	sts	mach,r10
    571c:	0b 0c       	mov.b	@(r0,r0),r11
    571e:	0c 0d       	mov.w	@(r0,r0),r12
    5720:	0d 0e       	mov.l	@(r0,r0),r13
    5722:	0e 0f       	mac.l	@r0+,@r14+
    5724:	0f 10       	.word 0x0f10
    5726:	10 10       	mov.l	r1,@(0,r0)
    5728:	11 11       	mov.l	r1,@(4,r1)
    572a:	11 11       	mov.l	r1,@(4,r1)
    572c:	11 11       	mov.l	r1,@(4,r1)
    572e:	11 00       	mov.l	r0,@(0,r1)
    5730:	01 02       	stc	sr,r1
    5732:	03 03       	bsrf	r3
    5734:	04 05       	mov.w	r0,@(r0,r4)
    5736:	06 07       	mul.l	r0,r6
    5738:	08 08       	.word 0x0808
    573a:	09 0a       	sts	mach,r9
    573c:	0a 0b       	.word 0x0a0b
    573e:	0c 0c       	mov.b	@(r0,r0),r12
    5740:	0d 0e       	mov.l	@(r0,r0),r13
    5742:	0e 0f       	mac.l	@r0+,@r14+
    5744:	0f 10       	.word 0x0f10
    5746:	10 10       	mov.l	r1,@(0,r0)
    5748:	11 11       	mov.l	r1,@(4,r1)
    574a:	11 11       	mov.l	r1,@(4,r1)
    574c:	11 12       	mov.l	r1,@(8,r1)
    574e:	12 12       	mov.l	r1,@(8,r2)
    5750:	00 01       	.word 0x0001
    5752:	02 03       	bsrf	r2
    5754:	03 04       	mov.b	r0,@(r0,r3)
    5756:	05 06       	mov.l	r0,@(r0,r5)
    5758:	07 08       	.word 0x0708
    575a:	08 09       	.word 0x0809
    575c:	0a 0b       	.word 0x0a0b
    575e:	0b 0c       	mov.b	@(r0,r0),r11
    5760:	0d 0d       	mov.w	@(r0,r0),r13
    5762:	0e 0e       	mov.l	@(r0,r0),r14
    5764:	0f 0f       	mac.l	@r0+,@r15+
    5766:	10 10       	mov.l	r1,@(0,r0)
    5768:	11 11       	mov.l	r1,@(4,r1)
    576a:	11 11       	mov.l	r1,@(4,r1)
    576c:	12 12       	mov.l	r1,@(8,r2)
    576e:	12 12       	mov.l	r1,@(8,r2)
    5770:	12 00       	mov.l	r0,@(0,r2)
    5772:	01 02       	stc	sr,r1
    5774:	03 04       	mov.b	r0,@(r0,r3)
    5776:	04 05       	mov.w	r0,@(r0,r4)
    5778:	06 07       	mul.l	r0,r6
    577a:	08 09       	.word 0x0809
    577c:	09 0a       	sts	mach,r9
    577e:	0b 0c       	mov.b	@(r0,r0),r11
    5780:	0c 0d       	mov.w	@(r0,r0),r12
    5782:	0d 0e       	mov.l	@(r0,r0),r13
    5784:	0f 0f       	mac.l	@r0+,@r15+
    5786:	10 10       	mov.l	r1,@(0,r0)
    5788:	10 11       	mov.l	r1,@(4,r0)
    578a:	11 11       	mov.l	r1,@(4,r1)
    578c:	12 12       	mov.l	r1,@(8,r2)
    578e:	12 12       	mov.l	r1,@(8,r2)
    5790:	12 12       	mov.l	r1,@(8,r2)
    5792:	00 01       	.word 0x0001
    5794:	02 03       	bsrf	r2
    5796:	04 04       	mov.b	r0,@(r0,r4)
    5798:	05 06       	mov.l	r0,@(r0,r5)
    579a:	07 08       	.word 0x0708
    579c:	09 09       	.word 0x0909
    579e:	0a 0b       	.word 0x0a0b
    57a0:	0c 0c       	mov.b	@(r0,r0),r12
    57a2:	0d 0e       	mov.l	@(r0,r0),r13
    57a4:	0e 0f       	mac.l	@r0+,@r14+
    57a6:	0f 10       	.word 0x0f10
    57a8:	10 11       	mov.l	r1,@(4,r0)
    57aa:	11 11       	mov.l	r1,@(4,r1)
    57ac:	12 12       	mov.l	r1,@(8,r2)
    57ae:	12 12       	mov.l	r1,@(8,r2)
    57b0:	12 12       	mov.l	r1,@(8,r2)
    57b2:	12 00       	mov.l	r0,@(0,r2)
    57b4:	01 02       	stc	sr,r1
    57b6:	03 04       	mov.b	r0,@(r0,r3)
    57b8:	04 05       	mov.w	r0,@(r0,r4)
    57ba:	06 07       	mul.l	r0,r6
    57bc:	08 09       	.word 0x0809
    57be:	0a 0a       	sts	mach,r10
    57c0:	0b 0c       	mov.b	@(r0,r0),r11
    57c2:	0c 0d       	mov.w	@(r0,r0),r12
    57c4:	0e 0e       	mov.l	@(r0,r0),r14
    57c6:	0f 0f       	mac.l	@r0+,@r15+
    57c8:	10 10       	mov.l	r1,@(0,r0)
    57ca:	11 11       	mov.l	r1,@(4,r1)
    57cc:	11 12       	mov.l	r1,@(8,r1)
    57ce:	12 12       	mov.l	r1,@(8,r2)
    57d0:	12 12       	mov.l	r1,@(8,r2)
    57d2:	12 13       	mov.l	r1,@(12,r2)
    57d4:	00 01       	.word 0x0001
    57d6:	02 03       	bsrf	r2
    57d8:	04 05       	mov.w	r0,@(r0,r4)
    57da:	05 06       	mov.l	r0,@(r0,r5)
    57dc:	07 08       	.word 0x0708
    57de:	09 0a       	sts	mach,r9
    57e0:	0a 0b       	.word 0x0a0b
    57e2:	0c 0d       	mov.w	@(r0,r0),r12
    57e4:	0d 0e       	mov.l	@(r0,r0),r13
    57e6:	0e 0f       	mac.l	@r0+,@r14+
    57e8:	0f 10       	.word 0x0f10
    57ea:	10 11       	mov.l	r1,@(4,r0)
    57ec:	11 12       	mov.l	r1,@(8,r1)
    57ee:	12 12       	mov.l	r1,@(8,r2)
    57f0:	12 12       	mov.l	r1,@(8,r2)
    57f2:	13 13       	mov.l	r1,@(12,r3)
    57f4:	13 00       	mov.l	r0,@(0,r3)
    57f6:	01 02       	stc	sr,r1
    57f8:	03 04       	mov.b	r0,@(r0,r3)
    57fa:	05 05       	mov.w	r0,@(r0,r5)
    57fc:	06 07       	mul.l	r0,r6
    57fe:	08 09       	.word 0x0809
    5800:	0a 0a       	sts	mach,r10
    5802:	0b 0c       	mov.b	@(r0,r0),r11
    5804:	0d 0d       	mov.w	@(r0,r0),r13
    5806:	0e 0e       	mov.l	@(r0,r0),r14
    5808:	0f 10       	.word 0x0f10
    580a:	10 10       	mov.l	r1,@(0,r0)
    580c:	11 11       	mov.l	r1,@(4,r1)
    580e:	12 12       	mov.l	r1,@(8,r2)
    5810:	12 12       	mov.l	r1,@(8,r2)
    5812:	12 13       	mov.l	r1,@(12,r2)
    5814:	13 13       	mov.l	r1,@(12,r3)
    5816:	00 01       	.word 0x0001
    5818:	02 03       	bsrf	r2
    581a:	04 05       	mov.w	r0,@(r0,r4)
    581c:	05 06       	mov.l	r0,@(r0,r5)
    581e:	07 08       	.word 0x0708
    5820:	09 0a       	sts	mach,r9
    5822:	0a 0b       	.word 0x0a0b
    5824:	0c 0d       	mov.w	@(r0,r0),r12
    5826:	0d 0e       	mov.l	@(r0,r0),r13
    5828:	0e 0f       	mac.l	@r0+,@r14+
    582a:	10 10       	mov.l	r1,@(0,r0)
    582c:	10 11       	mov.l	r1,@(4,r0)
    582e:	11 12       	mov.l	r1,@(8,r1)
    5830:	12 12       	mov.l	r1,@(8,r2)
    5832:	12 13       	mov.l	r1,@(12,r2)
    5834:	13 13       	mov.l	r1,@(12,r3)
    5836:	13 00       	mov.l	r0,@(0,r3)
    5838:	00 06       	mov.l	r0,@(r0,r0)
    583a:	0c 12       	stc	gbr,r12
    583c:	18 1f       	mov.l	r1,@(60,r8)
    583e:	25 2b       	or	r2,r5
    5840:	30 36       	cmp/hi	r3,r0
    5842:	3c 41       	.word 0x3c41
    5844:	47 4c       	shad	r4,r7
    5846:	51 55       	mov.l	@(20,r5),r1
    5848:	5a 5e       	mov.l	@(56,r5),r10
    584a:	62 66       	mov.l	@r6+,r2
    584c:	6a 6d       	extu.w	r6,r10
    584e:	70 73       	add	#115,r0
    5850:	76 78       	add	#120,r6
    5852:	7a 7c       	add	#124,r10
    5854:	7d 7e       	add	#126,r13
    5856:	7f 7f       	add	#127,r15
    5858:	7f 00       	add	#0,r15
    585a:	00 00       	.word 0x0000
    585c:	00 00       	.word 0x0000
    585e:	00 00       	.word 0x0000
    5860:	76 00       	add	#0,r6
    5862:	30 44       	div1	r4,r0
    5864:	16 3b       	mov.l	r3,@(44,r6)
    5866:	80 d2       	mov.b	r0,@(2,r13)
    5868:	70 00       	add	#0,r0
    586a:	30 46       	cmp/hi	r4,r0
    586c:	10 3b       	mov.l	r3,@(44,r0)
    586e:	80 1c       	mov.b	r0,@(12,r1)
    5870:	04 40       	.word 0x0440
    5872:	00 20       	.word 0x0020
    5874:	c1 c3       	mov.w	r0,@(390,gbr)
    5876:	06 40       	.word 0x0640
    5878:	00 40       	.word 0x0040
    587a:	ee 40       	mov	#64,r14
    587c:	06 40       	.word 0x0640
    587e:	00 20       	.word 0x0020
    5880:	e1 40       	mov	#64,r1
    5882:	39 40       	cmp/eq	r4,r9
    5884:	00 4e       	mov.l	@(r0,r4),r0
    5886:	60 00       	mov.b	@r0,r0
    5888:	00 8a       	.word 0x008a
    588a:	7f 7c       	add	#124,r15
    588c:	78 74       	add	#116,r8
    588e:	70 6c       	add	#108,r0
    5890:	68 64       	mov.b	@r6+,r8
    5892:	60 5c       	extu.b	r5,r0
    5894:	58 54       	mov.l	@(16,r5),r8
    5896:	50 4c       	mov.l	@(48,r4),r0
    5898:	48 44       	.word 0x4844
    589a:	40 3c       	shad	r3,r0
    589c:	38 34       	div1	r3,r8
    589e:	30 2c       	add	r2,r0
    58a0:	28 24       	mov.b	r2,@-r8
    58a2:	20 1c       	cmp/str	r1,r0
    58a4:	18 14       	mov.l	r1,@(16,r8)
    58a6:	10 0c       	mov.l	r0,@(48,r0)
    58a8:	08 04       	mov.b	r0,@(r0,r8)
	...
    58ea:	00 04       	mov.b	r0,@(r0,r0)
    58ec:	08 0c       	mov.b	@(r0,r0),r8
    58ee:	10 14       	mov.l	r1,@(16,r0)
    58f0:	18 1c       	mov.l	r1,@(48,r8)
    58f2:	20 24       	mov.b	r2,@-r0
    58f4:	28 2c       	cmp/str	r2,r8
    58f6:	30 34       	div1	r3,r0
    58f8:	38 3c       	add	r3,r8
    58fa:	40 44       	.word 0x4044
    58fc:	48 4c       	shad	r4,r8
    58fe:	50 54       	mov.l	@(16,r5),r0
    5900:	58 5c       	mov.l	@(48,r5),r8
    5902:	60 64       	mov.b	@r6+,r0
    5904:	68 6c       	extu.b	r6,r8
    5906:	70 74       	add	#116,r0
    5908:	78 7c       	add	#124,r8
    590a:	7f 7c       	add	#124,r15
    590c:	78 74       	add	#116,r8
    590e:	70 6c       	add	#108,r0
    5910:	68 64       	mov.b	@r6+,r8
    5912:	70 00       	add	#0,r0
    5914:	30 46       	cmp/hi	r4,r0
    5916:	10 3b       	mov.l	r3,@(44,r0)
    5918:	80 1c       	mov.b	r0,@(12,r1)
    591a:	04 40       	.word 0x0440
    591c:	00 20       	.word 0x0020
    591e:	c1 c3       	mov.w	r0,@(390,gbr)
    5920:	06 40       	.word 0x0640
    5922:	00 40       	.word 0x0040
    5924:	ee 40       	mov	#64,r14
    5926:	06 40       	.word 0x0640
    5928:	00 20       	.word 0x0020
    592a:	e1 40       	mov	#64,r1
    592c:	39 40       	cmp/eq	r4,r9
    592e:	00 50       	.word 0x0050
    5930:	60 00       	mov.b	@r0,r0
    5932:	00 8a       	.word 0x008a
    5934:	00 04       	mov.b	r0,@(r0,r0)
    5936:	08 0c       	mov.b	@(r0,r0),r8
    5938:	10 14       	mov.l	r1,@(16,r0)
    593a:	18 1c       	mov.l	r1,@(48,r8)
    593c:	20 24       	mov.b	r2,@-r0
    593e:	28 2c       	cmp/str	r2,r8
    5940:	30 34       	div1	r3,r0
    5942:	38 3c       	add	r3,r8
    5944:	40 44       	.word 0x4044
    5946:	48 4c       	shad	r4,r8
    5948:	50 54       	mov.l	@(16,r5),r0
    594a:	58 5c       	mov.l	@(48,r5),r8
    594c:	60 64       	mov.b	@r6+,r0
    594e:	68 6c       	extu.b	r6,r8
    5950:	70 74       	add	#116,r0
    5952:	78 7c       	add	#124,r8
    5954:	7f 7c       	add	#124,r15
    5956:	78 74       	add	#116,r8
    5958:	70 6c       	add	#108,r0
    595a:	68 64       	mov.b	@r6+,r8
    595c:	60 5c       	extu.b	r5,r0
    595e:	58 54       	mov.l	@(16,r5),r8
    5960:	50 4c       	mov.l	@(48,r4),r0
    5962:	48 44       	.word 0x4844
    5964:	40 3c       	shad	r3,r0
    5966:	38 34       	div1	r3,r8
    5968:	30 2c       	add	r2,r0
    596a:	28 24       	mov.b	r2,@-r8
    596c:	20 1c       	cmp/str	r1,r0
    596e:	18 14       	mov.l	r1,@(16,r8)
    5970:	10 0c       	mov.l	r0,@(48,r0)
    5972:	08 04       	mov.b	r0,@(r0,r8)
	...
    59b4:	00 04       	mov.b	r0,@(r0,r0)
    59b6:	08 0c       	mov.b	@(r0,r0),r8
    59b8:	10 14       	mov.l	r1,@(16,r0)
    59ba:	18 1c       	mov.l	r1,@(48,r8)
    59bc:	70 00       	add	#0,r0
    59be:	30 46       	cmp/hi	r4,r0
    59c0:	10 3b       	mov.l	r3,@(44,r0)
    59c2:	80 1c       	mov.b	r0,@(12,r1)
    59c4:	04 40       	.word 0x0440
    59c6:	00 20       	.word 0x0020
    59c8:	c1 c3       	mov.w	r0,@(390,gbr)
    59ca:	06 40       	.word 0x0640
    59cc:	00 40       	.word 0x0040
    59ce:	ee 40       	mov	#64,r14
    59d0:	06 40       	.word 0x0640
    59d2:	00 20       	.word 0x0020
    59d4:	e1 40       	mov	#64,r1
    59d6:	39 40       	cmp/eq	r4,r9
    59d8:	00 52       	stc	r5_bank,r0
    59da:	60 00       	mov.b	@r0,r0
    59dc:	00 8a       	.word 0x008a
	...
    59fe:	00 04       	mov.b	r0,@(r0,r0)
    5a00:	08 0c       	mov.b	@(r0,r0),r8
    5a02:	10 14       	mov.l	r1,@(16,r0)
    5a04:	18 1c       	mov.l	r1,@(48,r8)
    5a06:	20 24       	mov.b	r2,@-r0
    5a08:	28 2c       	cmp/str	r2,r8
    5a0a:	30 34       	div1	r3,r0
    5a0c:	38 3c       	add	r3,r8
    5a0e:	40 44       	.word 0x4044
    5a10:	48 4c       	shad	r4,r8
    5a12:	50 54       	mov.l	@(16,r5),r0
    5a14:	58 5c       	mov.l	@(48,r5),r8
    5a16:	60 64       	mov.b	@r6+,r0
    5a18:	68 6c       	extu.b	r6,r8
    5a1a:	70 74       	add	#116,r0
    5a1c:	78 7c       	add	#124,r8
    5a1e:	7f 7c       	add	#124,r15
    5a20:	78 74       	add	#116,r8
    5a22:	70 6c       	add	#108,r0
    5a24:	68 64       	mov.b	@r6+,r8
    5a26:	60 5c       	extu.b	r5,r0
    5a28:	58 54       	mov.l	@(16,r5),r8
    5a2a:	50 4c       	mov.l	@(48,r4),r0
    5a2c:	48 44       	.word 0x4844
    5a2e:	40 3c       	shad	r3,r0
    5a30:	38 34       	div1	r3,r8
    5a32:	30 2c       	add	r2,r0
    5a34:	28 24       	mov.b	r2,@-r8
    5a36:	20 1c       	cmp/str	r1,r0
    5a38:	18 14       	mov.l	r1,@(16,r8)
    5a3a:	10 0c       	mov.l	r0,@(48,r0)
    5a3c:	08 04       	mov.b	r0,@(r0,r8)
	...
    5a66:	70 00       	add	#0,r0
    5a68:	30 46       	cmp/hi	r4,r0
    5a6a:	10 3b       	mov.l	r3,@(44,r0)
    5a6c:	80 1c       	mov.b	r0,@(12,r1)
    5a6e:	04 40       	.word 0x0440
    5a70:	00 20       	.word 0x0020
    5a72:	c1 c3       	mov.w	r0,@(390,gbr)
    5a74:	06 40       	.word 0x0640
    5a76:	00 40       	.word 0x0040
    5a78:	ee 40       	mov	#64,r14
    5a7a:	06 40       	.word 0x0640
    5a7c:	00 20       	.word 0x0020
    5a7e:	e1 40       	mov	#64,r1
    5a80:	39 40       	cmp/eq	r4,r9
    5a82:	00 54       	mov.b	r5,@(r0,r0)
    5a84:	60 00       	mov.b	@r0,r0
    5a86:	00 8a       	.word 0x008a
	...
    5ac8:	00 04       	mov.b	r0,@(r0,r0)
    5aca:	08 0c       	mov.b	@(r0,r0),r8
    5acc:	10 14       	mov.l	r1,@(16,r0)
    5ace:	18 1c       	mov.l	r1,@(48,r8)
    5ad0:	20 24       	mov.b	r2,@-r0
    5ad2:	28 2c       	cmp/str	r2,r8
    5ad4:	30 34       	div1	r3,r0
    5ad6:	38 3c       	add	r3,r8
    5ad8:	40 44       	.word 0x4044
    5ada:	48 4c       	shad	r4,r8
    5adc:	50 54       	mov.l	@(16,r5),r0
    5ade:	58 5c       	mov.l	@(48,r5),r8
    5ae0:	60 64       	mov.b	@r6+,r0
    5ae2:	68 6c       	extu.b	r6,r8
    5ae4:	70 74       	add	#116,r0
    5ae6:	78 7c       	add	#124,r8
    5ae8:	7f 7c       	add	#124,r15
    5aea:	78 74       	add	#116,r8
    5aec:	70 6c       	add	#108,r0
    5aee:	68 64       	mov.b	@r6+,r8
    5af0:	60 5c       	extu.b	r5,r0
    5af2:	58 54       	mov.l	@(16,r5),r8
    5af4:	50 4c       	mov.l	@(48,r4),r0
    5af6:	48 44       	.word 0x4844
    5af8:	40 3c       	shad	r3,r0
    5afa:	38 34       	div1	r3,r8
    5afc:	30 2c       	add	r2,r0
    5afe:	28 24       	mov.b	r2,@-r8
    5b00:	20 1c       	cmp/str	r1,r0
    5b02:	18 14       	mov.l	r1,@(16,r8)
    5b04:	10 0c       	mov.l	r0,@(48,r0)
    5b06:	08 04       	mov.b	r0,@(r0,r8)
	...
    5b10:	70 00       	add	#0,r0
    5b12:	30 46       	cmp/hi	r4,r0
    5b14:	10 3b       	mov.l	r3,@(44,r0)
    5b16:	80 3e       	mov.b	r0,@(14,r3)
    5b18:	04 40       	.word 0x0440
    5b1a:	00 50       	.word 0x0050
    5b1c:	c1 c3       	mov.w	r0,@(390,gbr)
    5b1e:	06 40       	.word 0x0640
    5b20:	00 40       	.word 0x0040
    5b22:	ee 40       	mov	#64,r14
    5b24:	06 40       	.word 0x0640
    5b26:	00 50       	.word 0x0050
    5b28:	e1 40       	mov	#64,r1
    5b2a:	39 40       	cmp/eq	r4,r9
    5b2c:	00 58       	sets	
    5b2e:	32 3c       	add	r3,r2
    5b30:	00 80       	.word 0x0080
    5b32:	92 06       	mov.w	5b42 <_sddrv_129i+0x5b42>,r2	! 640
    5b34:	70 00       	add	#0,r0
    5b36:	30 41       	.word 0x3041
    5b38:	10 3b       	mov.l	r3,@(44,r0)
    5b3a:	80 1a       	mov.b	r0,@(10,r1)
    5b3c:	04 40       	.word 0x0440
    5b3e:	00 50       	.word 0x0050
    5b40:	c1 c3       	mov.w	r0,@(390,gbr)
    5b42:	06 40       	.word 0x0640
    5b44:	00 40       	.word 0x0040
    5b46:	ee 40       	mov	#64,r14
    5b48:	06 40       	.word 0x0640
    5b4a:	00 50       	.word 0x0050
    5b4c:	e1 40       	mov	#64,r1
    5b4e:	39 40       	cmp/eq	r4,r9
    5b50:	00 56       	mov.l	r5,@(r0,r0)
    5b52:	4e 75       	.word 0x4e75
    5b54:	40 3a       	ldc	r0,sgr
    5b56:	38 32       	cmp/hs	r3,r8
    5b58:	2e 2a       	xor	r2,r14
    5b5a:	27 23       	.word 0x2723
    5b5c:	20 1f       	muls.w	r1,r0
    5b5e:	1d 1b       	mov.l	r1,@(44,r13)
    5b60:	1a 1a       	mov.l	r1,@(40,r10)
    5b62:	19 18       	mov.l	r1,@(32,r9)
    5b64:	17 16       	mov.l	r1,@(24,r7)
    5b66:	15 14       	mov.l	r1,@(16,r5)
    5b68:	13 12       	mov.l	r1,@(8,r3)
    5b6a:	12 11       	mov.l	r1,@(4,r2)
    5b6c:	11 10       	mov.l	r1,@(0,r1)
    5b6e:	10 0f       	mov.l	r0,@(60,r0)
    5b70:	0f 0f       	mac.l	@r0+,@r15+
    5b72:	0e 0e       	mov.l	@(r0,r0),r14
    5b74:	0d 0e       	mov.l	@(r0,r0),r13
    5b76:	0e 0f       	mac.l	@r0+,@r14+
    5b78:	0f 0f       	mac.l	@r0+,@r15+
    5b7a:	10 10       	mov.l	r1,@(0,r0)
    5b7c:	11 11       	mov.l	r1,@(4,r1)
    5b7e:	12 12       	mov.l	r1,@(8,r2)
    5b80:	13 14       	mov.l	r1,@(16,r3)
    5b82:	15 16       	mov.l	r1,@(24,r5)
    5b84:	17 18       	mov.l	r1,@(32,r7)
    5b86:	19 1a       	mov.l	r1,@(40,r9)
    5b88:	1a 1b       	mov.l	r1,@(44,r10)
    5b8a:	1d 1f       	mov.l	r1,@(60,r13)
    5b8c:	21 23       	.word 0x2123
    5b8e:	25 26       	mov.l	r2,@-r5
    5b90:	28 2b       	or	r2,r8
    5b92:	2e 30       	mov.b	r3,@r14
    5b94:	33 36       	cmp/hi	r3,r3
    5b96:	38 3a       	subc	r3,r8
    5b98:	3d 40       	cmp/eq	r4,r13
    5b9a:	43 47       	ldc.l	@r3+,spc
    5b9c:	4a 4c       	shad	r4,r10
    5b9e:	50 53       	mov.l	@(12,r5),r0
    5ba0:	58 5c       	mov.l	@(48,r5),r8
    5ba2:	61 65       	mov.w	@r6+,r1
    5ba4:	69 6e       	exts.b	r6,r9
    5ba6:	72 76       	add	#118,r2
    5ba8:	7a 7a       	add	#122,r10
    5baa:	7b 7b       	add	#123,r11
    5bac:	7c 7c       	add	#124,r12
    5bae:	7d 7d       	add	#125,r13
    5bb0:	7e 7e       	add	#126,r14
    5bb2:	7f 7f       	add	#127,r15
    5bb4:	7f 7f       	add	#127,r15
    5bb6:	7f 7e       	add	#126,r15
    5bb8:	7e 7d       	add	#125,r14
    5bba:	7d 7c       	add	#124,r13
    5bbc:	7c 7b       	add	#123,r12
    5bbe:	7b 7a       	add	#122,r11
    5bc0:	7a 76       	add	#118,r10
    5bc2:	72 6e       	add	#110,r2
    5bc4:	69 65       	mov.w	@r6+,r9
    5bc6:	61 5c       	extu.b	r5,r1
    5bc8:	58 53       	mov.l	@(12,r5),r8
    5bca:	50 4c       	mov.l	@(48,r4),r0
    5bcc:	4a 49       	.word 0x4a49
    5bce:	48 47       	ldc.l	@r8+,spc
    5bd0:	46 44       	.word 0x4644
    5bd2:	42 41       	.word 0x4241
    5bd4:	40 00       	shll	r0
    5bd6:	00 00       	.word 0x0000
    5bd8:	00 00       	.word 0x0000
    5bda:	00 00       	.word 0x0000
    5bdc:	53 45       	mov.l	@(20,r4),r3
    5bde:	47 41       	.word 0x4741

00005be0 <_sizeof_129i>:
    5be0:	00 00       	.word 0x0000
    5be2:	5b e0       	mov.l	@(0,r14),r11
