
sglG26.o:     file format coff-sh


Disassembly of section SLPROG:

00000000 <_sddrv_129i>:
       0:	00 00       	.word 0x0000
       2:	a0 00       	bra	6 <_sddrv_129i+0x6>
       4:	00 00       	.word 0x0000
       6:	10 00       	mov.l	r0,@(0,r0)
       8:	00 00       	.word 0x0000
       a:	16 82       	mov.l	r8,@(8,r6)
       c:	00 00       	.word 0x0000
       e:	16 8c       	mov.l	r8,@(48,r6)
      10:	00 00       	.word 0x0000
      12:	16 96       	mov.l	r9,@(24,r6)
      14:	00 00       	.word 0x0000
      16:	16 96       	mov.l	r9,@(24,r6)
      18:	00 00       	.word 0x0000
      1a:	16 96       	mov.l	r9,@(24,r6)
      1c:	00 00       	.word 0x0000
      1e:	16 96       	mov.l	r9,@(24,r6)
      20:	00 00       	.word 0x0000
      22:	16 96       	mov.l	r9,@(24,r6)
      24:	00 00       	.word 0x0000
      26:	16 96       	mov.l	r9,@(24,r6)
      28:	00 00       	.word 0x0000
      2a:	16 96       	mov.l	r9,@(24,r6)
      2c:	00 00       	.word 0x0000
      2e:	16 96       	mov.l	r9,@(24,r6)
      30:	00 00       	.word 0x0000
      32:	16 96       	mov.l	r9,@(24,r6)
      34:	00 00       	.word 0x0000
      36:	16 96       	mov.l	r9,@(24,r6)
      38:	00 00       	.word 0x0000
      3a:	16 96       	mov.l	r9,@(24,r6)
      3c:	00 00       	.word 0x0000
      3e:	16 96       	mov.l	r9,@(24,r6)
      40:	00 00       	.word 0x0000
      42:	16 96       	mov.l	r9,@(24,r6)
      44:	00 00       	.word 0x0000
      46:	16 96       	mov.l	r9,@(24,r6)
      48:	00 00       	.word 0x0000
      4a:	16 96       	mov.l	r9,@(24,r6)
      4c:	00 00       	.word 0x0000
      4e:	16 96       	mov.l	r9,@(24,r6)
      50:	00 00       	.word 0x0000
      52:	16 96       	mov.l	r9,@(24,r6)
      54:	00 00       	.word 0x0000
      56:	16 96       	mov.l	r9,@(24,r6)
      58:	00 00       	.word 0x0000
      5a:	16 96       	mov.l	r9,@(24,r6)
      5c:	00 00       	.word 0x0000
      5e:	16 96       	mov.l	r9,@(24,r6)
      60:	00 00       	.word 0x0000
      62:	16 96       	mov.l	r9,@(24,r6)
      64:	00 00       	.word 0x0000
      66:	16 96       	mov.l	r9,@(24,r6)
      68:	00 00       	.word 0x0000
      6a:	14 0e       	mov.l	r0,@(56,r4)
      6c:	00 00       	.word 0x0000
      6e:	16 96       	mov.l	r9,@(24,r6)
      70:	00 00       	.word 0x0000
      72:	16 96       	mov.l	r9,@(24,r6)
      74:	00 00       	.word 0x0000
      76:	16 96       	mov.l	r9,@(24,r6)
      78:	00 00       	.word 0x0000
      7a:	16 96       	mov.l	r9,@(24,r6)
      7c:	00 00       	.word 0x0000
      7e:	16 96       	mov.l	r9,@(24,r6)
      80:	00 00       	.word 0x0000
      82:	16 96       	mov.l	r9,@(24,r6)
      84:	00 00       	.word 0x0000
      86:	16 96       	mov.l	r9,@(24,r6)
      88:	00 00       	.word 0x0000
      8a:	16 96       	mov.l	r9,@(24,r6)
      8c:	00 00       	.word 0x0000
      8e:	16 96       	mov.l	r9,@(24,r6)
      90:	00 00       	.word 0x0000
      92:	16 96       	mov.l	r9,@(24,r6)
      94:	00 00       	.word 0x0000
      96:	16 96       	mov.l	r9,@(24,r6)
      98:	00 00       	.word 0x0000
      9a:	16 96       	mov.l	r9,@(24,r6)
      9c:	00 00       	.word 0x0000
      9e:	16 96       	mov.l	r9,@(24,r6)
      a0:	00 00       	.word 0x0000
      a2:	16 96       	mov.l	r9,@(24,r6)
      a4:	00 00       	.word 0x0000
      a6:	16 96       	mov.l	r9,@(24,r6)
      a8:	00 00       	.word 0x0000
      aa:	16 96       	mov.l	r9,@(24,r6)
      ac:	00 00       	.word 0x0000
      ae:	16 96       	mov.l	r9,@(24,r6)
      b0:	00 00       	.word 0x0000
      b2:	16 96       	mov.l	r9,@(24,r6)
      b4:	00 00       	.word 0x0000
      b6:	16 96       	mov.l	r9,@(24,r6)
      b8:	00 00       	.word 0x0000
      ba:	16 96       	mov.l	r9,@(24,r6)
      bc:	00 00       	.word 0x0000
      be:	16 96       	mov.l	r9,@(24,r6)
      c0:	00 00       	.word 0x0000
      c2:	16 96       	mov.l	r9,@(24,r6)
      c4:	00 00       	.word 0x0000
      c6:	16 96       	mov.l	r9,@(24,r6)
      c8:	00 00       	.word 0x0000
      ca:	16 96       	mov.l	r9,@(24,r6)
      cc:	00 00       	.word 0x0000
      ce:	16 96       	mov.l	r9,@(24,r6)
      d0:	00 00       	.word 0x0000
      d2:	16 96       	mov.l	r9,@(24,r6)
      d4:	00 00       	.word 0x0000
      d6:	16 96       	mov.l	r9,@(24,r6)
      d8:	00 00       	.word 0x0000
      da:	16 96       	mov.l	r9,@(24,r6)
      dc:	00 00       	.word 0x0000
      de:	16 96       	mov.l	r9,@(24,r6)
      e0:	00 00       	.word 0x0000
      e2:	16 96       	mov.l	r9,@(24,r6)
      e4:	00 00       	.word 0x0000
      e6:	16 96       	mov.l	r9,@(24,r6)
      e8:	00 00       	.word 0x0000
      ea:	16 96       	mov.l	r9,@(24,r6)
      ec:	00 00       	.word 0x0000
      ee:	16 96       	mov.l	r9,@(24,r6)
      f0:	00 00       	.word 0x0000
      f2:	16 96       	mov.l	r9,@(24,r6)
      f4:	00 00       	.word 0x0000
      f6:	16 96       	mov.l	r9,@(24,r6)
      f8:	00 00       	.word 0x0000
      fa:	16 96       	mov.l	r9,@(24,r6)
      fc:	00 00       	.word 0x0000
      fe:	16 96       	mov.l	r9,@(24,r6)
     100:	00 00       	.word 0x0000
     102:	16 96       	mov.l	r9,@(24,r6)
     104:	00 00       	.word 0x0000
     106:	16 96       	mov.l	r9,@(24,r6)
     108:	00 00       	.word 0x0000
     10a:	16 96       	mov.l	r9,@(24,r6)
     10c:	00 00       	.word 0x0000
     10e:	16 96       	mov.l	r9,@(24,r6)
     110:	00 00       	.word 0x0000
     112:	16 96       	mov.l	r9,@(24,r6)
     114:	00 00       	.word 0x0000
     116:	16 96       	mov.l	r9,@(24,r6)
     118:	00 00       	.word 0x0000
     11a:	16 96       	mov.l	r9,@(24,r6)
     11c:	00 00       	.word 0x0000
     11e:	16 96       	mov.l	r9,@(24,r6)
     120:	00 00       	.word 0x0000
     122:	16 96       	mov.l	r9,@(24,r6)
     124:	00 00       	.word 0x0000
     126:	16 96       	mov.l	r9,@(24,r6)
     128:	00 00       	.word 0x0000
     12a:	16 96       	mov.l	r9,@(24,r6)
     12c:	00 00       	.word 0x0000
     12e:	16 96       	mov.l	r9,@(24,r6)
     130:	00 00       	.word 0x0000
     132:	16 96       	mov.l	r9,@(24,r6)
     134:	00 00       	.word 0x0000
     136:	16 96       	mov.l	r9,@(24,r6)
     138:	00 00       	.word 0x0000
     13a:	16 96       	mov.l	r9,@(24,r6)
     13c:	00 00       	.word 0x0000
     13e:	16 96       	mov.l	r9,@(24,r6)
     140:	00 00       	.word 0x0000
     142:	16 96       	mov.l	r9,@(24,r6)
     144:	00 00       	.word 0x0000
     146:	16 96       	mov.l	r9,@(24,r6)
     148:	00 00       	.word 0x0000
     14a:	16 96       	mov.l	r9,@(24,r6)
     14c:	00 00       	.word 0x0000
     14e:	16 96       	mov.l	r9,@(24,r6)
     150:	00 00       	.word 0x0000
     152:	16 96       	mov.l	r9,@(24,r6)
     154:	00 00       	.word 0x0000
     156:	16 96       	mov.l	r9,@(24,r6)
     158:	00 00       	.word 0x0000
     15a:	16 96       	mov.l	r9,@(24,r6)
     15c:	00 00       	.word 0x0000
     15e:	16 96       	mov.l	r9,@(24,r6)
     160:	00 00       	.word 0x0000
     162:	16 96       	mov.l	r9,@(24,r6)
     164:	00 00       	.word 0x0000
     166:	16 96       	mov.l	r9,@(24,r6)
     168:	00 00       	.word 0x0000
     16a:	16 96       	mov.l	r9,@(24,r6)
     16c:	00 00       	.word 0x0000
     16e:	16 96       	mov.l	r9,@(24,r6)
     170:	00 00       	.word 0x0000
     172:	16 96       	mov.l	r9,@(24,r6)
     174:	00 00       	.word 0x0000
     176:	16 96       	mov.l	r9,@(24,r6)
     178:	00 00       	.word 0x0000
     17a:	16 96       	mov.l	r9,@(24,r6)
     17c:	00 00       	.word 0x0000
     17e:	16 96       	mov.l	r9,@(24,r6)
     180:	00 00       	.word 0x0000
     182:	16 96       	mov.l	r9,@(24,r6)
     184:	00 00       	.word 0x0000
     186:	16 96       	mov.l	r9,@(24,r6)
     188:	00 00       	.word 0x0000
     18a:	16 96       	mov.l	r9,@(24,r6)
     18c:	00 00       	.word 0x0000
     18e:	16 96       	mov.l	r9,@(24,r6)
     190:	00 00       	.word 0x0000
     192:	16 96       	mov.l	r9,@(24,r6)
     194:	00 00       	.word 0x0000
     196:	16 96       	mov.l	r9,@(24,r6)
     198:	00 00       	.word 0x0000
     19a:	16 96       	mov.l	r9,@(24,r6)
     19c:	00 00       	.word 0x0000
     19e:	16 96       	mov.l	r9,@(24,r6)
     1a0:	00 00       	.word 0x0000
     1a2:	16 96       	mov.l	r9,@(24,r6)
     1a4:	00 00       	.word 0x0000
     1a6:	16 96       	mov.l	r9,@(24,r6)
     1a8:	00 00       	.word 0x0000
     1aa:	16 96       	mov.l	r9,@(24,r6)
     1ac:	00 00       	.word 0x0000
     1ae:	16 96       	mov.l	r9,@(24,r6)
     1b0:	00 00       	.word 0x0000
     1b2:	16 96       	mov.l	r9,@(24,r6)
     1b4:	00 00       	.word 0x0000
     1b6:	16 96       	mov.l	r9,@(24,r6)
     1b8:	00 00       	.word 0x0000
     1ba:	16 96       	mov.l	r9,@(24,r6)
     1bc:	00 00       	.word 0x0000
     1be:	16 96       	mov.l	r9,@(24,r6)
     1c0:	00 00       	.word 0x0000
     1c2:	16 96       	mov.l	r9,@(24,r6)
     1c4:	00 00       	.word 0x0000
     1c6:	16 96       	mov.l	r9,@(24,r6)
     1c8:	00 00       	.word 0x0000
     1ca:	16 96       	mov.l	r9,@(24,r6)
     1cc:	00 00       	.word 0x0000
     1ce:	16 96       	mov.l	r9,@(24,r6)
     1d0:	00 00       	.word 0x0000
     1d2:	16 96       	mov.l	r9,@(24,r6)
     1d4:	00 00       	.word 0x0000
     1d6:	16 96       	mov.l	r9,@(24,r6)
     1d8:	00 00       	.word 0x0000
     1da:	16 96       	mov.l	r9,@(24,r6)
     1dc:	00 00       	.word 0x0000
     1de:	16 96       	mov.l	r9,@(24,r6)
     1e0:	00 00       	.word 0x0000
     1e2:	16 96       	mov.l	r9,@(24,r6)
     1e4:	00 00       	.word 0x0000
     1e6:	16 96       	mov.l	r9,@(24,r6)
     1e8:	00 00       	.word 0x0000
     1ea:	16 96       	mov.l	r9,@(24,r6)
     1ec:	00 00       	.word 0x0000
     1ee:	16 96       	mov.l	r9,@(24,r6)
     1f0:	00 00       	.word 0x0000
     1f2:	16 96       	mov.l	r9,@(24,r6)
     1f4:	00 00       	.word 0x0000
     1f6:	16 96       	mov.l	r9,@(24,r6)
     1f8:	00 00       	.word 0x0000
     1fa:	16 96       	mov.l	r9,@(24,r6)
     1fc:	00 00       	.word 0x0000
     1fe:	16 96       	mov.l	r9,@(24,r6)
     200:	00 00       	.word 0x0000
     202:	16 96       	mov.l	r9,@(24,r6)
     204:	00 00       	.word 0x0000
     206:	16 96       	mov.l	r9,@(24,r6)
     208:	00 00       	.word 0x0000
     20a:	16 96       	mov.l	r9,@(24,r6)
     20c:	00 00       	.word 0x0000
     20e:	16 96       	mov.l	r9,@(24,r6)
     210:	00 00       	.word 0x0000
     212:	16 96       	mov.l	r9,@(24,r6)
     214:	00 00       	.word 0x0000
     216:	16 96       	mov.l	r9,@(24,r6)
     218:	00 00       	.word 0x0000
     21a:	16 96       	mov.l	r9,@(24,r6)
     21c:	00 00       	.word 0x0000
     21e:	16 96       	mov.l	r9,@(24,r6)
     220:	00 00       	.word 0x0000
     222:	16 96       	mov.l	r9,@(24,r6)
     224:	00 00       	.word 0x0000
     226:	16 96       	mov.l	r9,@(24,r6)
     228:	00 00       	.word 0x0000
     22a:	16 96       	mov.l	r9,@(24,r6)
     22c:	00 00       	.word 0x0000
     22e:	16 96       	mov.l	r9,@(24,r6)
     230:	00 00       	.word 0x0000
     232:	16 96       	mov.l	r9,@(24,r6)
     234:	00 00       	.word 0x0000
     236:	16 96       	mov.l	r9,@(24,r6)
     238:	00 00       	.word 0x0000
     23a:	16 96       	mov.l	r9,@(24,r6)
     23c:	00 00       	.word 0x0000
     23e:	16 96       	mov.l	r9,@(24,r6)
     240:	00 00       	.word 0x0000
     242:	16 96       	mov.l	r9,@(24,r6)
     244:	00 00       	.word 0x0000
     246:	16 96       	mov.l	r9,@(24,r6)
     248:	00 00       	.word 0x0000
     24a:	16 96       	mov.l	r9,@(24,r6)
     24c:	00 00       	.word 0x0000
     24e:	16 96       	mov.l	r9,@(24,r6)
     250:	00 00       	.word 0x0000
     252:	16 96       	mov.l	r9,@(24,r6)
     254:	00 00       	.word 0x0000
     256:	16 96       	mov.l	r9,@(24,r6)
     258:	00 00       	.word 0x0000
     25a:	16 96       	mov.l	r9,@(24,r6)
     25c:	00 00       	.word 0x0000
     25e:	16 96       	mov.l	r9,@(24,r6)
     260:	00 00       	.word 0x0000
     262:	16 96       	mov.l	r9,@(24,r6)
     264:	00 00       	.word 0x0000
     266:	16 96       	mov.l	r9,@(24,r6)
     268:	00 00       	.word 0x0000
     26a:	16 96       	mov.l	r9,@(24,r6)
     26c:	00 00       	.word 0x0000
     26e:	16 96       	mov.l	r9,@(24,r6)
     270:	00 00       	.word 0x0000
     272:	16 96       	mov.l	r9,@(24,r6)
     274:	00 00       	.word 0x0000
     276:	16 96       	mov.l	r9,@(24,r6)
     278:	00 00       	.word 0x0000
     27a:	16 96       	mov.l	r9,@(24,r6)
     27c:	00 00       	.word 0x0000
     27e:	16 96       	mov.l	r9,@(24,r6)
     280:	00 00       	.word 0x0000
     282:	16 96       	mov.l	r9,@(24,r6)
     284:	00 00       	.word 0x0000
     286:	16 96       	mov.l	r9,@(24,r6)
     288:	00 00       	.word 0x0000
     28a:	16 96       	mov.l	r9,@(24,r6)
     28c:	00 00       	.word 0x0000
     28e:	16 96       	mov.l	r9,@(24,r6)
     290:	00 00       	.word 0x0000
     292:	16 96       	mov.l	r9,@(24,r6)
     294:	00 00       	.word 0x0000
     296:	16 96       	mov.l	r9,@(24,r6)
     298:	00 00       	.word 0x0000
     29a:	16 96       	mov.l	r9,@(24,r6)
     29c:	00 00       	.word 0x0000
     29e:	16 96       	mov.l	r9,@(24,r6)
     2a0:	00 00       	.word 0x0000
     2a2:	16 96       	mov.l	r9,@(24,r6)
     2a4:	00 00       	.word 0x0000
     2a6:	16 96       	mov.l	r9,@(24,r6)
     2a8:	00 00       	.word 0x0000
     2aa:	16 96       	mov.l	r9,@(24,r6)
     2ac:	00 00       	.word 0x0000
     2ae:	16 96       	mov.l	r9,@(24,r6)
     2b0:	00 00       	.word 0x0000
     2b2:	16 96       	mov.l	r9,@(24,r6)
     2b4:	00 00       	.word 0x0000
     2b6:	16 96       	mov.l	r9,@(24,r6)
     2b8:	00 00       	.word 0x0000
     2ba:	16 96       	mov.l	r9,@(24,r6)
     2bc:	00 00       	.word 0x0000
     2be:	16 96       	mov.l	r9,@(24,r6)
     2c0:	00 00       	.word 0x0000
     2c2:	16 96       	mov.l	r9,@(24,r6)
     2c4:	00 00       	.word 0x0000
     2c6:	16 96       	mov.l	r9,@(24,r6)
     2c8:	00 00       	.word 0x0000
     2ca:	16 96       	mov.l	r9,@(24,r6)
     2cc:	00 00       	.word 0x0000
     2ce:	16 96       	mov.l	r9,@(24,r6)
     2d0:	00 00       	.word 0x0000
     2d2:	16 96       	mov.l	r9,@(24,r6)
     2d4:	00 00       	.word 0x0000
     2d6:	16 96       	mov.l	r9,@(24,r6)
     2d8:	00 00       	.word 0x0000
     2da:	16 96       	mov.l	r9,@(24,r6)
     2dc:	00 00       	.word 0x0000
     2de:	16 96       	mov.l	r9,@(24,r6)
     2e0:	00 00       	.word 0x0000
     2e2:	16 96       	mov.l	r9,@(24,r6)
     2e4:	00 00       	.word 0x0000
     2e6:	16 96       	mov.l	r9,@(24,r6)
     2e8:	00 00       	.word 0x0000
     2ea:	16 96       	mov.l	r9,@(24,r6)
     2ec:	00 00       	.word 0x0000
     2ee:	16 96       	mov.l	r9,@(24,r6)
     2f0:	00 00       	.word 0x0000
     2f2:	16 96       	mov.l	r9,@(24,r6)
     2f4:	00 00       	.word 0x0000
     2f6:	16 96       	mov.l	r9,@(24,r6)
     2f8:	00 00       	.word 0x0000
     2fa:	16 96       	mov.l	r9,@(24,r6)
     2fc:	00 00       	.word 0x0000
     2fe:	16 96       	mov.l	r9,@(24,r6)
     300:	00 00       	.word 0x0000
     302:	16 96       	mov.l	r9,@(24,r6)
     304:	00 00       	.word 0x0000
     306:	16 96       	mov.l	r9,@(24,r6)
     308:	00 00       	.word 0x0000
     30a:	16 96       	mov.l	r9,@(24,r6)
     30c:	00 00       	.word 0x0000
     30e:	16 96       	mov.l	r9,@(24,r6)
     310:	00 00       	.word 0x0000
     312:	16 96       	mov.l	r9,@(24,r6)
     314:	00 00       	.word 0x0000
     316:	16 96       	mov.l	r9,@(24,r6)
     318:	00 00       	.word 0x0000
     31a:	16 96       	mov.l	r9,@(24,r6)
     31c:	00 00       	.word 0x0000
     31e:	16 96       	mov.l	r9,@(24,r6)
     320:	00 00       	.word 0x0000
     322:	16 96       	mov.l	r9,@(24,r6)
     324:	00 00       	.word 0x0000
     326:	16 96       	mov.l	r9,@(24,r6)
     328:	00 00       	.word 0x0000
     32a:	16 96       	mov.l	r9,@(24,r6)
     32c:	00 00       	.word 0x0000
     32e:	16 96       	mov.l	r9,@(24,r6)
     330:	00 00       	.word 0x0000
     332:	16 96       	mov.l	r9,@(24,r6)
     334:	00 00       	.word 0x0000
     336:	16 96       	mov.l	r9,@(24,r6)
     338:	00 00       	.word 0x0000
     33a:	16 96       	mov.l	r9,@(24,r6)
     33c:	00 00       	.word 0x0000
     33e:	16 96       	mov.l	r9,@(24,r6)
     340:	00 00       	.word 0x0000
     342:	16 96       	mov.l	r9,@(24,r6)
     344:	00 00       	.word 0x0000
     346:	16 96       	mov.l	r9,@(24,r6)
     348:	00 00       	.word 0x0000
     34a:	16 96       	mov.l	r9,@(24,r6)
     34c:	00 00       	.word 0x0000
     34e:	16 96       	mov.l	r9,@(24,r6)
     350:	00 00       	.word 0x0000
     352:	16 96       	mov.l	r9,@(24,r6)
     354:	00 00       	.word 0x0000
     356:	16 96       	mov.l	r9,@(24,r6)
     358:	00 00       	.word 0x0000
     35a:	16 96       	mov.l	r9,@(24,r6)
     35c:	00 00       	.word 0x0000
     35e:	16 96       	mov.l	r9,@(24,r6)
     360:	00 00       	.word 0x0000
     362:	16 96       	mov.l	r9,@(24,r6)
     364:	00 00       	.word 0x0000
     366:	16 96       	mov.l	r9,@(24,r6)
     368:	00 00       	.word 0x0000
     36a:	16 96       	mov.l	r9,@(24,r6)
     36c:	00 00       	.word 0x0000
     36e:	16 96       	mov.l	r9,@(24,r6)
     370:	00 00       	.word 0x0000
     372:	16 96       	mov.l	r9,@(24,r6)
     374:	00 00       	.word 0x0000
     376:	16 96       	mov.l	r9,@(24,r6)
     378:	00 00       	.word 0x0000
     37a:	16 96       	mov.l	r9,@(24,r6)
     37c:	00 00       	.word 0x0000
     37e:	16 96       	mov.l	r9,@(24,r6)
     380:	00 00       	.word 0x0000
     382:	16 96       	mov.l	r9,@(24,r6)
     384:	00 00       	.word 0x0000
     386:	16 96       	mov.l	r9,@(24,r6)
     388:	00 00       	.word 0x0000
     38a:	16 96       	mov.l	r9,@(24,r6)
     38c:	00 00       	.word 0x0000
     38e:	16 96       	mov.l	r9,@(24,r6)
     390:	00 00       	.word 0x0000
     392:	16 96       	mov.l	r9,@(24,r6)
     394:	00 00       	.word 0x0000
     396:	16 96       	mov.l	r9,@(24,r6)
     398:	00 00       	.word 0x0000
     39a:	16 96       	mov.l	r9,@(24,r6)
     39c:	00 00       	.word 0x0000
     39e:	16 96       	mov.l	r9,@(24,r6)
     3a0:	00 00       	.word 0x0000
     3a2:	16 96       	mov.l	r9,@(24,r6)
     3a4:	00 00       	.word 0x0000
     3a6:	16 96       	mov.l	r9,@(24,r6)
     3a8:	00 00       	.word 0x0000
     3aa:	16 96       	mov.l	r9,@(24,r6)
     3ac:	00 00       	.word 0x0000
     3ae:	16 96       	mov.l	r9,@(24,r6)
     3b0:	00 00       	.word 0x0000
     3b2:	16 96       	mov.l	r9,@(24,r6)
     3b4:	00 00       	.word 0x0000
     3b6:	16 96       	mov.l	r9,@(24,r6)
     3b8:	00 00       	.word 0x0000
     3ba:	16 96       	mov.l	r9,@(24,r6)
     3bc:	00 00       	.word 0x0000
     3be:	16 96       	mov.l	r9,@(24,r6)
     3c0:	00 00       	.word 0x0000
     3c2:	16 96       	mov.l	r9,@(24,r6)
     3c4:	00 00       	.word 0x0000
     3c6:	16 96       	mov.l	r9,@(24,r6)
     3c8:	00 00       	.word 0x0000
     3ca:	16 96       	mov.l	r9,@(24,r6)
     3cc:	00 00       	.word 0x0000
     3ce:	16 96       	mov.l	r9,@(24,r6)
     3d0:	00 00       	.word 0x0000
     3d2:	16 96       	mov.l	r9,@(24,r6)
     3d4:	00 00       	.word 0x0000
     3d6:	16 96       	mov.l	r9,@(24,r6)
     3d8:	00 00       	.word 0x0000
     3da:	16 96       	mov.l	r9,@(24,r6)
     3dc:	00 00       	.word 0x0000
     3de:	16 96       	mov.l	r9,@(24,r6)
     3e0:	00 00       	.word 0x0000
     3e2:	16 96       	mov.l	r9,@(24,r6)
     3e4:	00 00       	.word 0x0000
     3e6:	16 96       	mov.l	r9,@(24,r6)
     3e8:	00 00       	.word 0x0000
     3ea:	16 96       	mov.l	r9,@(24,r6)
     3ec:	00 00       	.word 0x0000
     3ee:	16 96       	mov.l	r9,@(24,r6)
     3f0:	00 00       	.word 0x0000
     3f2:	16 96       	mov.l	r9,@(24,r6)
     3f4:	00 00       	.word 0x0000
     3f6:	16 96       	mov.l	r9,@(24,r6)
     3f8:	00 00       	.word 0x0000
     3fa:	16 96       	mov.l	r9,@(24,r6)
     3fc:	00 00       	.word 0x0000
     3fe:	16 96       	mov.l	r9,@(24,r6)
     400:	00 00       	.word 0x0000
     402:	04 40       	.word 0x0440
     404:	00 00       	.word 0x0000
     406:	07 00       	.word 0x0700
     408:	00 00       	.word 0x0000
     40a:	05 00       	.word 0x0500
     40c:	00 00       	.word 0x0000
     40e:	06 00       	.word 0x0600
     410:	00 00       	.word 0x0000
     412:	00 00       	.word 0x0000
     414:	04 80       	.word 0x0480
	...
     442:	10 00       	mov.l	r0,@(0,r0)
     444:	00 00       	.word 0x0000
     446:	60 00       	mov.b	@r0,r0
     448:	00 00       	.word 0x0000
     44a:	a0 00       	bra	44e <_sddrv_129i+0x44e>
     44c:	00 00       	.word 0x0000
     44e:	10 00       	mov.l	r0,@(0,r0)
     450:	00 00       	.word 0x0000
     452:	70 00       	add	#0,r0
     454:	00 00       	.word 0x0000
     456:	30 00       	cmp/eq	r0,r0
	...
     500:	ff ff       	.word 0xffff
     502:	ff ff       	.word 0xffff
     504:	ff ff       	.word 0xffff
     506:	ff ff       	.word 0xffff
     508:	ff ff       	.word 0xffff
     50a:	ff ff       	.word 0xffff
     50c:	ff ff       	.word 0xffff
     50e:	ff ff       	.word 0xffff
     510:	ff ff       	.word 0xffff
     512:	ff ff       	.word 0xffff
     514:	ff ff       	.word 0xffff
     516:	ff ff       	.word 0xffff
     518:	ff ff       	.word 0xffff
     51a:	ff ff       	.word 0xffff
     51c:	ff ff       	.word 0xffff
     51e:	ff ff       	.word 0xffff
     520:	ff ff       	.word 0xffff
     522:	ff ff       	.word 0xffff
     524:	ff ff       	.word 0xffff
     526:	ff ff       	.word 0xffff
     528:	ff ff       	.word 0xffff
     52a:	ff ff       	.word 0xffff
     52c:	ff ff       	.word 0xffff
     52e:	ff ff       	.word 0xffff
     530:	ff ff       	.word 0xffff
     532:	ff ff       	.word 0xffff
     534:	ff ff       	.word 0xffff
     536:	ff ff       	.word 0xffff
     538:	ff ff       	.word 0xffff
     53a:	ff ff       	.word 0xffff
     53c:	ff ff       	.word 0xffff
     53e:	ff ff       	.word 0xffff
     540:	ff ff       	.word 0xffff
     542:	ff ff       	.word 0xffff
     544:	ff ff       	.word 0xffff
     546:	ff ff       	.word 0xffff
     548:	ff ff       	.word 0xffff
     54a:	ff ff       	.word 0xffff
     54c:	ff ff       	.word 0xffff
     54e:	ff ff       	.word 0xffff
     550:	ff ff       	.word 0xffff
     552:	ff ff       	.word 0xffff
     554:	ff ff       	.word 0xffff
     556:	ff ff       	.word 0xffff
     558:	ff ff       	.word 0xffff
     55a:	ff ff       	.word 0xffff
     55c:	ff ff       	.word 0xffff
     55e:	ff ff       	.word 0xffff
     560:	ff ff       	.word 0xffff
     562:	ff ff       	.word 0xffff
     564:	ff ff       	.word 0xffff
     566:	ff ff       	.word 0xffff
     568:	ff ff       	.word 0xffff
     56a:	ff ff       	.word 0xffff
     56c:	ff ff       	.word 0xffff
     56e:	ff ff       	.word 0xffff
     570:	ff ff       	.word 0xffff
     572:	ff ff       	.word 0xffff
     574:	ff ff       	.word 0xffff
     576:	ff ff       	.word 0xffff
     578:	ff ff       	.word 0xffff
     57a:	ff ff       	.word 0xffff
     57c:	ff ff       	.word 0xffff
     57e:	ff ff       	.word 0xffff
     580:	ff ff       	.word 0xffff
     582:	ff ff       	.word 0xffff
     584:	ff ff       	.word 0xffff
     586:	ff ff       	.word 0xffff
     588:	ff ff       	.word 0xffff
     58a:	ff ff       	.word 0xffff
     58c:	ff ff       	.word 0xffff
     58e:	ff ff       	.word 0xffff
     590:	ff ff       	.word 0xffff
     592:	ff ff       	.word 0xffff
     594:	ff ff       	.word 0xffff
     596:	ff ff       	.word 0xffff
     598:	ff ff       	.word 0xffff
     59a:	ff ff       	.word 0xffff
     59c:	ff ff       	.word 0xffff
     59e:	ff ff       	.word 0xffff
     5a0:	ff ff       	.word 0xffff
     5a2:	ff ff       	.word 0xffff
     5a4:	ff ff       	.word 0xffff
     5a6:	ff ff       	.word 0xffff
     5a8:	ff ff       	.word 0xffff
     5aa:	ff ff       	.word 0xffff
     5ac:	ff ff       	.word 0xffff
     5ae:	ff ff       	.word 0xffff
     5b0:	ff ff       	.word 0xffff
     5b2:	ff ff       	.word 0xffff
     5b4:	ff ff       	.word 0xffff
     5b6:	ff ff       	.word 0xffff
     5b8:	ff ff       	.word 0xffff
     5ba:	ff ff       	.word 0xffff
     5bc:	ff ff       	.word 0xffff
     5be:	ff ff       	.word 0xffff
     5c0:	ff ff       	.word 0xffff
     5c2:	ff ff       	.word 0xffff
     5c4:	ff ff       	.word 0xffff
     5c6:	ff ff       	.word 0xffff
     5c8:	ff ff       	.word 0xffff
     5ca:	ff ff       	.word 0xffff
     5cc:	ff ff       	.word 0xffff
     5ce:	ff ff       	.word 0xffff
     5d0:	ff ff       	.word 0xffff
     5d2:	ff ff       	.word 0xffff
     5d4:	ff ff       	.word 0xffff
     5d6:	ff ff       	.word 0xffff
     5d8:	ff ff       	.word 0xffff
     5da:	ff ff       	.word 0xffff
     5dc:	ff ff       	.word 0xffff
     5de:	ff ff       	.word 0xffff
     5e0:	ff ff       	.word 0xffff
     5e2:	ff ff       	.word 0xffff
     5e4:	ff ff       	.word 0xffff
     5e6:	ff ff       	.word 0xffff
     5e8:	ff ff       	.word 0xffff
     5ea:	ff ff       	.word 0xffff
     5ec:	ff ff       	.word 0xffff
     5ee:	ff ff       	.word 0xffff
     5f0:	ff ff       	.word 0xffff
     5f2:	ff ff       	.word 0xffff
     5f4:	ff ff       	.word 0xffff
     5f6:	ff ff       	.word 0xffff
     5f8:	ff ff       	.word 0xffff
     5fa:	ff ff       	.word 0xffff
     5fc:	ff ff       	.word 0xffff
     5fe:	ff ff       	.word 0xffff
     600:	53 45       	mov.l	@(20,r4),r3
     602:	47 41       	.word 0x4741
     604:	53 45       	mov.l	@(20,r4),r3
     606:	47 41       	.word 0x4741
     608:	53 45       	mov.l	@(20,r4),r3
     60a:	47 41       	.word 0x4741
     60c:	53 45       	mov.l	@(20,r4),r3
     60e:	47 41       	.word 0x4741
     610:	53 45       	mov.l	@(20,r4),r3
     612:	47 41       	.word 0x4741
     614:	53 45       	mov.l	@(20,r4),r3
     616:	47 41       	.word 0x4741
     618:	53 45       	mov.l	@(20,r4),r3
     61a:	47 41       	.word 0x4741
     61c:	53 45       	mov.l	@(20,r4),r3
     61e:	47 41       	.word 0x4741
     620:	53 45       	mov.l	@(20,r4),r3
     622:	47 41       	.word 0x4741
     624:	53 45       	mov.l	@(20,r4),r3
     626:	47 41       	.word 0x4741
     628:	53 45       	mov.l	@(20,r4),r3
     62a:	47 41       	.word 0x4741
     62c:	53 45       	mov.l	@(20,r4),r3
     62e:	47 41       	.word 0x4741
     630:	53 45       	mov.l	@(20,r4),r3
     632:	47 41       	.word 0x4741
     634:	53 45       	mov.l	@(20,r4),r3
     636:	47 41       	.word 0x4741
     638:	53 45       	mov.l	@(20,r4),r3
     63a:	47 41       	.word 0x4741
     63c:	53 45       	mov.l	@(20,r4),r3
     63e:	47 41       	.word 0x4741
     640:	53 45       	mov.l	@(20,r4),r3
     642:	47 41       	.word 0x4741
     644:	53 45       	mov.l	@(20,r4),r3
     646:	47 41       	.word 0x4741
     648:	53 45       	mov.l	@(20,r4),r3
     64a:	47 41       	.word 0x4741
     64c:	53 45       	mov.l	@(20,r4),r3
     64e:	47 41       	.word 0x4741
     650:	53 45       	mov.l	@(20,r4),r3
     652:	47 41       	.word 0x4741
     654:	53 45       	mov.l	@(20,r4),r3
     656:	47 41       	.word 0x4741
     658:	53 45       	mov.l	@(20,r4),r3
     65a:	47 41       	.word 0x4741
     65c:	53 45       	mov.l	@(20,r4),r3
     65e:	47 41       	.word 0x4741
     660:	53 45       	mov.l	@(20,r4),r3
     662:	47 41       	.word 0x4741
     664:	53 45       	mov.l	@(20,r4),r3
     666:	47 41       	.word 0x4741
     668:	53 45       	mov.l	@(20,r4),r3
     66a:	47 41       	.word 0x4741
     66c:	53 45       	mov.l	@(20,r4),r3
     66e:	47 41       	.word 0x4741
     670:	53 45       	mov.l	@(20,r4),r3
     672:	47 41       	.word 0x4741
     674:	53 45       	mov.l	@(20,r4),r3
     676:	47 41       	.word 0x4741
     678:	53 45       	mov.l	@(20,r4),r3
     67a:	47 41       	.word 0x4741
     67c:	53 45       	mov.l	@(20,r4),r3
     67e:	47 41       	.word 0x4741
     680:	0d 0a       	sts	mach,r13
     682:	0d 0a       	sts	mach,r13
     684:	0d 0a       	sts	mach,r13
     686:	0d 0a       	sts	mach,r13
     688:	0d 0a       	sts	mach,r13
     68a:	0d 0a       	sts	mach,r13
     68c:	0d 0a       	sts	mach,r13
     68e:	0d 0a       	sts	mach,r13
     690:	0d 0a       	sts	mach,r13
     692:	0d 0a       	sts	mach,r13
     694:	0d 0a       	sts	mach,r13
     696:	0d 0a       	sts	mach,r13
     698:	0d 0a       	sts	mach,r13
     69a:	0d 0a       	sts	mach,r13
     69c:	0d 0a       	sts	mach,r13
     69e:	0d 0a       	sts	mach,r13
     6a0:	0d 0a       	sts	mach,r13
     6a2:	0d 0a       	sts	mach,r13
     6a4:	0d 0a       	sts	mach,r13
     6a6:	0d 0a       	sts	mach,r13
     6a8:	0d 0a       	sts	mach,r13
     6aa:	0d 0a       	sts	mach,r13
     6ac:	0d 0a       	sts	mach,r13
     6ae:	0d 0a       	sts	mach,r13
     6b0:	0d 0a       	sts	mach,r13
     6b2:	0d 0a       	sts	mach,r13
     6b4:	0d 0a       	sts	mach,r13
     6b6:	0d 0a       	sts	mach,r13
     6b8:	0d 0a       	sts	mach,r13
     6ba:	0d 0a       	sts	mach,r13
     6bc:	0d 0a       	sts	mach,r13
     6be:	0d 0a       	sts	mach,r13
     6c0:	0d 0a       	sts	mach,r13
     6c2:	0d 0a       	sts	mach,r13
     6c4:	0d 0a       	sts	mach,r13
     6c6:	0d 0a       	sts	mach,r13
     6c8:	0d 0a       	sts	mach,r13
     6ca:	0d 0a       	sts	mach,r13
     6cc:	0d 0a       	sts	mach,r13
     6ce:	0d 0a       	sts	mach,r13
     6d0:	0d 0a       	sts	mach,r13
     6d2:	0d 0a       	sts	mach,r13
     6d4:	0d 0a       	sts	mach,r13
     6d6:	0d 0a       	sts	mach,r13
     6d8:	0d 0a       	sts	mach,r13
     6da:	0d 0a       	sts	mach,r13
     6dc:	0d 0a       	sts	mach,r13
     6de:	0d 0a       	sts	mach,r13
     6e0:	0d 0a       	sts	mach,r13
     6e2:	0d 0a       	sts	mach,r13
     6e4:	0d 0a       	sts	mach,r13
     6e6:	0d 0a       	sts	mach,r13
     6e8:	0d 0a       	sts	mach,r13
     6ea:	0d 0a       	sts	mach,r13
     6ec:	0d 0a       	sts	mach,r13
     6ee:	0d 0a       	sts	mach,r13
     6f0:	0d 0a       	sts	mach,r13
     6f2:	0d 0a       	sts	mach,r13
     6f4:	0d 0a       	sts	mach,r13
     6f6:	0d 0a       	sts	mach,r13
     6f8:	0d 0a       	sts	mach,r13
     6fa:	0d 0a       	sts	mach,r13
     6fc:	0d 0a       	sts	mach,r13
     6fe:	0d 0a       	sts	mach,r13
	...
    1000:	46 fc       	shad	r15,r6
    1002:	27 00       	mov.b	r0,@r7
    1004:	0c b9       	.word 0x0cb9
    1006:	53 45       	mov.l	@(20,r4),r3
    1008:	47 41       	.word 0x4741
    100a:	00 00       	.word 0x0000
    100c:	5b dc       	mov.l	@(48,r13),r11
    100e:	66 f0       	mov.b	@r15,r6
    1010:	70 00       	add	#0,r0
    1012:	22 00       	mov.b	r0,@r2
    1014:	24 00       	mov.b	r0,@r4
    1016:	26 00       	mov.b	r0,@r6
    1018:	28 00       	mov.b	r0,@r8
    101a:	2a 00       	mov.b	r0,@r10
    101c:	2c 00       	mov.b	r0,@r12
    101e:	60 40       	mov.b	@r4,r0
    1020:	76 65       	add	#101,r6
    1022:	72 31       	add	#49,r2
    1024:	2e 32       	mov.l	r3,@r14
    1026:	39 69       	.word 0x3969
    1028:	39 35       	dmulu.l	r3,r9
    102a:	2f 30       	mov.b	r3,@r15
    102c:	33 2f       	addv	r2,r3
    102e:	31 33       	cmp/ge	r3,r1
    1030:	53 41       	mov.l	@(4,r4),r3
    1032:	54 55       	mov.l	@(20,r5),r4
    1034:	52 4e       	mov.l	@(56,r4),r2
    1036:	28 53       	.word 0x2853
    1038:	29 20       	mov.b	r2,@r9
    103a:	73 61       	add	#97,r3
    103c:	6d 70       	mov.b	@r7,r13
    103e:	6c 65       	mov.w	@r6+,r12
    1040:	4e 61       	.word 0x4e61
    1042:	6f 20       	mov.b	@r2,r15
    1044:	56 30       	mov.l	@(0,r3),r6
    1046:	2e 30       	mov.b	r3,@r14
    1048:	30 69       	.word 0x3069
    104a:	20 20       	mov.b	r2,@r0
    104c:	20 20       	mov.b	r2,@r0
    104e:	20 20       	mov.b	r2,@r0
    1050:	4b 61       	.word 0x4b61
    1052:	73 20       	add	#32,r3
    1054:	56 30       	mov.l	@(0,r3),r6
    1056:	2e 30       	mov.b	r3,@r14
    1058:	30 62       	cmp/hs	r6,r0
    105a:	20 20       	mov.b	r2,@r0
    105c:	20 20       	mov.b	r2,@r0
    105e:	20 20       	mov.b	r2,@r0
    1060:	2e 00       	mov.b	r0,@r14
    1062:	20 40       	mov.b	r4,@r0
    1064:	22 40       	mov.b	r4,@r2
    1066:	24 40       	mov.b	r4,@r4
    1068:	26 40       	mov.b	r4,@r6
    106a:	28 40       	mov.b	r4,@r8
    106c:	2a 40       	mov.b	r4,@r10
    106e:	2c 40       	mov.b	r4,@r12
    1070:	4d f8       	.word 0x4df8
    1072:	70 00       	add	#0,r0
    1074:	4f f9       	.word 0x4ff9
    1076:	00 00       	.word 0x0000
    1078:	a0 00       	bra	107c <_sddrv_129i+0x107c>
    107a:	4b f9       	.word 0x4bf9
    107c:	00 10       	.word 0x0010
    107e:	00 00       	.word 0x0000
    1080:	4e ba       	.word 0x4eba
    1082:	22 50       	mov.b	r5,@r2
    1084:	4e ba       	.word 0x4eba
    1086:	23 80       	mov.b	r8,@r3
    1088:	1b 7c       	mov.l	r7,@(48,r11)
    108a:	00 02       	stc	sr,r0
    108c:	04 00       	.word 0x0400
    108e:	46 fc       	shad	r15,r6
    1090:	20 00       	mov.b	r0,@r0
    1092:	54 6e       	mov.l	@(56,r6),r4
    1094:	18 64       	mov.l	r6,@(16,r8)
    1096:	70 00       	add	#0,r0
    1098:	10 2e       	mov.l	r2,@(56,r0)
    109a:	18 42       	mov.l	r4,@(8,r8)
    109c:	d0 40       	mov.l	11a0 <_sddrv_129i+0x11a0>,r0	! 8340007
    109e:	d0 40       	mov.l	11a0 <_sddrv_129i+0x11a0>,r0	! 8340007
    10a0:	72 00       	add	#0,r2
    10a2:	12 2e       	mov.l	r2,@(56,r2)
    10a4:	18 40       	mov.l	r4,@(0,r8)
    10a6:	d2 41       	mov.l	11ac <_sddrv_129i+0x11ac>,r2	! 1a344001
    10a8:	d2 41       	mov.l	11b0 <_sddrv_129i+0x11b0>,r2	! e94d8a74
    10aa:	b2 40       	bsr	152e <_sddrv_129i+0x152e>
    10ac:	67 04       	mov.b	@r0+,r7
    10ae:	4e ba       	.word 0x4eba
    10b0:	12 06       	mov.l	r0,@(24,r2)
    10b2:	10 38       	mov.l	r3,@(32,r0)
    10b4:	04 e1       	.word 0x04e1
    10b6:	d0 00       	mov.l	10b8 <_sddrv_129i+0x10b8>,r0	! 6a1e7800
    10b8:	6a 1e       	exts.b	r1,r10
    10ba:	78 00       	add	#0,r8
    10bc:	18 2e       	mov.l	r2,@(56,r8)
    10be:	18 43       	mov.l	r4,@(12,r8)
    10c0:	b8 2e       	bsr	120 <_sddrv_129i+0x120>
    10c2:	18 41       	mov.l	r4,@(4,r8)
    10c4:	67 12       	mov.l	@r1,r7
    10c6:	45 ee       	ldc	r5,r6_bank
    10c8:	1f 00       	mov.l	r0,@(0,r15)
    10ca:	10 32       	mov.l	r3,@(8,r0)
    10cc:	40 00       	shll	r0
    10ce:	1b 40       	mov.l	r4,@(0,r11)
    10d0:	04 07       	mul.l	r0,r4
    10d2:	52 04       	mov.l	@(16,r0),r2
    10d4:	1d 44       	mov.l	r4,@(16,r13)
    10d6:	18 43       	mov.l	r4,@(12,r8)
    10d8:	4e ba       	.word 0x4eba
    10da:	01 22       	stc	vbr,r1
    10dc:	30 2d       	dmuls.l	r2,r0
    10de:	04 20       	.word 0x0420
    10e0:	02 40       	.word 0x0240
    10e2:	00 40       	.word 0x0040
    10e4:	67 ac       	extu.b	r10,r7
    10e6:	3b 7c       	add	r7,r11
    10e8:	00 a7       	mul.l	r10,r0
    10ea:	04 18       	.word 0x0418
    10ec:	3b 7c       	add	r7,r11
    10ee:	00 40       	.word 0x0040
    10f0:	04 22       	stc	vbr,r4
    10f2:	52 2e       	mov.l	@(56,r2),r2
    10f4:	18 27       	mov.l	r2,@(28,r8)
    10f6:	4e 71       	.word 0x4e71
    10f8:	4e 71       	.word 0x4e71
    10fa:	4e 71       	.word 0x4e71
    10fc:	4e ba       	.word 0x4eba
    10fe:	00 7e       	mov.l	@(r0,r7),r0
    1100:	4e ba       	.word 0x4eba
    1102:	00 62       	stc	r6_bank,r0
    1104:	10 38       	mov.l	r3,@(32,r0)
    1106:	04 83       	pref	@r4
    1108:	b0 2e       	bsr	1168 <_sddrv_129i+0x1168>
    110a:	18 31       	mov.l	r3,@(4,r8)
    110c:	67 00       	mov.b	@r0,r7
    110e:	00 52       	stc	r5_bank,r0
    1110:	1d 40       	mov.l	r4,@(0,r13)
    1112:	18 31       	mov.l	r3,@(4,r8)
    1114:	6b 28       	swap.b	r2,r11
    1116:	4e ba       	.word 0x4eba
    1118:	03 ec       	mov.b	@(r0,r14),r3
    111a:	78 00       	add	#0,r8
    111c:	49 ee       	ldc	r9,r6_bank
    111e:	10 00       	mov.l	r0,@(0,r0)
    1120:	7e 1f       	add	#31,r14
    1122:	3a 34       	div1	r3,r10
    1124:	40 06       	lds.l	@r0+,mach
    1126:	1c 34       	mov.l	r3,@(16,r12)
    1128:	40 04       	rotl	r0
    112a:	e2 4c       	mov	#76,r2
    112c:	1b 86       	mov.l	r8,@(24,r11)
    112e:	40 16       	lds.l	@r0+,macl
    1130:	d8 44       	mov.l	1244 <_sddrv_129i+0x1244>,r8	! 80640
    1132:	06 44       	mov.b	r4,@(r0,r6)
    1134:	00 40       	.word 0x0040
    1136:	51 cf       	mov.l	@(60,r12),r1
    1138:	ff ea       	fmov	fr14,@r15
    113a:	60 00       	mov.b	@r0,r0
    113c:	00 24       	mov.b	r2,@(r0,r0)
    113e:	78 00       	add	#0,r8
    1140:	7e 11       	add	#17,r14
    1142:	02 75       	mov.w	r7,@(r0,r2)
    1144:	e0 e0       	mov	#-32,r0
    1146:	40 16       	lds.l	@r0+,macl
    1148:	06 44       	mov.b	r4,@(r0,r6)
    114a:	00 20       	.word 0x0020
    114c:	51 cf       	mov.l	@(60,r12),r1
    114e:	ff f4       	fcmp/eq	fr15,fr15
    1150:	7e 0d       	add	#13,r14
    1152:	02 35       	mov.w	r3,@(r0,r2)
    1154:	00 e0       	.word 0x00e0
    1156:	40 16       	lds.l	@r0+,macl
    1158:	06 44       	mov.b	r4,@(r0,r6)
    115a:	00 20       	.word 0x0020
    115c:	51 cf       	mov.l	@(60,r12),r1
    115e:	ff f4       	fcmp/eq	fr15,fr15
    1160:	60 00       	mov.b	@r0,r0
    1162:	ff 30       	fadd	fr3,fr15
    1164:	10 2e       	mov.l	r2,@(56,r0)
    1166:	18 27       	mov.l	r2,@(28,r8)
    1168:	02 00       	.word 0x0200
    116a:	00 03       	bsrf	r0
    116c:	66 0c       	extu.b	r0,r6
    116e:	42 47       	ldc.l	@r2+,spc
    1170:	1e 2e       	mov.l	r2,@(56,r14)
    1172:	18 30       	mov.l	r3,@(0,r8)
    1174:	67 04       	mov.b	@r0+,r7
    1176:	4e ba       	.word 0x4eba
    1178:	0e 18       	.word 0x0e18
    117a:	4e 75       	.word 0x4e75
    117c:	78 00       	add	#0,r8
    117e:	3a 3c       	add	r3,r10
    1180:	01 00       	.word 0x0100
    1182:	10 2e       	mov.l	r2,@(56,r0)
    1184:	18 27       	mov.l	r2,@(28,r8)
    1186:	02 40       	.word 0x0240
    1188:	00 03       	bsrf	r0
    118a:	d0 40       	mov.l	128c <_sddrv_129i+0x128c>,r0	! 59406a72
    118c:	4e fb       	.word 0x4efb
    118e:	00 02       	stc	sr,r0
    1190:	d8 45       	mov.l	12a8 <_sddrv_129i+0x12a8>,r8	! 22344010
    1192:	d8 45       	mov.l	12a8 <_sddrv_129i+0x12a8>,r8	! 22344010
    1194:	d8 45       	mov.l	12ac <_sddrv_129i+0x12ac>,r8	! 44812981
    1196:	49 ee       	ldc	r9,r6_bank
    1198:	10 00       	mov.l	r0,@(0,r0)
    119a:	7e 07       	add	#7,r14
    119c:	3a 04       	div1	r0,r10
    119e:	da 45       	mov.l	12b4 <_sddrv_129i+0x12b4>,r10	! 2c344014
    11a0:	08 34       	mov.b	r3,@(r0,r8)
    11a2:	00 07       	mul.l	r0,r0
    11a4:	50 34       	mov.l	@(16,r3),r0
    11a6:	66 4a       	negc	r4,r6
    11a8:	d8 44       	mov.l	12bc <_sddrv_129i+0x12bc>,r8	! 58420242
    11aa:	42 45       	.word 0x4245
    11ac:	1a 34       	mov.l	r3,@(16,r10)
    11ae:	40 01       	shlr	r0
    11b0:	e9 4d       	mov	#77,r9
    11b2:	8a 74       	.word 0x8a74
    11b4:	40 06       	lds.l	@r0+,mach
    11b6:	3a 36       	cmp/hi	r3,r10
    11b8:	50 08       	mov.l	@(32,r0),r0
    11ba:	20 34       	mov.b	r3,@-r0
    11bc:	40 08       	shll2	r0
    11be:	66 04       	mov.b	@r0+,r6
    11c0:	e2 4c       	mov	#76,r2
    11c2:	60 2e       	exts.b	r2,r0
    11c4:	24 40       	mov.b	r4,@r4
    11c6:	08 34       	mov.b	r3,@(r0,r8)
    11c8:	00 05       	mov.w	r0,@(r0,r0)
    11ca:	40 00       	shll	r0
    11cc:	67 04       	mov.b	@r0+,r7
    11ce:	4e ba       	.word 0x4eba
    11d0:	00 a6       	mov.l	r10,@(r0,r0)
    11d2:	08 34       	mov.b	r3,@(r0,r8)
    11d4:	00 06       	mov.l	r0,@(r0,r0)
    11d6:	40 00       	shll	r0
    11d8:	67 04       	mov.b	@r0+,r7
    11da:	4e ba       	.word 0x4eba
    11dc:	01 3c       	mov.b	@(r0,r3),r1
    11de:	ba 74       	bsr	6ca <_sddrv_129i+0x6ca>
    11e0:	40 38       	.word 0x4038
    11e2:	66 04       	mov.b	@r0+,r6
    11e4:	e2 4c       	mov	#76,r2
    11e6:	60 0a       	negc	r0,r0
    11e8:	39 85       	dmulu.l	r8,r9
    11ea:	40 38       	.word 0x4038
    11ec:	e2 4c       	mov	#76,r2
    11ee:	4e ba       	.word 0x4eba
    11f0:	1d 56       	mov.l	r5,@(24,r13)
    11f2:	06 44       	mov.b	r4,@(r0,r6)
    11f4:	00 20       	.word 0x0020
    11f6:	51 cf       	mov.l	@(60,r12),r1
    11f8:	ff a4       	fcmp/eq	fr10,fr15
    11fa:	4e 75       	.word 0x4e75
    11fc:	10 38       	mov.l	r3,@(32,r0)
    11fe:	04 e1       	.word 0x04e1
    1200:	6a 12       	mov.l	@r1,r10
    1202:	10 38       	mov.l	r3,@(32,r0)
    1204:	04 e0       	.word 0x04e0
    1206:	6a 0a       	negc	r0,r10
    1208:	4e ba       	.word 0x4eba
    120a:	00 0a       	sts	mach,r0
    120c:	02 38       	.word 0x0238
    120e:	00 7f       	mac.l	@r7+,@r0+
    1210:	04 e0       	.word 0x04e0
    1212:	4e 75       	.word 0x4e75
    1214:	30 3c       	add	r3,r0
    1216:	07 00       	.word 0x0700
    1218:	30 40       	cmp/eq	r4,r0
    121a:	1e 10       	mov.l	r1,@(0,r14)
    121c:	67 50       	mov.b	@r5,r7
    121e:	54 88       	mov.l	@(32,r8),r4
    1220:	3d 40       	cmp/eq	r4,r13
    1222:	18 34       	mov.l	r3,@(16,r8)
    1224:	48 e7       	ldc.l	@r8+,r6_bank
    1226:	80 40       	mov.b	r0,@(0,r4)
    1228:	30 2e       	addc	r2,r0
    122a:	18 3a       	mov.l	r3,@(40,r8)
    122c:	02 40       	.word 0x0240
    122e:	07 f0       	.word 0x07f0
    1230:	43 f8       	.word 0x43f8
    1232:	08 00       	.word 0x0800
    1234:	d2 c0       	mov.l	1538 <_sddrv_129i+0x1538>,r2	! 8f80000
    1236:	32 e8       	sub	r14,r2
    1238:	ff fe       	fmac	fr0,fr15,fr15
    123a:	22 e8       	tst	r14,r2
    123c:	00 00       	.word 0x0000
    123e:	22 e8       	tst	r14,r2
    1240:	00 04       	mov.b	r0,@(r0,r0)
    1242:	22 e8       	tst	r14,r2
    1244:	00 08       	clrt	
    1246:	06 40       	.word 0x0640
    1248:	00 10       	.word 0x0010
    124a:	3d 40       	cmp/eq	r4,r13
    124c:	18 3a       	mov.l	r3,@(40,r8)
    124e:	31 c0       	cmp/eq	r12,r1
    1250:	04 1a       	sts	macl,r4
    1252:	32 ae       	addc	r10,r2
    1254:	18 38       	mov.l	r3,@(32,r8)
    1256:	3d 7c       	add	r7,r13
    1258:	00 00       	.word 0x0000
    125a:	18 38       	mov.l	r3,@(32,r8)
    125c:	4c df       	mac.w	@r13+,@r12+
    125e:	02 01       	.word 0x0201
    1260:	4e ba       	.word 0x4eba
    1262:	04 a6       	mov.l	r10,@(r0,r4)
    1264:	30 2e       	addc	r2,r0
    1266:	18 34       	mov.l	r3,@(16,r8)
    1268:	30 40       	cmp/eq	r4,r0
    126a:	30 bc       	add	r11,r0
    126c:	00 00       	.word 0x0000
    126e:	06 00       	.word 0x0600
    1270:	00 10       	.word 0x0010
    1272:	6a a4       	mov.b	@r10+,r10
    1274:	4e 75       	.word 0x4e75
    1276:	30 34       	div1	r3,r0
    1278:	40 18       	shll8	r0
    127a:	67 0c       	extu.b	r0,r7
    127c:	59 40       	mov.l	@(0,r4),r9
    127e:	64 02       	mov.l	@r0,r4
    1280:	42 40       	.word 0x4240
    1282:	39 80       	cmp/eq	r8,r9
    1284:	40 18       	shll8	r0
    1286:	4e 75       	.word 0x4e75
    1288:	30 34       	div1	r3,r0
    128a:	40 1c       	shad	r1,r0
    128c:	59 40       	mov.l	@(0,r4),r9
    128e:	6a 72       	mov.l	@r7,r10
    1290:	34 00       	cmp/eq	r0,r4
    1292:	d0 74       	mov.l	1464 <_sddrv_129i+0x1464>,r0	! f41f8
    1294:	40 1a       	lds	r0,macl
    1296:	39 80       	cmp/eq	r8,r9
    1298:	40 1c       	shad	r1,r0
    129a:	72 00       	add	#0,r2
    129c:	30 34       	div1	r3,r0
    129e:	40 1e       	ldc	r0,gbr
    12a0:	67 12       	mov.l	@r1,r7
    12a2:	53 40       	mov.l	@(0,r4),r3
    12a4:	39 80       	cmp/eq	r8,r9
    12a6:	40 1e       	ldc	r0,gbr
    12a8:	22 34       	mov.b	r3,@-r2
    12aa:	40 10       	dt	r0
    12ac:	44 81       	.word 0x4481
    12ae:	29 81       	mov.w	r8,@r9
    12b0:	40 10       	dt	r0
    12b2:	44 81       	.word 0x4481
    12b4:	2c 34       	mov.b	r3,@-r12
    12b6:	40 14       	.word 0x4014
    12b8:	20 34       	mov.b	r3,@-r0
    12ba:	40 0c       	shad	r0,r0
    12bc:	58 42       	mov.l	@(8,r4),r8
    12be:	02 42       	stc	spc,r2
    12c0:	00 03       	bsrf	r0
    12c2:	d4 42       	mov.l	13cc <_sddrv_129i+0x13cc>,r4	! 60024e71
    12c4:	4e fb       	.word 0x4efb
    12c6:	20 02       	mov.l	r0,@r0
    12c8:	60 22       	mov.l	@r2,r0
    12ca:	60 18       	swap.b	r1,r0
    12cc:	60 0c       	extu.b	r0,r0
    12ce:	d0 86       	mov.l	14e8 <_sddrv_129i+0x14e8>,r0	! d0c0e748
    12d0:	d0 86       	mov.l	14ec <_sddrv_129i+0x14ec>,r0	! d0c0b1c9
    12d2:	d0 86       	mov.l	14ec <_sddrv_129i+0x14ec>,r0	! d0c0b1c9
    12d4:	dc 81       	mov.l	14dc <_sddrv_129i+0x14dc>,r12	! 2248d2e8
    12d6:	44 86       	.word 0x4486
    12d8:	60 1c       	extu.b	r1,r0
    12da:	d0 86       	mov.l	14f4 <_sddrv_129i+0x14f4>,r0	! 187e24d8
    12dc:	d0 86       	mov.l	14f8 <_sddrv_129i+0x14f8>,r0	! 24d824d8
    12de:	dc 81       	mov.l	14e4 <_sddrv_129i+0x14e4>,r12	! d040
    12e0:	44 86       	.word 0x4486
    12e2:	60 10       	mov.b	@r1,r0
    12e4:	d0 86       	mov.l	1500 <_sddrv_129i+0x1500>,r0	! 423
    12e6:	dc 81       	mov.l	14ec <_sddrv_129i+0x14ec>,r12	! d0c0b1c9
    12e8:	44 86       	.word 0x4486
    12ea:	60 06       	mov.l	@r0+,r0
    12ec:	dc 81       	mov.l	14f4 <_sddrv_129i+0x14f4>,r12	! 187e24d8
    12ee:	44 86       	.word 0x4486
    12f0:	d0 86       	mov.l	150c <_sddrv_129i+0x150c>,r0	! 18316b10
    12f2:	d0 86       	mov.l	150c <_sddrv_129i+0x150c>,r0	! 18316b10
    12f4:	d0 86       	mov.l	1510 <_sddrv_129i+0x1510>,r0	! 42441b98
    12f6:	d0 86       	mov.l	1510 <_sddrv_129i+0x1510>,r0	! 42441b98
    12f8:	29 86       	mov.l	r8,@-r9
    12fa:	40 14       	.word 0x4014
    12fc:	29 80       	mov.b	r8,@r9
    12fe:	40 0c       	shad	r0,r0
    1300:	60 10       	mov.b	@r1,r0
    1302:	39 80       	cmp/eq	r8,r9
    1304:	40 1c       	shad	r1,r0
    1306:	2c 34       	mov.b	r3,@-r12
    1308:	40 14       	.word 0x4014
    130a:	dc 86       	mov.l	1524 <_sddrv_129i+0x1524>,r12	! 20000e0
    130c:	dc 86       	mov.l	1528 <_sddrv_129i+0x1528>,r12	! 1b804017
    130e:	dd b4       	mov.l	15e0 <_sddrv_129i+0x15e0>,r13	! 7003e3c
    1310:	40 0c       	shad	r0,r0
    1312:	da 74       	mov.l	14e4 <_sddrv_129i+0x14e4>,r10	! d040
    1314:	40 0c       	shad	r0,r0
    1316:	4e 75       	.word 0x4e75
    1318:	42 40       	.word 0x4240
    131a:	10 34       	mov.l	r3,@(16,r0)
    131c:	40 2e       	ldc	r0,vbr
    131e:	22 3c       	cmp/str	r3,r2
    1320:	80 00       	mov.b	r0,@(0,r0)
    1322:	00 00       	.word 0x0000
    1324:	02 40       	.word 0x0240
    1326:	00 07       	mul.l	r0,r0
    1328:	d0 40       	mov.l	142c <_sddrv_129i+0x142c>,r0	! 4224df8
    132a:	d0 40       	mov.l	142c <_sddrv_129i+0x142c>,r0	! 4224df8
    132c:	4e fb       	.word 0x4efb
    132e:	00 02       	stc	sr,r0
    1330:	4e 75       	.word 0x4e75
    1332:	4e 75       	.word 0x4e75
    1334:	60 00       	mov.b	@r0,r0
    1336:	00 1a       	sts	macl,r0
    1338:	60 00       	mov.b	@r0,r0
    133a:	00 24       	mov.b	r2,@(r0,r0)
    133c:	60 00       	mov.b	@r0,r0
    133e:	00 28       	clrmac	
    1340:	60 00       	mov.b	@r0,r0
    1342:	00 2c       	mov.b	@(r0,r2),r0
    1344:	60 00       	mov.b	@r0,r0
    1346:	00 88       	.word 0x0088
    1348:	60 00       	mov.b	@r0,r0
    134a:	00 8c       	mov.b	@(r0,r8),r0
    134c:	60 00       	mov.b	@r0,r0
    134e:	00 80       	.word 0x0080
    1350:	59 74       	mov.l	@(16,r7),r9
    1352:	40 2c       	shad	r2,r0
    1354:	64 7a       	negc	r7,r4
    1356:	22 74       	mov.b	r7,@-r2
    1358:	40 30       	.word 0x4030
    135a:	54 49       	mov.l	@(36,r4),r4
    135c:	60 3c       	extu.b	r3,r0
    135e:	22 74       	mov.b	r7,@-r2
    1360:	40 30       	.word 0x4030
    1362:	58 49       	mov.l	@(36,r4),r8
    1364:	60 0e       	exts.b	r0,r0
    1366:	22 74       	mov.b	r7,@-r2
    1368:	40 30       	.word 0x4030
    136a:	5c 49       	mov.l	@(36,r4),r12
    136c:	60 06       	mov.l	@r0+,r0
    136e:	22 74       	mov.b	r7,@-r2
    1370:	40 30       	.word 0x4030
    1372:	50 49       	mov.l	@(36,r4),r0
    1374:	20 34       	mov.b	r3,@-r0
    1376:	40 20       	shal	r0
    1378:	24 34       	mov.b	r3,@-r4
    137a:	40 28       	shll16	r0
    137c:	d0 81       	mov.l	1584 <_sddrv_129i+0x1584>,r0	! 78001144
    137e:	d4 81       	mov.l	1584 <_sddrv_129i+0x1584>,r4	! 78001144
    1380:	2c 34       	mov.b	r3,@-r12
    1382:	40 24       	rotcl	r0
    1384:	6a 08       	swap.b	r0,r10
    1386:	d0 86       	mov.l	15a0 <_sddrv_129i+0x15a0>,r0	! 43f90000
    1388:	b4 80       	bsr	1c8c <_sddrv_129i+0x1c8c>
    138a:	65 3a       	negc	r3,r5
    138c:	60 06       	mov.l	@r0+,r0
    138e:	d0 86       	mov.l	15a8 <_sddrv_129i+0x15a8>,r0	! ff6700
    1390:	b0 82       	bsr	1498 <_sddrv_129i+0x1498>
    1392:	65 32       	mov.l	@r3,r5
    1394:	94 81       	mov.w	149a <_sddrv_129i+0x149a>,r4	! 2
    1396:	29 82       	mov.l	r8,@r9
    1398:	40 20       	shal	r0
    139a:	52 34       	mov.l	@(16,r3),r2
    139c:	40 2e       	ldc	r0,vbr
    139e:	10 19       	mov.l	r1,@(36,r0)
    13a0:	66 06       	mov.l	@r0+,r6
    13a2:	10 19       	mov.l	r1,@(36,r0)
    13a4:	67 00       	mov.b	@r0,r7
    13a6:	ff 72       	fmul	fr7,fr15
    13a8:	4e ba       	.word 0x4eba
    13aa:	27 8e       	mulu.w	r8,r7
    13ac:	48 40       	.word 0x4840
    13ae:	42 40       	.word 0x4240
    13b0:	e8 80       	mov	#-128,r8
    13b2:	29 80       	mov.b	r8,@r9
    13b4:	40 24       	rotcl	r0
    13b6:	10 11       	mov.l	r1,@(4,r0)
    13b8:	4e ba       	.word 0x4eba
    13ba:	29 9c       	cmp/str	r9,r9
    13bc:	48 40       	.word 0x4840
    13be:	42 40       	.word 0x4240
    13c0:	29 80       	mov.b	r8,@r9
    13c2:	40 28       	shll16	r0
    13c4:	60 0a       	negc	r0,r0
    13c6:	90 81       	mov.w	14cc <_sddrv_129i+0x14cc>,r0	! 3d43
    13c8:	29 80       	mov.b	r8,@r9
    13ca:	40 20       	shal	r0
    13cc:	60 02       	mov.l	@r0,r0
    13ce:	4e 71       	.word 0x4e71
    13d0:	da 74       	mov.l	15a4 <_sddrv_129i+0x15a4>,r10	! b0000240
    13d2:	40 20       	shal	r0
    13d4:	4e 75       	.word 0x4e75
    13d6:	20 34       	mov.b	r3,@-r0
    13d8:	40 20       	shal	r0
    13da:	24 34       	mov.b	r3,@-r4
    13dc:	40 28       	shll16	r0
    13de:	d0 81       	mov.l	15e4 <_sddrv_129i+0x15e4>,r0	! 13f7000
    13e0:	d4 81       	mov.l	15e8 <_sddrv_129i+0x15e8>,r4	! 20c051cf
    13e2:	2c 34       	mov.b	r3,@-r12
    13e4:	40 24       	rotcl	r0
    13e6:	6a 08       	swap.b	r0,r10
    13e8:	d0 86       	mov.l	1604 <_sddrv_129i+0x1604>,r0	! fe5e65f6
    13ea:	b4 80       	bsr	1cee <_sddrv_129i+0x1cee>
    13ec:	65 14       	mov.b	@r1+,r5
    13ee:	60 06       	mov.l	@r0+,r0
    13f0:	d0 86       	mov.l	160c <_sddrv_129i+0x160c>,r0	! d06e1800
    13f2:	b0 82       	bsr	14fa <_sddrv_129i+0x14fa>
    13f4:	65 0c       	extu.b	r0,r5
    13f6:	94 81       	mov.w	14fc <_sddrv_129i+0x14fc>,r4	! 24d8
    13f8:	29 82       	mov.l	r8,@r9
    13fa:	40 20       	shal	r0
    13fc:	52 34       	mov.l	@(16,r3),r2
    13fe:	40 2e       	ldc	r0,vbr
    1400:	60 06       	mov.l	@r0+,r0
    1402:	90 81       	mov.w	1508 <_sddrv_129i+0x1508>,r0	! 7e0f
    1404:	29 80       	mov.b	r8,@r9
    1406:	40 20       	shal	r0
    1408:	da 74       	mov.l	15dc <_sddrv_129i+0x15dc>,r10	! ffee41ed
    140a:	40 20       	shal	r0
    140c:	4e 75       	.word 0x4e75
    140e:	48 e7       	ldc.l	@r8+,r6_bank
    1410:	ff fe       	fmac	fr0,fr15,fr15
    1412:	4b f9       	.word 0x4bf9
    1414:	00 10       	.word 0x0010
    1416:	00 00       	.word 0x0000
    1418:	30 2d       	dmuls.l	r2,r0
    141a:	04 20       	.word 0x0420
    141c:	02 40       	.word 0x0240
    141e:	00 80       	.word 0x0080
    1420:	67 1e       	exts.b	r1,r7
    1422:	3b 7c       	add	r7,r11
    1424:	01 d4       	mov.b	r13,@(r0,r1)
    1426:	04 1a       	sts	macl,r4
    1428:	3b 7c       	add	r7,r11
    142a:	00 80       	.word 0x0080
    142c:	04 22       	stc	vbr,r4
    142e:	4d f8       	.word 0x4df8
    1430:	70 00       	add	#0,r0
    1432:	06 6e       	mov.l	@(r0,r6),r6
    1434:	00 c0       	.word 0x00c0
    1436:	18 1a       	mov.l	r1,@(40,r8)
    1438:	52 6e       	mov.l	@(56,r6),r2
    143a:	18 38       	mov.l	r3,@(32,r8)
    143c:	4e ba       	.word 0x4eba
    143e:	2d 34       	mov.b	r3,@-r13
    1440:	4c df       	mac.w	@r13+,@r12+
    1442:	7f ff       	add	#-1,r15
    1444:	4e 73       	stc.l	r7_bank,@-r14
    1446:	10 18       	mov.l	r1,@(32,r0)
    1448:	16 18       	mov.l	r1,@(32,r6)
    144a:	02 43       	.word 0x0243
    144c:	00 7f       	mac.l	@r7+,@r0+
    144e:	3d 43       	cmp/ge	r4,r13
    1450:	18 48       	mov.l	r4,@(32,r8)
    1452:	4e ba       	.word 0x4eba
    1454:	00 0e       	mov.l	@(r0,r0),r0
    1456:	65 00       	mov.b	@r0,r5
    1458:	00 54       	mov.b	r5,@(r0,r0)
    145a:	2d 42       	mov.l	r4,@r13
    145c:	18 4c       	mov.l	r4,@(48,r8)
    145e:	4e fa       	ldc	r14,dbr
    1460:	00 70       	.word 0x0070
    1462:	02 40       	.word 0x0240
    1464:	00 0f       	mac.l	@r0+,@r0+
    1466:	41 f8       	.word 0x41f8
    1468:	05 00       	.word 0x0500
    146a:	7e 1f       	add	#31,r14
    146c:	14 10       	mov.l	r1,@(0,r4)
    146e:	6b 32       	mov.l	@r3,r11
    1470:	16 02       	mov.l	r0,@(8,r6)
    1472:	02 02       	stc	sr,r2
    1474:	00 70       	.word 0x0070
    1476:	66 08       	swap.b	r0,r6
    1478:	02 03       	bsrf	r2
    147a:	00 0f       	mac.l	@r0+,@r0+
    147c:	b6 00       	bsr	2080 <_sddrv_129i+0x2080>
    147e:	67 0a       	negc	r0,r7
    1480:	41 e8       	.word 0x41e8
    1482:	00 08       	clrt	
    1484:	51 cf       	mov.l	@(60,r12),r1
    1486:	ff e6       	fmov	@(r0,r14),fr15
    1488:	60 18       	swap.b	r1,r0
    148a:	34 18       	sub	r1,r4
    148c:	02 42       	stc	spc,r2
    148e:	00 0f       	mac.l	@r0+,@r0+
    1490:	48 42       	.word 0x4842
    1492:	34 18       	sub	r1,r4
    1494:	16 10       	mov.l	r1,@(0,r6)
    1496:	6a 0a       	negc	r0,r10
    1498:	08 b8       	.word 0x08b8
    149a:	00 02       	stc	sr,r0
    149c:	04 23       	braf	r4
    149e:	80 40       	mov.b	r0,@(0,r4)
    14a0:	4e 75       	.word 0x4e75
    14a2:	08 f8       	.word 0x08f8
    14a4:	00 02       	stc	sr,r0
    14a6:	04 23       	braf	r4
    14a8:	00 3c       	mov.b	@(r0,r3),r0
    14aa:	00 01       	.word 0x0001
    14ac:	4e 75       	.word 0x4e75
    14ae:	34 2e       	addc	r2,r4
    14b0:	18 00       	mov.l	r0,@(0,r8)
    14b2:	e9 49       	mov	#73,r9
    14b4:	d4 41       	mov.l	15bc <_sddrv_129i+0x15bc>,r4	! 60f25288
    14b6:	20 36       	mov.l	r3,@-r0
    14b8:	20 04       	mov.b	r0,@-r0
    14ba:	67 00       	mov.b	@r0,r7
    14bc:	00 86       	mov.l	r8,@(r0,r0)
    14be:	08 b8       	.word 0x08b8
    14c0:	00 03       	bsrf	r0
    14c2:	04 23       	braf	r4
    14c4:	2d 40       	mov.b	r4,@r13
    14c6:	18 4c       	mov.l	r4,@(48,r8)
    14c8:	02 43       	.word 0x0243
    14ca:	00 7f       	mac.l	@r7+,@r0+
    14cc:	3d 43       	cmp/ge	r4,r13
    14ce:	18 48       	mov.l	r4,@(32,r8)
    14d0:	20 2e       	mulu.w	r2,r0
    14d2:	18 4c       	mov.l	r4,@(48,r8)
    14d4:	67 62       	mov.l	@r6,r7
    14d6:	20 40       	mov.b	r4,@r0
    14d8:	30 2e       	addc	r2,r0
    14da:	18 48       	mov.l	r4,@(32,r8)
    14dc:	22 48       	tst	r4,r2
    14de:	d2 e8       	mov.l	1880 <_sddrv_129i+0x1880>,r2	! d0404dee
    14e0:	00 02       	stc	sr,r0
    14e2:	d0 e8       	mov.l	1884 <_sddrv_129i+0x1884>,r0	! 1a00dcc0
    14e4:	00 00       	.word 0x0000
    14e6:	d0 40       	mov.l	15e8 <_sddrv_129i+0x15e8>,r0	! 20c051cf
    14e8:	d0 c0       	mov.l	17ec <_sddrv_129i+0x17ec>,r0	! ff964efa
    14ea:	e7 48       	mov	#72,r7
    14ec:	d0 c0       	mov.l	17f0 <_sddrv_129i+0x17f0>,r0	! ff924efa
    14ee:	b1 c9       	bsr	1884 <_sddrv_129i+0x1884>
    14f0:	64 46       	mov.l	@r4+,r4
    14f2:	45 ee       	ldc	r5,r6_bank
    14f4:	18 7e       	mov.l	r7,@(56,r8)
    14f6:	24 d8       	tst	r13,r4
    14f8:	24 d8       	tst	r13,r4
    14fa:	24 d8       	tst	r13,r4
    14fc:	24 d8       	tst	r13,r4
    14fe:	08 b8       	.word 0x08b8
    1500:	00 00       	.word 0x0000
    1502:	04 23       	braf	r4
    1504:	41 ee       	ldc	r1,r6_bank
    1506:	18 7e       	mov.l	r7,@(56,r8)
    1508:	7e 0f       	add	#15,r14
    150a:	18 2e       	mov.l	r2,@(56,r8)
    150c:	18 31       	mov.l	r3,@(4,r8)
    150e:	6b 10       	mov.b	@r1,r11
    1510:	42 44       	.word 0x4244
    1512:	1b 98       	mov.l	r9,@(32,r11)
    1514:	40 17       	ldc.l	@r0+,gbr
    1516:	06 44       	mov.b	r4,@(r0,r6)
    1518:	00 20       	.word 0x0020
    151a:	51 cf       	mov.l	@(60,r12),r1
    151c:	ff f6       	fmov	@(r0,r15),fr15
    151e:	4e 75       	.word 0x4e75
    1520:	42 44       	.word 0x4244
    1522:	10 18       	mov.l	r1,@(32,r0)
    1524:	02 00       	.word 0x0200
    1526:	00 e0       	.word 0x00e0
    1528:	1b 80       	mov.l	r8,@(0,r11)
    152a:	40 17       	ldc.l	@r0+,gbr
    152c:	06 44       	mov.b	r4,@(r0,r6)
    152e:	00 20       	.word 0x0020
    1530:	51 cf       	mov.l	@(60,r12),r1
    1532:	ff f0       	fadd	fr15,fr15
    1534:	80 40       	mov.b	r0,@(0,r4)
    1536:	4e 75       	.word 0x4e75
    1538:	08 f8       	.word 0x08f8
    153a:	00 00       	.word 0x0000
    153c:	04 23       	braf	r4
    153e:	4e fa       	ldc	r14,dbr
    1540:	1e 56       	mov.l	r5,@(24,r14)
    1542:	08 f8       	.word 0x08f8
    1544:	00 03       	bsrf	r0
    1546:	04 23       	braf	r4
    1548:	4e fa       	ldc	r14,dbr
    154a:	1e 4c       	mov.l	r4,@(48,r14)
    154c:	10 18       	mov.l	r1,@(32,r0)
    154e:	02 40       	.word 0x0240
    1550:	00 ff       	mac.l	@r15+,@r0+
    1552:	4e ba       	.word 0x4eba
    1554:	00 06       	mov.l	r0,@(r0,r0)
    1556:	4e fa       	ldc	r14,dbr
    1558:	1d 1a       	mov.l	r1,@(40,r13)
    155a:	41 f8       	.word 0x41f8
    155c:	05 00       	.word 0x0500
    155e:	7e 3f       	add	#63,r14
    1560:	78 00       	add	#0,r8
    1562:	20 c4       	mov.b	r12,@-r0
    1564:	51 cf       	mov.l	@(60,r12),r1
    1566:	ff fc       	fmov	fr15,fr15
    1568:	41 ee       	ldc	r1,r6_bank
    156a:	00 04       	mov.b	r0,@(r0,r0)
    156c:	3e 3c       	add	r3,r14
    156e:	00 ff       	mac.l	@r15+,@r0+
    1570:	78 00       	add	#0,r8
    1572:	20 84       	mov.b	r8,@-r0
    1574:	41 e8       	.word 0x41e8
    1576:	00 10       	.word 0x0010
    1578:	51 cf       	mov.l	@(60,r12),r1
    157a:	ff f8       	fmov	@r15,fr15
    157c:	41 ee       	ldc	r1,r6_bank
    157e:	10 00       	mov.l	r0,@(0,r0)
    1580:	3e 3c       	add	r3,r14
    1582:	00 1f       	mac.l	@r1+,@r0+
    1584:	78 00       	add	#0,r8
    1586:	11 44       	mov.l	r4,@(16,r1)
    1588:	00 00       	.word 0x0000
    158a:	11 44       	mov.l	r4,@(16,r1)
    158c:	00 34       	mov.b	r3,@(r0,r0)
    158e:	21 44       	mov.b	r4,@-r1
    1590:	00 08       	clrt	
    1592:	41 e8       	.word 0x41e8
    1594:	00 40       	.word 0x0040
    1596:	51 cf       	mov.l	@(60,r12),r1
    1598:	ff ee       	fmac	fr0,fr14,fr15
    159a:	41 f9       	.word 0x41f9
    159c:	00 00       	.word 0x0000
    159e:	a0 00       	bra	15a2 <_sddrv_129i+0x15a2>
    15a0:	43 f9       	.word 0x43f9
    15a2:	00 00       	.word 0x0000
    15a4:	b0 00       	bsr	15a8 <_sddrv_129i+0x15a8>
    15a6:	02 40       	.word 0x0240
    15a8:	00 ff       	mac.l	@r15+,@r0+
    15aa:	67 00       	mov.b	@r0,r7
    15ac:	00 18       	sett	
    15ae:	53 40       	mov.l	@(0,r4),r3
    15b0:	12 10       	mov.l	r1,@(0,r2)
    15b2:	6b 0a       	negc	r0,r11
    15b4:	41 e8       	.word 0x41e8
    15b6:	00 08       	clrt	
    15b8:	b3 c8       	bsr	1d4c <_sddrv_129i+0x1d4c>
    15ba:	65 3a       	negc	r3,r5
    15bc:	60 f2       	mov.l	@r15,r0
    15be:	52 88       	mov.l	@(32,r8),r2
    15c0:	51 c8       	mov.l	@(32,r12),r1
    15c2:	ff ee       	fmac	fr0,fr14,fr15
    15c4:	45 f8       	.word 0x45f8
    15c6:	05 00       	.word 0x0500
    15c8:	7e 1f       	add	#31,r14
    15ca:	14 d8       	mov.l	r13,@(32,r4)
    15cc:	14 d8       	mov.l	r13,@(32,r4)
    15ce:	14 d8       	mov.l	r13,@(32,r4)
    15d0:	14 d8       	mov.l	r13,@(32,r4)
    15d2:	14 d8       	mov.l	r13,@(32,r4)
    15d4:	14 d8       	mov.l	r13,@(32,r4)
    15d6:	14 d8       	mov.l	r13,@(32,r4)
    15d8:	14 d8       	mov.l	r13,@(32,r4)
    15da:	51 cf       	mov.l	@(60,r12),r1
    15dc:	ff ee       	fmac	fr0,fr14,fr15
    15de:	41 ed       	shld	r14,r1
    15e0:	07 00       	.word 0x0700
    15e2:	3e 3c       	add	r3,r14
    15e4:	01 3f       	mac.l	@r3+,@r1+
    15e6:	70 00       	add	#0,r0
    15e8:	20 c0       	mov.b	r12,@r0
    15ea:	51 cf       	mov.l	@(60,r12),r1
    15ec:	ff fc       	fmov	fr15,fr15
    15ee:	08 b8       	.word 0x08b8
    15f0:	00 01       	.word 0x0001
    15f2:	04 23       	braf	r4
    15f4:	4e 75       	.word 0x4e75
    15f6:	08 f8       	.word 0x08f8
    15f8:	00 01       	.word 0x0001
    15fa:	04 23       	braf	r4
    15fc:	4e 75       	.word 0x4e75
    15fe:	4e 75       	.word 0x4e75
    1600:	30 03       	cmp/ge	r0,r0
    1602:	4e ba       	.word 0x4eba
    1604:	fe 5e       	fmac	fr0,fr5,fr14
    1606:	65 f6       	mov.l	@r15+,r5
    1608:	30 01       	.word 0x3001
    160a:	e9 48       	mov	#72,r9
    160c:	d0 6e       	mov.l	17c8 <_sddrv_129i+0x17c8>,r0	! 54a4efa
    160e:	18 00       	mov.l	r0,@(0,r8)
    1610:	2d 82       	mov.l	r8,@r13
    1612:	00 04       	mov.b	r0,@(r0,r0)
    1614:	1d bc       	mov.l	r11,@(48,r13)
    1616:	00 7f       	mac.l	@r7+,@r0+
    1618:	00 02       	stc	sr,r0
    161a:	74 00       	add	#0,r4
    161c:	32 2e       	addc	r2,r2
    161e:	18 02       	mov.l	r0,@(8,r8)
    1620:	02 42       	stc	spc,r2
    1622:	00 7f       	mac.l	@r7+,@r0+
    1624:	30 2e       	addc	r2,r0
    1626:	18 0a       	mov.l	r0,@(40,r8)
    1628:	26 36       	mov.l	r3,@-r6
    162a:	00 04       	mov.b	r0,@(r0,r0)
    162c:	67 48       	swap.b	r4,r7
    162e:	20 43       	.word 0x2043
    1630:	08 b8       	.word 0x08b8
    1632:	00 04       	mov.b	r0,@(r0,r0)
    1634:	04 23       	braf	r4
    1636:	36 3c       	add	r3,r6
    1638:	00 08       	clrt	
    163a:	d6 42       	mov.l	1744 <_sddrv_129i+0x1744>,r6	! 4efa0590
    163c:	d6 42       	mov.l	1748 <_sddrv_129i+0x1748>,r6	! 4efa0644
    163e:	b6 68       	bsr	2312 <_sddrv_129i+0x2312>
    1640:	00 00       	.word 0x0000
    1642:	64 26       	mov.l	@r2+,r4
    1644:	08 b8       	.word 0x08b8
    1646:	00 05       	mov.w	r0,@(r0,r0)
    1648:	04 23       	braf	r4
    164a:	1d 82       	mov.l	r8,@(8,r13)
    164c:	00 00       	.word 0x0000
    164e:	76 00       	add	#0,r6
    1650:	3d 83       	cmp/ge	r8,r13
    1652:	00 08       	clrt	
    1654:	16 36       	mov.l	r3,@(24,r6)
    1656:	00 01       	.word 0x0001
    1658:	08 03       	bsrf	r8
    165a:	00 06       	mov.l	r0,@(r0,r0)
    165c:	66 08       	swap.b	r0,r6
    165e:	02 03       	bsrf	r2
    1660:	00 7f       	mac.l	@r7+,@r0+
    1662:	1d 83       	mov.l	r8,@(12,r13)
    1664:	00 01       	.word 0x0001
    1666:	80 40       	mov.b	r0,@(0,r4)
    1668:	4e 75       	.word 0x4e75
    166a:	08 f8       	.word 0x08f8
    166c:	00 05       	mov.w	r0,@(r0,r0)
    166e:	04 23       	braf	r4
    1670:	00 3c       	mov.b	@(r0,r3),r0
    1672:	00 01       	.word 0x0001
    1674:	4e 75       	.word 0x4e75
    1676:	08 f8       	.word 0x08f8
    1678:	00 04       	mov.b	r0,@(r0,r0)
    167a:	04 23       	braf	r4
    167c:	00 3c       	mov.b	@(r0,r3),r0
    167e:	00 01       	.word 0x0001
    1680:	4e 75       	.word 0x4e75
    1682:	08 f8       	.word 0x08f8
    1684:	00 06       	mov.l	r0,@(r0,r0)
    1686:	04 20       	.word 0x0420
    1688:	4e fa       	ldc	r14,dbr
    168a:	f9 76       	fmov	@(r0,r7),fr9
    168c:	08 f8       	.word 0x08f8
    168e:	00 07       	mul.l	r0,r0
    1690:	04 20       	.word 0x0420
    1692:	4e fa       	ldc	r14,dbr
    1694:	f9 6c       	fmov	fr6,fr9
    1696:	08 f8       	.word 0x08f8
    1698:	00 05       	mov.w	r0,@(r0,r0)
    169a:	04 20       	.word 0x0420
    169c:	4e fa       	ldc	r14,dbr
    169e:	f9 62       	fmul	fr6,fr9
    16a0:	72 1a       	add	#26,r2
    16a2:	60 00       	mov.b	@r0,r0
    16a4:	00 5e       	mov.l	@(r0,r5),r0
    16a6:	72 02       	add	#2,r2
    16a8:	60 00       	mov.b	@r0,r0
    16aa:	00 58       	sets	
    16ac:	72 03       	add	#3,r2
    16ae:	60 00       	mov.b	@r0,r0
    16b0:	00 52       	stc	r5_bank,r0
    16b2:	72 04       	add	#4,r2
    16b4:	60 00       	mov.b	@r0,r0
    16b6:	00 4c       	mov.b	@(r0,r4),r0
    16b8:	72 05       	add	#5,r2
    16ba:	60 00       	mov.b	@r0,r0
    16bc:	00 46       	mov.l	r4,@(r0,r0)
    16be:	72 06       	add	#6,r2
    16c0:	60 00       	mov.b	@r0,r0
    16c2:	00 40       	.word 0x0040
    16c4:	72 07       	add	#7,r2
    16c6:	60 00       	mov.b	@r0,r0
    16c8:	00 3a       	stc	sgr,r0
    16ca:	72 08       	add	#8,r2
    16cc:	60 00       	mov.b	@r0,r0
    16ce:	00 34       	mov.b	r3,@(r0,r0)
    16d0:	72 1b       	add	#27,r2
    16d2:	60 00       	mov.b	@r0,r0
    16d4:	00 2e       	mov.l	@(r0,r2),r0
    16d6:	72 1c       	add	#28,r2
    16d8:	60 00       	mov.b	@r0,r0
    16da:	00 28       	clrmac	
    16dc:	72 1d       	add	#29,r2
    16de:	60 00       	mov.b	@r0,r0
    16e0:	00 22       	stc	vbr,r0
    16e2:	72 1e       	add	#30,r2
    16e4:	60 00       	mov.b	@r0,r0
    16e6:	00 1c       	mov.b	@(r0,r1),r0
    16e8:	72 20       	add	#32,r2
    16ea:	60 00       	mov.b	@r0,r0
    16ec:	00 16       	mov.l	r1,@(r0,r0)
    16ee:	72 21       	add	#33,r2
    16f0:	60 00       	mov.b	@r0,r0
    16f2:	00 10       	.word 0x0010
    16f4:	72 23       	add	#35,r2
    16f6:	60 00       	mov.b	@r0,r0
    16f8:	00 0a       	sts	mach,r0
    16fa:	72 24       	add	#36,r2
    16fc:	60 00       	mov.b	@r0,r0
    16fe:	00 04       	mov.b	r0,@(r0,r0)
    1700:	72 25       	add	#37,r2
    1702:	31 c1       	.word 0x31c1
    1704:	04 16       	mov.l	r1,@(r0,r4)
    1706:	4e 75       	.word 0x4e75
    1708:	02 47       	mul.l	r4,r2
    170a:	00 ff       	mac.l	@r15+,@r0+
    170c:	1e 07       	mov.l	r0,@(28,r14)
    170e:	6a 58       	swap.b	r5,r10
    1710:	0c 47       	mul.l	r4,r12
    1712:	00 91       	.word 0x0091
    1714:	64 6c       	extu.b	r6,r4
    1716:	02 47       	mul.l	r4,r2
    1718:	00 0f       	mac.l	@r0+,@r0+
    171a:	de 47       	mov.l	1838 <_sddrv_129i+0x1838>,r14	! 80404e75
    171c:	de 47       	mov.l	183c <_sddrv_129i+0x183c>,r14	! 10184eba
    171e:	4e bb       	.word 0x4ebb
    1720:	70 04       	add	#4,r0
    1722:	60 5e       	exts.b	r5,r0
    1724:	4e fa       	ldc	r14,dbr
    1726:	02 50       	.word 0x0250
    1728:	4e fa       	ldc	r14,dbr
    172a:	02 90       	.word 0x0290
    172c:	4e fa       	ldc	r14,dbr
    172e:	02 d0       	.word 0x02d0
    1730:	4e fa       	ldc	r14,dbr
    1732:	02 d8       	.word 0x02d8
    1734:	4e fa       	ldc	r14,dbr
    1736:	02 dc       	mov.b	@(r0,r13),r2
    1738:	4e fa       	ldc	r14,dbr
    173a:	02 da       	.word 0x02da
    173c:	4e fa       	ldc	r14,dbr
    173e:	05 56       	mov.l	r5,@(r0,r5)
    1740:	4e fa       	ldc	r14,dbr
    1742:	fd 04       	fcmp/eq	fr0,fr13
    1744:	4e fa       	ldc	r14,dbr
    1746:	05 90       	.word 0x0590
    1748:	4e fa       	ldc	r14,dbr
    174a:	06 44       	mov.b	r4,@(r0,r6)
    174c:	4e fa       	ldc	r14,dbr
    174e:	04 a2       	stc	r2_bank,r4
    1750:	4e f9       	.word 0x4ef9
    1752:	00 00       	.word 0x0000
    1754:	17 82       	mov.l	r8,@(8,r7)
    1756:	4e f9       	.word 0x4ef9
    1758:	00 00       	.word 0x0000
    175a:	17 82       	mov.l	r8,@(8,r7)
    175c:	4e fa       	ldc	r14,dbr
    175e:	05 ae       	mov.l	@(r0,r10),r5
    1760:	4e fa       	ldc	r14,dbr
    1762:	00 20       	.word 0x0020
    1764:	4e fa       	ldc	r14,dbr
    1766:	00 1c       	mov.b	@(r0,r1),r0
    1768:	0c 47       	mul.l	r4,r12
    176a:	00 20       	.word 0x0020
    176c:	64 14       	mov.b	@r1+,r4
    176e:	de 47       	mov.l	188c <_sddrv_129i+0x188c>,r14	! 80404e75
    1770:	de 47       	mov.l	1890 <_sddrv_129i+0x1890>,r14	! 4eba2982
    1772:	28 4e       	mulu.w	r4,r8
    1774:	48 e7       	ldc.l	@r8+,r6_bank
    1776:	00 06       	mov.l	r0,@(r0,r0)
    1778:	4e bb       	.word 0x4ebb
    177a:	70 0c       	add	#12,r0
    177c:	4c df       	mac.w	@r13+,@r12+
    177e:	60 00       	mov.b	@r0,r0
    1780:	4e 75       	.word 0x4e75
    1782:	80 40       	mov.b	r0,@(0,r4)
    1784:	4e 75       	.word 0x4e75
    1786:	4e 75       	.word 0x4e75
    1788:	4e 71       	.word 0x4e71
    178a:	4e fa       	ldc	r14,dbr
    178c:	00 7a       	.word 0x007a
    178e:	4e fa       	ldc	r14,dbr
    1790:	00 94       	mov.b	r9,@(r0,r0)
    1792:	4e fa       	ldc	r14,dbr
    1794:	00 9e       	mov.l	@(r0,r9),r0
    1796:	4e fa       	ldc	r14,dbr
    1798:	00 a4       	mov.b	r10,@(r0,r0)
    179a:	4e fa       	ldc	r14,dbr
    179c:	00 aa       	.word 0x00aa
    179e:	4e fa       	ldc	r14,dbr
    17a0:	00 b4       	mov.b	r11,@(r0,r0)
    17a2:	4e fa       	ldc	r14,dbr
    17a4:	00 b8       	.word 0x00b8
    17a6:	4e fa       	ldc	r14,dbr
    17a8:	fd a4       	fcmp/eq	fr10,fr13
    17aa:	4e fa       	ldc	r14,dbr
    17ac:	00 be       	mov.l	@(r0,r11),r0
    17ae:	4e fa       	ldc	r14,dbr
    17b0:	00 e0       	.word 0x00e0
    17b2:	4e fa       	ldc	r14,dbr
    17b4:	00 e4       	mov.b	r14,@(r0,r0)
    17b6:	4e fa       	ldc	r14,dbr
    17b8:	00 e8       	.word 0x00e8
    17ba:	4e fa       	ldc	r14,dbr
    17bc:	00 f6       	mov.l	r15,@(r0,r0)
    17be:	4e fa       	ldc	r14,dbr
    17c0:	01 36       	mov.l	r3,@(r0,r1)
    17c2:	4e fa       	ldc	r14,dbr
    17c4:	ff be       	fmac	fr0,fr11,fr15
    17c6:	4e fa       	ldc	r14,dbr
    17c8:	05 4a       	.word 0x054a
    17ca:	4e fa       	ldc	r14,dbr
    17cc:	05 32       	stc	ssr,r5
    17ce:	4e fa       	ldc	r14,dbr
    17d0:	05 24       	mov.b	r2,@(r0,r5)
    17d2:	4e fa       	ldc	r14,dbr
    17d4:	ff ae       	fmac	fr0,fr10,fr15
    17d6:	4e fa       	ldc	r14,dbr
    17d8:	ff aa       	fmov	fr10,@r15
    17da:	4e fa       	ldc	r14,dbr
    17dc:	ff a6       	fmov	@(r0,r10),fr15
    17de:	4e fa       	ldc	r14,dbr
    17e0:	ff a2       	fmul	fr10,fr15
    17e2:	4e fa       	ldc	r14,dbr
    17e4:	ff 9e       	fmac	fr0,fr9,fr15
    17e6:	4e fa       	ldc	r14,dbr
    17e8:	ff 9a       	fmov	fr9,@r15
    17ea:	4e fa       	ldc	r14,dbr
    17ec:	ff 96       	fmov	@(r0,r9),fr15
    17ee:	4e fa       	ldc	r14,dbr
    17f0:	ff 92       	fmul	fr9,fr15
    17f2:	4e fa       	ldc	r14,dbr
    17f4:	ff 8e       	fmac	fr0,fr8,fr15
    17f6:	4e fa       	ldc	r14,dbr
    17f8:	ff 8a       	fmov	fr8,@r15
    17fa:	4e fa       	ldc	r14,dbr
    17fc:	ff 86       	fmov	@(r0,r8),fr15
    17fe:	4e fa       	ldc	r14,dbr
    1800:	ff 82       	fmul	fr8,fr15
    1802:	4e fa       	ldc	r14,dbr
    1804:	ff 7e       	fmac	fr0,fr7,fr15
    1806:	10 18       	mov.l	r1,@(32,r0)
    1808:	14 18       	mov.l	r1,@(32,r4)
    180a:	16 18       	mov.l	r1,@(32,r6)
    180c:	12 03       	mov.l	r0,@(12,r2)
    180e:	4e ba       	.word 0x4eba
    1810:	07 02       	stc	sr,r7
    1812:	65 0c       	extu.b	r0,r5
    1814:	16 01       	mov.l	r0,@(4,r6)
    1816:	12 18       	mov.l	r1,@(32,r2)
    1818:	14 18       	mov.l	r1,@(32,r4)
    181a:	20 4a       	xor	r4,r0
    181c:	4e ba       	.word 0x4eba
    181e:	26 d2       	mov.l	r13,@r6
    1820:	80 40       	mov.b	r0,@(0,r4)
    1822:	4e 75       	.word 0x4e75
    1824:	10 18       	mov.l	r1,@(32,r0)
    1826:	16 18       	mov.l	r1,@(32,r6)
    1828:	16 18       	mov.l	r1,@(32,r6)
    182a:	4e ba       	.word 0x4eba
    182c:	26 ce       	mulu.w	r12,r6
    182e:	80 40       	mov.b	r0,@(0,r4)
    1830:	4e 75       	.word 0x4e75
    1832:	10 18       	mov.l	r1,@(32,r0)
    1834:	4e ba       	.word 0x4eba
    1836:	26 ce       	mulu.w	r12,r6
    1838:	80 40       	mov.b	r0,@(0,r4)
    183a:	4e 75       	.word 0x4e75
    183c:	10 18       	mov.l	r1,@(32,r0)
    183e:	4e ba       	.word 0x4eba
    1840:	26 ce       	mulu.w	r12,r6
    1842:	80 40       	mov.b	r0,@(0,r4)
    1844:	4e 75       	.word 0x4e75
    1846:	10 18       	mov.l	r1,@(32,r0)
    1848:	12 18       	mov.l	r1,@(32,r2)
    184a:	14 18       	mov.l	r1,@(32,r4)
    184c:	4e ba       	.word 0x4eba
    184e:	26 ca       	xor	r12,r6
    1850:	80 40       	mov.b	r0,@(0,r4)
    1852:	4e 75       	.word 0x4e75
    1854:	4e ba       	.word 0x4eba
    1856:	2a 26       	mov.l	r2,@-r10
    1858:	4e fa       	ldc	r14,dbr
    185a:	1b 14       	mov.l	r1,@(16,r11)
    185c:	10 18       	mov.l	r1,@(32,r0)
    185e:	12 18       	mov.l	r1,@(32,r2)
    1860:	34 18       	sub	r1,r4
    1862:	4e ba       	.word 0x4eba
    1864:	29 cc       	cmp/str	r12,r9
    1866:	80 40       	mov.b	r0,@(0,r4)
    1868:	4e 75       	.word 0x4e75
    186a:	4d f8       	.word 0x4df8
    186c:	70 00       	add	#0,r0
    186e:	40 e7       	ldc.l	@r0+,r6_bank
    1870:	46 fc       	shad	r15,r6
    1872:	27 00       	mov.b	r0,@r7
    1874:	42 40       	.word 0x4240
    1876:	10 2e       	mov.l	r2,@(56,r0)
    1878:	18 40       	mov.l	r4,@(0,r8)
    187a:	52 2e       	mov.l	@(56,r2),r2
    187c:	18 40       	mov.l	r4,@(0,r8)
    187e:	d0 40       	mov.l	1980 <_sddrv_129i+0x1980>,r0	! 202001f
    1880:	d0 40       	mov.l	1984 <_sddrv_129i+0x1984>,r0	! 8002122e
    1882:	4d ee       	ldc	r13,r6_bank
    1884:	1a 00       	mov.l	r0,@(0,r10)
    1886:	dc c0       	mov.l	1b88 <_sddrv_129i+0x1b88>,r12	! 48474247
    1888:	2c d8       	tst	r13,r12
    188a:	46 df       	mac.w	@r13+,@r6+
    188c:	80 40       	mov.b	r0,@(0,r4)
    188e:	4e 75       	.word 0x4e75
    1890:	4e ba       	.word 0x4eba
    1892:	29 82       	mov.l	r8,@r9
    1894:	80 40       	mov.b	r0,@(0,r4)
    1896:	4e 75       	.word 0x4e75
    1898:	4e ba       	.word 0x4eba
    189a:	29 88       	tst	r8,r9
    189c:	80 40       	mov.b	r0,@(0,r4)
    189e:	4e 75       	.word 0x4e75
    18a0:	7e 7f       	add	#127,r14
    18a2:	70 00       	add	#0,r0
    18a4:	41 ed       	shld	r14,r1
    18a6:	08 00       	.word 0x0800
    18a8:	20 c0       	mov.b	r12,@r0
    18aa:	20 c0       	mov.b	r12,@r0
    18ac:	51 cf       	mov.l	@(60,r12),r1
    18ae:	ff fa       	fmov	fr15,@r15
    18b0:	4e 75       	.word 0x4e75
    18b2:	40 e7       	ldc.l	@r0+,r6_bank
    18b4:	46 fc       	shad	r15,r6
    18b6:	27 00       	mov.b	r0,@r7
    18b8:	4d f8       	.word 0x4df8
    18ba:	70 00       	add	#0,r0
    18bc:	30 2e       	addc	r2,r0
    18be:	18 34       	mov.l	r3,@(16,r8)
    18c0:	32 2e       	addc	r2,r2
    18c2:	18 3a       	mov.l	r3,@(40,r8)
    18c4:	34 2e       	addc	r2,r4
    18c6:	18 38       	mov.l	r3,@(32,r8)
    18c8:	48 e7       	ldc.l	@r8+,r6_bank
    18ca:	e0 00       	mov	#0,r0
    18cc:	4e ba       	.word 0x4eba
    18ce:	1a 04       	mov.l	r0,@(16,r10)
    18d0:	4e ba       	.word 0x4eba
    18d2:	1b 34       	mov.l	r3,@(16,r11)
    18d4:	70 00       	add	#0,r0
    18d6:	41 f8       	.word 0x41f8
    18d8:	07 80       	.word 0x0780
    18da:	20 c0       	mov.b	r12,@r0
    18dc:	20 c0       	mov.b	r12,@r0
    18de:	20 c0       	mov.b	r12,@r0
    18e0:	20 c0       	mov.b	r12,@r0
    18e2:	4c df       	mac.w	@r13+,@r12+
    18e4:	00 07       	mul.l	r0,r0
    18e6:	3d 40       	cmp/eq	r4,r13
    18e8:	18 34       	mov.l	r3,@(16,r8)
    18ea:	3d 41       	.word 0x3d41
    18ec:	18 3a       	mov.l	r3,@(40,r8)
    18ee:	3d 42       	cmp/hs	r4,r13
    18f0:	18 38       	mov.l	r3,@(32,r8)
    18f2:	46 df       	mac.w	@r13+,@r6+
    18f4:	4e 75       	.word 0x4e75
    18f6:	4d f8       	.word 0x4df8
    18f8:	70 00       	add	#0,r0
    18fa:	30 10       	cmp/eq	r1,r0
    18fc:	02 40       	.word 0x0240
    18fe:	07 00       	.word 0x0700
    1900:	d0 40       	mov.l	1a04 <_sddrv_129i+0x1a04>,r0	! 1b400401
    1902:	12 28       	mov.l	r2,@(32,r2)
    1904:	00 01       	.word 0x0001
    1906:	6a 14       	mov.b	@r1+,r10
    1908:	41 f6       	ldc.l	@r1+,dbr
    190a:	00 01       	.word 0x0001
    190c:	7e 0f       	add	#15,r14
    190e:	70 3f       	add	#63,r0
    1910:	c1 10       	mov.w	r0,@(32,gbr)
    1912:	41 e8       	.word 0x41e8
    1914:	00 10       	.word 0x0010
    1916:	51 cf       	mov.l	@(60,r12),r1
    1918:	ff f8       	fmov	@r15,fr15
    191a:	4e 75       	.word 0x4e75
    191c:	e4 09       	mov	#9,r4
    191e:	04 01       	.word 0x0401
    1920:	00 10       	.word 0x0010
    1922:	64 06       	mov.l	@r0+,r4
    1924:	46 01       	shlr	r6
    1926:	06 01       	.word 0x0601
    1928:	00 10       	.word 0x0010
    192a:	16 01       	mov.l	r0,@(4,r6)
    192c:	00 01       	.word 0x0001
    192e:	00 c0       	.word 0x00c0
    1930:	43 f6       	ldc.l	@r3+,dbr
    1932:	00 01       	.word 0x0001
    1934:	7e 0f       	add	#15,r14
    1936:	12 81       	mov.l	r8,@(4,r2)
    1938:	43 e9       	.word 0x43e9
    193a:	00 10       	.word 0x0010
    193c:	51 cf       	mov.l	@(60,r12),r1
    193e:	ff f8       	fmov	@r15,fr15
    1940:	18 2e       	mov.l	r2,@(56,r8)
    1942:	18 31       	mov.l	r3,@(4,r8)
    1944:	6a 02       	mov.l	@r0,r10
    1946:	76 00       	add	#0,r6
    1948:	41 ee       	ldc	r1,r6_bank
    194a:	10 00       	mov.l	r0,@(0,r0)
    194c:	7e 1f       	add	#31,r14
    194e:	78 00       	add	#0,r8
    1950:	b0 70       	bsr	1a34 <_sddrv_129i+0x1a34>
    1952:	40 06       	lds.l	@r0+,mach
    1954:	66 16       	mov.l	@r1+,r6
    1956:	e2 4c       	mov	#76,r2
    1958:	14 35       	mov.l	r3,@(20,r4)
    195a:	40 16       	lds.l	@r0+,macl
    195c:	02 02       	stc	sr,r2
    195e:	00 e0       	.word 0x00e0
    1960:	84 03       	mov.b	@(3,r0),r0
    1962:	1b 82       	mov.l	r8,@(8,r11)
    1964:	40 16       	lds.l	@r0+,macl
    1966:	d8 44       	mov.l	1a78 <_sddrv_129i+0x1a78>,r8	! 48474247
    1968:	11 82       	mov.l	r8,@(8,r1)
    196a:	40 04       	rotl	r0
    196c:	06 44       	mov.b	r4,@(r0,r6)
    196e:	00 40       	.word 0x0040
    1970:	51 cf       	mov.l	@(60,r12),r1
    1972:	ff de       	fmac	fr0,fr13,fr15
    1974:	4e 75       	.word 0x4e75
    1976:	10 18       	mov.l	r1,@(32,r0)
    1978:	02 00       	.word 0x0200
    197a:	00 e0       	.word 0x00e0
    197c:	14 2e       	mov.l	r2,@(56,r4)
    197e:	18 8e       	mov.l	r8,@(56,r8)
    1980:	02 02       	stc	sr,r2
    1982:	00 1f       	mac.l	@r1+,@r0+
    1984:	80 02       	mov.b	r0,@(2,r0)
    1986:	12 2e       	mov.l	r2,@(56,r2)
    1988:	18 31       	mov.l	r3,@(4,r8)
    198a:	6a 04       	mov.b	@r0+,r10
    198c:	02 00       	.word 0x0200
    198e:	00 e0       	.word 0x00e0
    1990:	1d 40       	mov.l	r4,@(0,r13)
    1992:	18 8e       	mov.l	r8,@(56,r8)
    1994:	1b 40       	mov.l	r4,@(0,r11)
    1996:	02 17       	mul.l	r1,r2
    1998:	10 18       	mov.l	r1,@(32,r0)
    199a:	02 00       	.word 0x0200
    199c:	00 e0       	.word 0x00e0
    199e:	14 2e       	mov.l	r2,@(56,r4)
    19a0:	18 8f       	mov.l	r8,@(60,r8)
    19a2:	02 02       	stc	sr,r2
    19a4:	00 1f       	mac.l	@r1+,@r0+
    19a6:	80 02       	mov.b	r0,@(2,r0)
    19a8:	12 01       	mov.l	r0,@(4,r2)
    19aa:	6a 04       	mov.b	@r0+,r10
    19ac:	02 00       	.word 0x0200
    19ae:	00 e0       	.word 0x00e0
    19b0:	1d 40       	mov.l	r4,@(0,r13)
    19b2:	18 8f       	mov.l	r8,@(60,r8)
    19b4:	1b 40       	mov.l	r4,@(0,r11)
    19b6:	02 37       	mul.l	r3,r2
    19b8:	4e 75       	.word 0x4e75
    19ba:	10 18       	mov.l	r1,@(32,r0)
    19bc:	02 00       	.word 0x0200
    19be:	00 1f       	mac.l	@r1+,@r0+
    19c0:	14 2e       	mov.l	r2,@(56,r4)
    19c2:	18 8e       	mov.l	r8,@(56,r8)
    19c4:	02 02       	stc	sr,r2
    19c6:	00 e0       	.word 0x00e0
    19c8:	80 02       	mov.b	r0,@(2,r0)
    19ca:	12 2e       	mov.l	r2,@(56,r2)
    19cc:	18 31       	mov.l	r3,@(4,r8)
    19ce:	6a 04       	mov.b	@r0+,r10
    19d0:	02 00       	.word 0x0200
    19d2:	00 e0       	.word 0x00e0
    19d4:	1d 40       	mov.l	r4,@(0,r13)
    19d6:	18 8e       	mov.l	r8,@(56,r8)
    19d8:	1b 40       	mov.l	r4,@(0,r11)
    19da:	02 17       	mul.l	r1,r2
    19dc:	10 18       	mov.l	r1,@(32,r0)
    19de:	02 00       	.word 0x0200
    19e0:	00 1f       	mac.l	@r1+,@r0+
    19e2:	14 2e       	mov.l	r2,@(56,r4)
    19e4:	18 8f       	mov.l	r8,@(60,r8)
    19e6:	02 02       	stc	sr,r2
    19e8:	00 e0       	.word 0x00e0
    19ea:	80 02       	mov.b	r0,@(2,r0)
    19ec:	12 01       	mov.l	r0,@(4,r2)
    19ee:	6a 04       	mov.b	@r0+,r10
    19f0:	02 00       	.word 0x0200
    19f2:	00 e0       	.word 0x00e0
    19f4:	1d 40       	mov.l	r4,@(0,r13)
    19f6:	18 8f       	mov.l	r8,@(60,r8)
    19f8:	1b 40       	mov.l	r4,@(0,r11)
    19fa:	02 37       	mul.l	r3,r2
    19fc:	4e 75       	.word 0x4e75
    19fe:	10 18       	mov.l	r1,@(32,r0)
    1a00:	02 00       	.word 0x0200
    1a02:	00 0f       	mac.l	@r0+,@r0+
    1a04:	1b 40       	mov.l	r4,@(0,r11)
    1a06:	04 01       	.word 0x0401
    1a08:	4e 75       	.word 0x4e75
    1a0a:	42 41       	.word 0x4241
    1a0c:	16 18       	mov.l	r1,@(32,r6)
    1a0e:	4e fa       	ldc	r14,dbr
    1a10:	0d c2       	stc	r4_bank,r13
    1a12:	4e 75       	.word 0x4e75
    1a14:	47 ee       	ldc	r7,r6_bank
    1a16:	18 90       	mov.l	r9,@(0,r8)
    1a18:	45 ee       	ldc	r5,r6_bank
    1a1a:	10 00       	mov.l	r0,@(0,r0)
    1a1c:	1e 28       	mov.l	r2,@(32,r14)
    1a1e:	00 00       	.word 0x0000
    1a20:	6a 00       	mov.b	@r0,r10
    1a22:	01 0c       	mov.b	@(r0,r0),r1
    1a24:	02 47       	mul.l	r4,r2
    1a26:	00 07       	mul.l	r0,r0
    1a28:	de 47       	mov.l	1b48 <_sddrv_129i+0x1b48>,r14	! 8b30007
    1a2a:	18 33       	mov.l	r3,@(12,r8)
    1a2c:	70 00       	add	#0,r0
    1a2e:	08 f3       	.word 0x08f3
    1a30:	00 07       	mul.l	r0,r0
    1a32:	70 00       	add	#0,r0
    1a34:	02 44       	mov.b	r4,@(r0,r2)
    1a36:	00 1f       	mac.l	@r1+,@r0+
    1a38:	ed 4c       	mov	#76,r13
    1a3a:	1a 33       	mov.l	r3,@(12,r10)
    1a3c:	70 01       	add	#1,r0
    1a3e:	08 f3       	.word 0x08f3
    1a40:	00 07       	mul.l	r0,r0
    1a42:	70 01       	add	#1,r0
    1a44:	02 45       	mov.w	r4,@(r0,r2)
    1a46:	00 1f       	mac.l	@r1+,@r0+
    1a48:	ed 4d       	mov	#77,r13
    1a4a:	10 28       	mov.l	r2,@(32,r0)
    1a4c:	00 00       	.word 0x0000
    1a4e:	1e 00       	mov.l	r0,@(0,r14)
    1a50:	02 40       	.word 0x0240
    1a52:	00 07       	mul.l	r0,r0
    1a54:	00 00       	.word 0x0000
    1a56:	00 80       	.word 0x0080
    1a58:	15 80       	mov.l	r8,@(0,r5)
    1a5a:	40 34       	.word 0x4034
    1a5c:	15 80       	mov.l	r8,@(0,r5)
    1a5e:	50 34       	mov.l	@(16,r3),r0
    1a60:	e2 4c       	mov	#76,r2
    1a62:	e2 4d       	mov	#77,r2
    1a64:	1b bc       	mov.l	r11,@(48,r11)
    1a66:	00 10       	.word 0x0010
    1a68:	40 00       	shll	r0
    1a6a:	1b bc       	mov.l	r11,@(48,r11)
    1a6c:	00 10       	.word 0x0010
    1a6e:	50 00       	mov.l	@(0,r0),r0
    1a70:	02 47       	mul.l	r4,r2
    1a72:	00 10       	.word 0x0010
    1a74:	00 47       	mul.l	r4,r0
    1a76:	00 20       	.word 0x0020
    1a78:	48 47       	ldc.l	@r8+,spc
    1a7a:	42 47       	ldc.l	@r2+,spc
    1a7c:	70 00       	add	#0,r0
    1a7e:	3b 80       	cmp/eq	r8,r11
    1a80:	40 04       	rotl	r0
    1a82:	3b 80       	cmp/eq	r8,r11
    1a84:	50 04       	mov.l	@(16,r0),r0
    1a86:	30 28       	sub	r2,r0
    1a88:	00 02       	stc	sr,r0
    1a8a:	e9 88       	mov	#-120,r9
    1a8c:	80 87       	mov.b	r0,@(7,r8)
    1a8e:	2b 80       	mov.b	r8,@r11
    1a90:	40 00       	shll	r0
    1a92:	72 00       	add	#0,r2
    1a94:	2b 81       	mov.w	r8,@r11
    1a96:	40 0c       	shad	r0,r0
    1a98:	2b 81       	mov.w	r8,@r11
    1a9a:	50 0c       	mov.l	@(48,r0),r0
    1a9c:	3b 81       	.word 0x3b81
    1a9e:	40 12       	sts.l	macl,@-r0
    1aa0:	3b 81       	.word 0x3b81
    1aa2:	50 12       	mov.l	@(8,r1),r0
    1aa4:	32 28       	sub	r2,r2
    1aa6:	00 04       	mov.b	r0,@(r0,r0)
    1aa8:	53 41       	mov.l	@(4,r4),r3
    1aaa:	3b 81       	.word 0x3b81
    1aac:	40 06       	lds.l	@r0+,mach
    1aae:	3b 81       	.word 0x3b81
    1ab0:	50 06       	mov.l	@(24,r0),r0
    1ab2:	52 81       	mov.l	@(4,r8),r2
    1ab4:	d0 81       	mov.l	1cbc <_sddrv_129i+0x1cbc>,r0	! 77001
    1ab6:	08 07       	mul.l	r0,r8
    1ab8:	00 14       	mov.b	r1,@(r0,r0)
    1aba:	66 02       	mov.l	@r0,r6
    1abc:	d0 81       	mov.l	1cc4 <_sddrv_129i+0x1cc4>,r0	! ed4c15bc
    1abe:	2b 80       	mov.b	r8,@r11
    1ac0:	50 00       	mov.l	@(0,r0),r0
    1ac2:	10 28       	mov.l	r2,@(32,r0)
    1ac4:	00 01       	.word 0x0001
    1ac6:	02 00       	.word 0x0200
    1ac8:	00 e0       	.word 0x00e0
    1aca:	00 00       	.word 0x0000
    1acc:	00 0f       	mac.l	@r0+,@r0+
    1ace:	08 2e       	mov.l	@(r0,r2),r8
    1ad0:	00 07       	mul.l	r0,r0
    1ad2:	18 31       	mov.l	r3,@(4,r8)
    1ad4:	67 04       	mov.b	@r0+,r7
    1ad6:	02 00       	.word 0x0200
    1ad8:	00 f0       	.word 0x00f0
    1ada:	1b 80       	mov.l	r8,@(0,r11)
    1adc:	40 16       	lds.l	@r0+,macl
    1ade:	d8 44       	mov.l	1bf0 <_sddrv_129i+0x1bf0>,r8	! 45ee1000
    1ae0:	15 80       	mov.l	r8,@(0,r5)
    1ae2:	40 04       	rotl	r0
    1ae4:	e2 4c       	mov	#76,r2
    1ae6:	00 00       	.word 0x0000
    1ae8:	00 10       	.word 0x0010
    1aea:	1b 80       	mov.l	r8,@(0,r11)
    1aec:	50 16       	mov.l	@(24,r1),r0
    1aee:	da 45       	mov.l	1c04 <_sddrv_129i+0x1c04>,r10	! 70006a5a
    1af0:	15 80       	mov.l	r8,@(0,r5)
    1af2:	50 04       	mov.l	@(16,r0),r0
    1af4:	e2 4d       	mov	#77,r2
    1af6:	20 3c       	cmp/str	r3,r0
    1af8:	00 1f       	mac.l	@r1+,@r0+
    1afa:	00 1f       	mac.l	@r1+,@r0+
    1afc:	2b 80       	mov.b	r8,@r11
    1afe:	40 08       	shll2	r0
    1b00:	2b 80       	mov.b	r8,@r11
    1b02:	50 08       	mov.l	@(32,r0),r0
    1b04:	10 28       	mov.l	r2,@(32,r0)
    1b06:	00 08       	clrt	
    1b08:	1b 80       	mov.l	r8,@(0,r11)
    1b0a:	40 15       	cmp/pl	r0
    1b0c:	10 28       	mov.l	r2,@(32,r0)
    1b0e:	00 09       	nop	
    1b10:	1b 80       	mov.l	r8,@(0,r11)
    1b12:	50 15       	mov.l	@(20,r1),r0
    1b14:	30 28       	sub	r2,r0
    1b16:	00 06       	mov.l	r0,@(r0,r0)
    1b18:	3b 80       	cmp/eq	r8,r11
    1b1a:	40 10       	dt	r0
    1b1c:	3b 80       	cmp/eq	r8,r11
    1b1e:	50 10       	mov.l	@(0,r1),r0
    1b20:	1b bc       	mov.l	r11,@(48,r11)
    1b22:	00 08       	clrt	
    1b24:	40 00       	shll	r0
    1b26:	1b bc       	mov.l	r11,@(48,r11)
    1b28:	00 18       	sett	
    1b2a:	50 00       	mov.l	@(0,r0),r0
    1b2c:	4e 75       	.word 0x4e75
    1b2e:	02 47       	mul.l	r4,r2
    1b30:	00 07       	mul.l	r0,r0
    1b32:	de 47       	mov.l	1c50 <_sddrv_129i+0x1c50>,r14	! 40103b80
    1b34:	18 33       	mov.l	r3,@(12,r8)
    1b36:	70 00       	add	#0,r0
    1b38:	08 f3       	.word 0x08f3
    1b3a:	00 07       	mul.l	r0,r0
    1b3c:	70 00       	add	#0,r0
    1b3e:	02 44       	mov.b	r4,@(r0,r2)
    1b40:	00 1f       	mac.l	@r1+,@r0+
    1b42:	ed 4c       	mov	#76,r13
    1b44:	1a 33       	mov.l	r3,@(12,r10)
    1b46:	70 01       	add	#1,r0
    1b48:	08 b3       	ocbwb	@r8
    1b4a:	00 07       	mul.l	r0,r0
    1b4c:	70 01       	add	#1,r0
    1b4e:	02 45       	mov.w	r4,@(r0,r2)
    1b50:	00 1f       	mac.l	@r1+,@r0+
    1b52:	ed 4d       	mov	#77,r13
    1b54:	10 28       	mov.l	r2,@(32,r0)
    1b56:	00 00       	.word 0x0000
    1b58:	1e 00       	mov.l	r0,@(0,r14)
    1b5a:	02 40       	.word 0x0240
    1b5c:	00 07       	mul.l	r0,r0
    1b5e:	00 00       	.word 0x0000
    1b60:	00 80       	.word 0x0080
    1b62:	15 80       	mov.l	r8,@(0,r5)
    1b64:	40 34       	.word 0x4034
    1b66:	10 32       	mov.l	r3,@(8,r0)
    1b68:	50 34       	mov.l	@(16,r3),r0
    1b6a:	15 bc       	mov.l	r11,@(48,r5)
    1b6c:	00 00       	.word 0x0000
    1b6e:	50 34       	mov.l	@(16,r3),r0
    1b70:	e2 4c       	mov	#76,r2
    1b72:	e2 4d       	mov	#77,r2
    1b74:	1b bc       	mov.l	r11,@(48,r11)
    1b76:	00 10       	.word 0x0010
    1b78:	40 00       	shll	r0
    1b7a:	1b bc       	mov.l	r11,@(48,r11)
    1b7c:	00 10       	.word 0x0010
    1b7e:	50 00       	mov.l	@(0,r0),r0
    1b80:	02 47       	mul.l	r4,r2
    1b82:	00 10       	.word 0x0010
    1b84:	00 47       	mul.l	r4,r0
    1b86:	00 20       	.word 0x0020
    1b88:	48 47       	ldc.l	@r8+,spc
    1b8a:	42 47       	ldc.l	@r2+,spc
    1b8c:	70 00       	add	#0,r0
    1b8e:	3b 80       	cmp/eq	r8,r11
    1b90:	40 04       	rotl	r0
    1b92:	30 28       	sub	r2,r0
    1b94:	00 02       	stc	sr,r0
    1b96:	e9 88       	mov	#-120,r9
    1b98:	80 87       	mov.b	r0,@(7,r8)
    1b9a:	2b 80       	mov.b	r8,@r11
    1b9c:	40 00       	shll	r0
    1b9e:	72 00       	add	#0,r2
    1ba0:	2b 81       	mov.w	r8,@r11
    1ba2:	40 0c       	shad	r0,r0
    1ba4:	3b 81       	.word 0x3b81
    1ba6:	40 12       	sts.l	macl,@-r0
    1ba8:	32 28       	sub	r2,r2
    1baa:	00 04       	mov.b	r0,@(r0,r0)
    1bac:	53 41       	mov.l	@(4,r4),r3
    1bae:	3b 81       	.word 0x3b81
    1bb0:	40 06       	lds.l	@r0+,mach
    1bb2:	10 28       	mov.l	r2,@(32,r0)
    1bb4:	00 01       	.word 0x0001
    1bb6:	08 2e       	mov.l	@(r0,r2),r8
    1bb8:	00 07       	mul.l	r0,r0
    1bba:	18 31       	mov.l	r3,@(4,r8)
    1bbc:	67 04       	mov.b	@r0+,r7
    1bbe:	02 00       	.word 0x0200
    1bc0:	00 f0       	.word 0x00f0
    1bc2:	1b 80       	mov.l	r8,@(0,r11)
    1bc4:	40 16       	lds.l	@r0+,macl
    1bc6:	d8 44       	mov.l	1cd8 <_sddrv_129i+0x1cd8>,r8	! 10180c40
    1bc8:	15 80       	mov.l	r8,@(0,r5)
    1bca:	40 04       	rotl	r0
    1bcc:	e2 4c       	mov	#76,r2
    1bce:	20 3c       	cmp/str	r3,r0
    1bd0:	00 1f       	mac.l	@r1+,@r0+
    1bd2:	00 1f       	mac.l	@r1+,@r0+
    1bd4:	2b 80       	mov.b	r8,@r11
    1bd6:	40 08       	shll2	r0
    1bd8:	10 28       	mov.l	r2,@(32,r0)
    1bda:	00 08       	clrt	
    1bdc:	1b 80       	mov.l	r8,@(0,r11)
    1bde:	40 15       	cmp/pl	r0
    1be0:	30 28       	sub	r2,r0
    1be2:	00 06       	mov.l	r0,@(r0,r0)
    1be4:	3b 80       	cmp/eq	r8,r11
    1be6:	40 10       	dt	r0
    1be8:	1b bc       	mov.l	r11,@(48,r11)
    1bea:	00 18       	sett	
    1bec:	40 00       	shll	r0
    1bee:	4e 75       	.word 0x4e75
    1bf0:	45 ee       	ldc	r5,r6_bank
    1bf2:	10 00       	mov.l	r0,@(0,r0)
    1bf4:	47 ee       	ldc	r7,r6_bank
    1bf6:	18 90       	mov.l	r9,@(0,r8)
    1bf8:	1e 28       	mov.l	r2,@(32,r14)
    1bfa:	00 00       	.word 0x0000
    1bfc:	02 47       	mul.l	r4,r2
    1bfe:	00 07       	mul.l	r0,r0
    1c00:	de 47       	mov.l	1d20 <_sddrv_129i+0x1d20>,r14	! 8048e7
    1c02:	18 33       	mov.l	r3,@(12,r8)
    1c04:	70 00       	add	#0,r0
    1c06:	6a 5a       	negc	r5,r10
    1c08:	1a 33       	mov.l	r3,@(12,r10)
    1c0a:	70 01       	add	#1,r0
    1c0c:	6a 56       	mov.l	@r5+,r10
    1c0e:	02 44       	mov.b	r4,@(r0,r2)
    1c10:	00 1f       	mac.l	@r1+,@r0+
    1c12:	02 45       	mov.w	r4,@(r0,r2)
    1c14:	00 1f       	mac.l	@r1+,@r0+
    1c16:	eb 4c       	mov	#76,r11
    1c18:	eb 4d       	mov	#77,r11
    1c1a:	10 28       	mov.l	r2,@(32,r0)
    1c1c:	00 01       	.word 0x0001
    1c1e:	02 00       	.word 0x0200
    1c20:	00 e0       	.word 0x00e0
    1c22:	08 2e       	mov.l	@(r0,r2),r8
    1c24:	00 07       	mul.l	r0,r0
    1c26:	18 31       	mov.l	r3,@(4,r8)
    1c28:	66 04       	mov.b	@r0+,r6
    1c2a:	00 00       	.word 0x0000
    1c2c:	00 0f       	mac.l	@r0+,@r0+
    1c2e:	1b 80       	mov.l	r8,@(0,r11)
    1c30:	40 16       	lds.l	@r0+,macl
    1c32:	d8 44       	mov.l	1d44 <_sddrv_129i+0x1d44>,r8	! 4ebaff56
    1c34:	15 80       	mov.l	r8,@(0,r5)
    1c36:	40 04       	rotl	r0
    1c38:	e2 4c       	mov	#76,r2
    1c3a:	00 00       	.word 0x0000
    1c3c:	00 10       	.word 0x0010
    1c3e:	1b 80       	mov.l	r8,@(0,r11)
    1c40:	50 16       	mov.l	@(24,r1),r0
    1c42:	da 45       	mov.l	1d58 <_sddrv_129i+0x1d58>,r10	! 2171b40
    1c44:	15 80       	mov.l	r8,@(0,r5)
    1c46:	50 04       	mov.l	@(16,r0),r0
    1c48:	e2 4d       	mov	#77,r2
    1c4a:	30 28       	sub	r2,r0
    1c4c:	00 02       	stc	sr,r0
    1c4e:	3b 80       	cmp/eq	r8,r11
    1c50:	40 10       	dt	r0
    1c52:	3b 80       	cmp/eq	r8,r11
    1c54:	50 10       	mov.l	@(0,r1),r0
    1c56:	1b a8       	mov.l	r10,@(32,r11)
    1c58:	00 04       	mov.b	r0,@(r0,r0)
    1c5a:	40 15       	cmp/pl	r0
    1c5c:	1b a8       	mov.l	r10,@(32,r11)
    1c5e:	00 05       	mov.w	r0,@(r0,r0)
    1c60:	50 15       	mov.l	@(20,r1),r0
    1c62:	4e 75       	.word 0x4e75
    1c64:	02 44       	mov.b	r4,@(r0,r2)
    1c66:	00 1f       	mac.l	@r1+,@r0+
    1c68:	eb 4c       	mov	#76,r11
    1c6a:	10 28       	mov.l	r2,@(32,r0)
    1c6c:	00 01       	.word 0x0001
    1c6e:	08 2e       	mov.l	@(r0,r2),r8
    1c70:	00 07       	mul.l	r0,r0
    1c72:	18 31       	mov.l	r3,@(4,r8)
    1c74:	67 04       	mov.b	@r0+,r7
    1c76:	02 00       	.word 0x0200
    1c78:	00 e0       	.word 0x00e0
    1c7a:	1b 80       	mov.l	r8,@(0,r11)
    1c7c:	40 16       	lds.l	@r0+,macl
    1c7e:	d8 44       	mov.l	1d90 <_sddrv_129i+0x1d90>,r8	! c000008
    1c80:	15 80       	mov.l	r8,@(0,r5)
    1c82:	40 04       	rotl	r0
    1c84:	e2 4c       	mov	#76,r2
    1c86:	3b a8       	sub	r10,r11
    1c88:	00 02       	stc	sr,r0
    1c8a:	40 10       	dt	r0
    1c8c:	1b a8       	mov.l	r10,@(32,r11)
    1c8e:	00 04       	mov.b	r0,@(r0,r0)
    1c90:	40 15       	cmp/pl	r0
    1c92:	4e 75       	.word 0x4e75
    1c94:	1e 10       	mov.l	r1,@(0,r14)
    1c96:	02 47       	mul.l	r4,r2
    1c98:	00 07       	mul.l	r0,r0
    1c9a:	de 47       	mov.l	1db8 <_sddrv_129i+0x1db8>,r14	! 4efa00e2
    1c9c:	47 ee       	ldc	r7,r6_bank
    1c9e:	18 90       	mov.l	r9,@(0,r8)
    1ca0:	45 ee       	ldc	r5,r6_bank
    1ca2:	10 00       	mov.l	r0,@(0,r0)
    1ca4:	18 33       	mov.l	r3,@(12,r8)
    1ca6:	70 00       	add	#0,r0
    1ca8:	6a 0a       	negc	r0,r10
    1caa:	08 b3       	ocbwb	@r8
    1cac:	00 07       	mul.l	r0,r0
    1cae:	70 00       	add	#0,r0
    1cb0:	4e ba       	.word 0x4eba
    1cb2:	00 0e       	mov.l	@(r0,r0),r0
    1cb4:	18 33       	mov.l	r3,@(12,r8)
    1cb6:	70 01       	add	#1,r0
    1cb8:	6a 1a       	negc	r1,r10
    1cba:	08 b3       	ocbwb	@r8
    1cbc:	00 07       	mul.l	r0,r0
    1cbe:	70 01       	add	#1,r0
    1cc0:	02 44       	mov.b	r4,@(r0,r2)
    1cc2:	00 1f       	mac.l	@r1+,@r0+
    1cc4:	ed 4c       	mov	#76,r13
    1cc6:	15 bc       	mov.l	r11,@(48,r5)
    1cc8:	00 00       	.word 0x0000
    1cca:	40 34       	.word 0x4034
    1ccc:	e2 4c       	mov	#76,r2
    1cce:	1b bc       	mov.l	r11,@(48,r11)
    1cd0:	00 10       	.word 0x0010
    1cd2:	40 00       	shll	r0
    1cd4:	4e 75       	.word 0x4e75
    1cd6:	42 40       	.word 0x4240
    1cd8:	10 18       	mov.l	r1,@(32,r0)
    1cda:	0c 40       	.word 0x0c40
    1cdc:	00 12       	stc	gbr,r0
    1cde:	64 00       	mov.b	@r0,r4
    1ce0:	00 12       	stc	gbr,r0
    1ce2:	12 10       	mov.l	r1,@(0,r2)
    1ce4:	43 ee       	ldc	r3,r6_bank
    1ce6:	18 7e       	mov.l	r7,@(56,r8)
    1ce8:	13 81       	mov.l	r8,@(4,r3)
    1cea:	00 00       	.word 0x0000
    1cec:	eb 48       	mov	#72,r11
    1cee:	1b 81       	mov.l	r8,@(4,r11)
    1cf0:	00 17       	mul.l	r1,r0
    1cf2:	4e 75       	.word 0x4e75
    1cf4:	10 18       	mov.l	r1,@(32,r0)
    1cf6:	12 18       	mov.l	r1,@(32,r2)
    1cf8:	61 00       	mov.b	@r0,r1
    1cfa:	22 b6       	mov.l	r11,@-r2
    1cfc:	4e 75       	.word 0x4e75
    1cfe:	10 18       	mov.l	r1,@(32,r0)
    1d00:	12 18       	mov.l	r1,@(32,r2)
    1d02:	14 18       	mov.l	r1,@(32,r4)
    1d04:	16 18       	mov.l	r1,@(32,r6)
    1d06:	61 00       	mov.b	@r0,r1
    1d08:	22 f4       	mov.b	r15,@-r2
    1d0a:	4e 75       	.word 0x4e75
    1d0c:	61 00       	mov.b	@r0,r1
    1d0e:	32 6a       	subc	r6,r2
    1d10:	4e 75       	.word 0x4e75
    1d12:	40 e7       	ldc.l	@r0+,r6_bank
    1d14:	46 fc       	shad	r15,r6
    1d16:	27 00       	mov.b	r0,@r7
    1d18:	10 18       	mov.l	r1,@(32,r0)
    1d1a:	53 00       	mov.l	@(0,r0),r3
    1d1c:	66 1c       	extu.b	r1,r6
    1d1e:	48 e7       	ldc.l	@r8+,r6_bank
    1d20:	00 80       	.word 0x0080
    1d22:	48 e7       	ldc.l	@r8+,r6_bank
    1d24:	00 04       	mov.b	r0,@(r0,r0)
    1d26:	4e ba       	.word 0x4eba
    1d28:	25 54       	mov.b	r5,@-r5
    1d2a:	4c df       	mac.w	@r13+,@r12+
    1d2c:	20 00       	mov.b	r0,@r0
    1d2e:	4e ba       	.word 0x4eba
    1d30:	16 3e       	mov.l	r3,@(56,r6)
    1d32:	4e ba       	.word 0x4eba
    1d34:	16 2a       	mov.l	r2,@(40,r6)
    1d36:	4c df       	mac.w	@r13+,@r12+
    1d38:	01 00       	.word 0x0100
    1d3a:	10 18       	mov.l	r1,@(32,r0)
    1d3c:	53 00       	mov.l	@(0,r0),r3
    1d3e:	66 0e       	exts.b	r0,r6
    1d40:	72 07       	add	#7,r2
    1d42:	7e 00       	add	#0,r14
    1d44:	4e ba       	.word 0x4eba
    1d46:	ff 56       	fmov	@(r0,r5),fr15
    1d48:	54 47       	mov.l	@(28,r4),r4
    1d4a:	51 c9       	mov.l	@(36,r12),r1
    1d4c:	ff f8       	fmov	@r15,fr15
    1d4e:	10 18       	mov.l	r1,@(32,r0)
    1d50:	53 00       	mov.l	@(0,r0),r3
    1d52:	66 0a       	negc	r0,r6
    1d54:	70 00       	add	#0,r0
    1d56:	1b 40       	mov.l	r4,@(0,r11)
    1d58:	02 17       	mul.l	r1,r2
    1d5a:	1b 40       	mov.l	r4,@(0,r11)
    1d5c:	02 37       	mul.l	r3,r2
    1d5e:	10 18       	mov.l	r1,@(32,r0)
    1d60:	53 00       	mov.l	@(0,r0),r3
    1d62:	66 1c       	extu.b	r1,r6
    1d64:	4e ba       	.word 0x4eba
    1d66:	16 1c       	mov.l	r1,@(48,r6)
    1d68:	4e ba       	.word 0x4eba
    1d6a:	16 2c       	mov.l	r2,@(48,r6)
    1d6c:	4e ba       	.word 0x4eba
    1d6e:	16 4c       	mov.l	r4,@(48,r6)
    1d70:	4e ba       	.word 0x4eba
    1d72:	16 52       	mov.l	r5,@(8,r6)
    1d74:	4e ba       	.word 0x4eba
    1d76:	16 56       	mov.l	r5,@(24,r6)
    1d78:	4e ba       	.word 0x4eba
    1d7a:	16 5a       	mov.l	r5,@(40,r6)
    1d7c:	4e ba       	.word 0x4eba
    1d7e:	f7 86       	fmov	@(r0,r8),fr7
    1d80:	10 18       	mov.l	r1,@(32,r0)
    1d82:	53 00       	mov.l	@(0,r0),r3
    1d84:	66 04       	mov.b	@r0+,r6
    1d86:	4e ba       	.word 0x4eba
    1d88:	16 0e       	mov.l	r0,@(56,r6)
    1d8a:	46 df       	mac.w	@r13+,@r6+
    1d8c:	4e 75       	.word 0x4e75
    1d8e:	10 18       	mov.l	r1,@(32,r0)
    1d90:	0c 00       	.word 0x0c00
    1d92:	00 08       	clrt	
    1d94:	64 00       	mov.b	@r0,r4
    1d96:	f9 ec       	fmov	fr14,fr9
    1d98:	02 40       	.word 0x0240
    1d9a:	00 07       	mul.l	r0,r0
    1d9c:	d0 40       	mov.l	1ea0 <_sddrv_129i+0x1ea0>,r0	! 6004143c
    1d9e:	d0 40       	mov.l	1ea0 <_sddrv_129i+0x1ea0>,r0	! 6004143c
    1da0:	4e bb       	.word 0x4ebb
    1da2:	00 06       	mov.l	r0,@(r0,r0)
    1da4:	60 00       	mov.b	@r0,r0
    1da6:	f9 dc       	fmov	fr13,fr9
    1da8:	4e fa       	ldc	r14,dbr
    1daa:	00 1e       	mov.l	@(r0,r1),r0
    1dac:	4e fa       	ldc	r14,dbr
    1dae:	00 1e       	mov.l	@(r0,r1),r0
    1db0:	4e fa       	ldc	r14,dbr
    1db2:	00 84       	mov.b	r8,@(r0,r0)
    1db4:	4e fa       	ldc	r14,dbr
    1db6:	00 e0       	.word 0x00e0
    1db8:	4e fa       	ldc	r14,dbr
    1dba:	00 e2       	stc	r6_bank,r0
    1dbc:	4e fa       	ldc	r14,dbr
    1dbe:	00 e4       	mov.b	r14,@(r0,r0)
    1dc0:	4e fa       	ldc	r14,dbr
    1dc2:	f9 c0       	fadd	fr12,fr9
    1dc4:	4e fa       	ldc	r14,dbr
    1dc6:	f9 bc       	fmov	fr11,fr9
    1dc8:	7c 06       	add	#6,r12
    1dca:	60 02       	mov.l	@r0,r0
    1dcc:	7c 0e       	add	#14,r12
    1dce:	40 e7       	ldc.l	@r0+,r6_bank
    1dd0:	46 fc       	shad	r15,r6
    1dd2:	27 00       	mov.b	r0,@r7
    1dd4:	4b f9       	.word 0x4bf9
    1dd6:	00 10       	.word 0x0010
    1dd8:	00 00       	.word 0x0000
    1dda:	41 ed       	shld	r14,r1
    1ddc:	07 00       	.word 0x0700
    1dde:	3e 3c       	add	r3,r14
    1de0:	01 3f       	mac.l	@r3+,@r1+
    1de2:	70 00       	add	#0,r0
    1de4:	20 c0       	mov.b	r12,@r0
    1de6:	51 cf       	mov.l	@(60,r12),r1
    1de8:	ff fc       	fmov	fr15,fr15
    1dea:	36 3c       	add	r3,r6
    1dec:	7f ff       	add	#-1,r15
    1dee:	41 f9       	.word 0x41f9
    1df0:	00 01       	.word 0x0001
    1df2:	00 00       	.word 0x0000
    1df4:	4e ba       	.word 0x4eba
    1df6:	00 12       	stc	gbr,r0
    1df8:	65 06       	mov.l	@r0+,r5
    1dfa:	51 ce       	mov.l	@(56,r12),r1
    1dfc:	ff f8       	fmov	@r15,fr15
    1dfe:	52 43       	mov.l	@(12,r4),r2
    1e00:	31 c3       	cmp/ge	r12,r1
    1e02:	04 18       	.word 0x0418
    1e04:	46 df       	mac.w	@r13+,@r6+
    1e06:	4e 75       	.word 0x4e75
    1e08:	22 3c       	cmp/str	r3,r2
    1e0a:	55 55       	mov.l	@(20,r5),r5
    1e0c:	55 55       	mov.l	@(20,r5),r5
    1e0e:	24 3c       	cmp/str	r3,r4
    1e10:	aa aa       	bra	1368 <_sddrv_129i+0x1368>
    1e12:	aa aa       	bra	136a <_sddrv_129i+0x136a>
    1e14:	3e 3c       	add	r3,r14
    1e16:	3f ff       	addv	r15,r15
    1e18:	20 10       	mov.b	r1,@r0
    1e1a:	20 81       	mov.w	r8,@r0
    1e1c:	b2 90       	bsr	2340 <_sddrv_129i+0x2340>
    1e1e:	66 10       	mov.b	@r1,r6
    1e20:	20 82       	mov.l	r8,@r0
    1e22:	b4 90       	bsr	2746 <_sddrv_129i+0x2746>
    1e24:	66 0a       	negc	r0,r6
    1e26:	20 c0       	mov.b	r12,@r0
    1e28:	51 cf       	mov.l	@(60,r12),r1
    1e2a:	ff ee       	fmac	fr0,fr14,fr15
    1e2c:	80 40       	mov.b	r0,@(0,r4)
    1e2e:	4e 75       	.word 0x4e75
    1e30:	00 3c       	mov.b	@(r0,r3),r0
    1e32:	00 01       	.word 0x0001
    1e34:	4e 75       	.word 0x4e75
    1e36:	4b f9       	.word 0x4bf9
    1e38:	00 10       	.word 0x0010
    1e3a:	00 00       	.word 0x0000
    1e3c:	36 3c       	add	r3,r6
    1e3e:	7f ff       	add	#-1,r15
    1e40:	10 2d       	mov.l	r2,@(52,r0)
    1e42:	04 05       	mov.w	r0,@(r0,r4)
    1e44:	10 2d       	mov.l	r2,@(52,r0)
    1e46:	04 05       	mov.w	r0,@(r0,r4)
    1e48:	10 2d       	mov.l	r2,@(52,r0)
    1e4a:	04 05       	mov.w	r0,@(r0,r4)
    1e4c:	10 2d       	mov.l	r2,@(52,r0)
    1e4e:	04 05       	mov.w	r0,@(r0,r4)
    1e50:	10 3c       	mov.l	r3,@(48,r0)
    1e52:	00 55       	mov.w	r5,@(r0,r0)
    1e54:	4e ba       	.word 0x4eba
    1e56:	00 16       	mov.l	r1,@(r0,r0)
    1e58:	65 0c       	extu.b	r0,r5
    1e5a:	10 3c       	mov.l	r3,@(48,r0)
    1e5c:	00 aa       	.word 0x00aa
    1e5e:	4e ba       	.word 0x4eba
    1e60:	00 0c       	mov.b	@(r0,r0),r0
    1e62:	65 02       	mov.l	@r0,r5
    1e64:	52 43       	mov.l	@(12,r4),r2
    1e66:	31 c3       	cmp/ge	r12,r1
    1e68:	04 18       	.word 0x0418
    1e6a:	4e 75       	.word 0x4e75
    1e6c:	1b 40       	mov.l	r4,@(0,r11)
    1e6e:	04 07       	mul.l	r0,r4
    1e70:	3e 3c       	add	r3,r14
    1e72:	00 80       	.word 0x0080
    1e74:	32 2d       	dmuls.l	r2,r2
    1e76:	04 20       	.word 0x0420
    1e78:	02 01       	.word 0x0201
    1e7a:	00 08       	clrt	
    1e7c:	66 06       	mov.l	@r0+,r6
    1e7e:	51 cf       	mov.l	@(60,r12),r1
    1e80:	ff f4       	fcmp/eq	fr15,fr15
    1e82:	60 0c       	extu.b	r0,r0
    1e84:	12 2d       	mov.l	r2,@(52,r2)
    1e86:	04 05       	mov.w	r0,@(r0,r4)
    1e88:	b2 00       	bsr	228c <_sddrv_129i+0x228c>
    1e8a:	66 04       	mov.b	@r0+,r6
    1e8c:	80 40       	mov.b	r0,@(0,r4)
    1e8e:	4e 75       	.word 0x4e75
    1e90:	00 3c       	mov.b	@(r0,r3),r0
    1e92:	00 01       	.word 0x0001
    1e94:	4e 75       	.word 0x4e75
    1e96:	14 3c       	mov.l	r3,@(48,r4)
    1e98:	00 e0       	.word 0x00e0
    1e9a:	60 0a       	negc	r0,r0
    1e9c:	14 3c       	mov.l	r3,@(48,r4)
    1e9e:	00 ff       	mac.l	@r15+,@r0+
    1ea0:	60 04       	mov.b	@r0+,r0
    1ea2:	14 3c       	mov.l	r3,@(48,r4)
    1ea4:	00 ef       	mac.l	@r14+,@r0+
    1ea6:	41 f9       	.word 0x41f9
    1ea8:	00 00       	.word 0x0000
    1eaa:	1e da       	mov.l	r13,@(40,r14)
    1eac:	22 4d       	xtrct	r4,r2
    1eae:	22 d8       	tst	r13,r2
    1eb0:	22 d8       	tst	r13,r2
    1eb2:	22 d8       	tst	r13,r2
    1eb4:	22 d8       	tst	r13,r2
    1eb6:	22 d8       	tst	r13,r2
    1eb8:	22 d8       	tst	r13,r2
    1eba:	1b 42       	mov.l	r4,@(8,r11)
    1ebc:	00 16       	mov.l	r1,@(r0,r0)
    1ebe:	1a bc       	mov.l	r11,@(48,r10)
    1ec0:	00 18       	sett	
    1ec2:	3e 3c       	add	r3,r14
    1ec4:	20 00       	mov.b	r0,@r0
    1ec6:	3c 3c       	add	r3,r12
    1ec8:	00 10       	.word 0x0010
    1eca:	e1 88       	mov	#-120,r1
    1ecc:	51 ce       	mov.l	@(56,r12),r1
    1ece:	ff fc       	fmov	fr15,fr15
    1ed0:	51 cf       	mov.l	@(60,r12),r1
    1ed2:	ff f4       	fcmp/eq	fr15,fr15
    1ed4:	1a bc       	mov.l	r11,@(48,r10)
    1ed6:	00 10       	.word 0x0010
    1ed8:	4e 75       	.word 0x4e75
    1eda:	10 20       	mov.l	r2,@(0,r0)
    1edc:	1e f2       	mov.l	r15,@(8,r14)
    1ede:	00 00       	.word 0x0000
    1ee0:	00 0f       	mac.l	@r0+,@r0+
    1ee2:	00 1f       	mac.l	@r1+,@r0+
    1ee4:	00 1f       	mac.l	@r1+,@r0+
    1ee6:	00 00       	.word 0x0000
    1ee8:	00 00       	.word 0x0000
    1eea:	70 00       	add	#0,r0
    1eec:	00 00       	.word 0x0000
    1eee:	00 00       	.word 0x0000
    1ef0:	e0 00       	mov	#0,r0
    1ef2:	c0 00       	mov.b	r0,@(0,gbr)
    1ef4:	c0 00       	mov.b	r0,@(0,gbr)
    1ef6:	c0 00       	mov.b	r0,@(0,gbr)
    1ef8:	c0 00       	mov.b	r0,@(0,gbr)
    1efa:	c0 00       	mov.b	r0,@(0,gbr)
    1efc:	c0 00       	mov.b	r0,@(0,gbr)
    1efe:	c0 00       	mov.b	r0,@(0,gbr)
    1f00:	c0 00       	mov.b	r0,@(0,gbr)
    1f02:	40 00       	shll	r0
    1f04:	40 00       	shll	r0
    1f06:	40 00       	shll	r0
    1f08:	40 00       	shll	r0
    1f0a:	40 00       	shll	r0
    1f0c:	40 00       	shll	r0
    1f0e:	40 00       	shll	r0
    1f10:	40 00       	shll	r0
    1f12:	45 f8       	.word 0x45f8
    1f14:	05 00       	.word 0x0500
    1f16:	7a 1f       	add	#31,r10
    1f18:	18 12       	mov.l	r1,@(8,r8)
    1f1a:	6b 1c       	extu.b	r1,r11
    1f1c:	1c 04       	mov.l	r0,@(16,r12)
    1f1e:	02 04       	mov.b	r0,@(r0,r2)
    1f20:	00 70       	.word 0x0070
    1f22:	0c 04       	mov.b	r0,@(r0,r12)
    1f24:	00 10       	.word 0x0010
    1f26:	66 08       	swap.b	r0,r6
    1f28:	02 06       	mov.l	r0,@(r0,r2)
    1f2a:	00 0f       	mac.l	@r0+,@r0+
    1f2c:	b4 06       	bsr	273c <_sddrv_129i+0x273c>
    1f2e:	67 2c       	extu.b	r2,r7
    1f30:	45 ea       	.word 0x45ea
    1f32:	00 08       	clrt	
    1f34:	51 cd       	mov.l	@(52,r12),r1
    1f36:	ff e2       	fmul	fr14,fr15
    1f38:	08 f8       	.word 0x08f8
    1f3a:	00 06       	mov.l	r0,@(r0,r0)
    1f3c:	04 23       	braf	r4
    1f3e:	00 3c       	mov.b	@(r0,r3),r0
    1f40:	00 01       	.word 0x0001
    1f42:	4e 75       	.word 0x4e75
    1f44:	08 f8       	.word 0x08f8
    1f46:	00 07       	mul.l	r0,r0
    1f48:	04 23       	braf	r4
    1f4a:	00 3c       	mov.b	@(r0,r3),r0
    1f4c:	00 01       	.word 0x0001
    1f4e:	4e 75       	.word 0x4e75
    1f50:	08 f8       	.word 0x08f8
    1f52:	00 00       	.word 0x0000
    1f54:	04 22       	stc	vbr,r4
    1f56:	00 3c       	mov.b	@(r0,r3),r0
    1f58:	00 01       	.word 0x0001
    1f5a:	4e 75       	.word 0x4e75
    1f5c:	08 b8       	.word 0x08b8
    1f5e:	00 06       	mov.l	r0,@(r0,r0)
    1f60:	04 23       	braf	r4
    1f62:	24 1a       	xor	r1,r4
    1f64:	18 1a       	mov.l	r1,@(40,r8)
    1f66:	6a e8       	swap.b	r14,r10
    1f68:	08 b8       	.word 0x08b8
    1f6a:	00 00       	.word 0x0000
    1f6c:	04 22       	stc	vbr,r4
    1f6e:	02 82       	stc	r0_bank,r2
    1f70:	00 0f       	mac.l	@r0+,@r0+
    1f72:	ff ff       	.word 0xffff
    1f74:	24 42       	mov.l	r4,@r4
    1f76:	02 43       	.word 0x0243
    1f78:	00 ff       	mac.l	@r15+,@r0+
    1f7a:	b6 52       	bsr	2c22 <_sddrv_129i+0x2c22>
    1f7c:	64 c6       	mov.l	@r12+,r4
    1f7e:	08 b8       	.word 0x08b8
    1f80:	00 07       	mul.l	r0,r0
    1f82:	04 23       	braf	r4
    1f84:	d6 43       	mov.l	2094 <_sddrv_129i+0x2094>,r6	! 241000f
    1f86:	d6 43       	mov.l	2094 <_sddrv_129i+0x2094>,r6	! 241000f
    1f88:	d5 f2       	mov.l	2354 <_sddrv_129i+0x2354>,r5	! 5f64efa
    1f8a:	30 02       	cmp/hs	r0,r0
    1f8c:	80 40       	mov.b	r0,@(0,r4)
    1f8e:	4e 75       	.word 0x4e75
    1f90:	53 47       	mov.l	@(28,r4),r3
    1f92:	20 6e       	mulu.w	r6,r0
    1f94:	18 04       	mov.l	r0,@(16,r8)
    1f96:	45 ee       	ldc	r5,r6_bank
    1f98:	1e 00       	mov.l	r0,@(0,r14)
    1f9a:	10 2a       	mov.l	r2,@(40,r0)
    1f9c:	00 00       	.word 0x0000
    1f9e:	02 40       	.word 0x0240
    1fa0:	00 0c       	mov.b	@(r0,r0),r0
    1fa2:	4e fb       	.word 0x4efb
    1fa4:	00 02       	stc	sr,r0
    1fa6:	60 00       	mov.b	@r0,r0
    1fa8:	01 00       	.word 0x0100
    1faa:	60 00       	mov.b	@r0,r0
    1fac:	00 fc       	mov.b	@(r0,r15),r0
    1fae:	60 00       	mov.b	@r0,r0
    1fb0:	00 c8       	.word 0x00c8
    1fb2:	22 6a       	xor	r6,r2
    1fb4:	00 08       	clrt	
    1fb6:	16 2a       	mov.l	r2,@(40,r6)
    1fb8:	00 06       	mov.l	r0,@(r0,r0)
    1fba:	02 43       	.word 0x0243
    1fbc:	00 07       	mul.l	r0,r0
    1fbe:	d6 43       	mov.l	20cc <_sddrv_129i+0x20cc>,r6	! 84a48584
    1fc0:	30 03       	cmp/ge	r0,r0
    1fc2:	d0 40       	mov.l	20c4 <_sddrv_129i+0x20c4>,r0	! 81e38277
    1fc4:	4e fb       	.word 0x4efb
    1fc6:	00 02       	stc	sr,r0
    1fc8:	60 00       	mov.b	@r0,r0
    1fca:	00 1e       	mov.l	@(r0,r1),r0
    1fcc:	60 00       	mov.b	@r0,r0
    1fce:	00 40       	.word 0x0040
    1fd0:	60 00       	mov.b	@r0,r0
    1fd2:	00 76       	mov.l	r7,@(r0,r0)
    1fd4:	60 00       	mov.b	@r0,r0
    1fd6:	00 72       	stc	r7_bank,r0
    1fd8:	60 00       	mov.b	@r0,r0
    1fda:	00 6e       	mov.l	@(r0,r6),r0
    1fdc:	60 00       	mov.b	@r0,r0
    1fde:	00 98       	.word 0x0098
    1fe0:	60 00       	mov.b	@r0,r0
    1fe2:	00 64       	mov.b	r6,@(r0,r0)
    1fe4:	60 00       	mov.b	@r0,r0
    1fe6:	00 90       	.word 0x0090
    1fe8:	10 29       	mov.l	r2,@(36,r0)
    1fea:	00 07       	mul.l	r0,r0
    1fec:	e1 48       	mov	#72,r1
    1fee:	30 80       	cmp/eq	r8,r0
    1ff0:	06 40       	.word 0x0640
    1ff2:	80 00       	mov.b	r0,@(0,r0)
    1ff4:	35 40       	cmp/eq	r4,r5
    1ff6:	00 02       	stc	sr,r0
    1ff8:	10 29       	mov.l	r2,@(36,r0)
    1ffa:	00 06       	mov.l	r0,@(r0,r0)
    1ffc:	4e ba       	.word 0x4eba
    1ffe:	1b 14       	mov.l	r1,@(16,r11)
    2000:	e4 48       	mov	#72,r4
    2002:	35 40       	cmp/eq	r4,r5
    2004:	00 0c       	mov.b	@(r0,r0),r0
    2006:	52 2a       	mov.l	@(40,r2),r2
    2008:	00 06       	mov.l	r0,@(r0,r0)
    200a:	60 00       	mov.b	@r0,r0
    200c:	00 9c       	mov.b	@(r0,r9),r0
    200e:	51 6a       	mov.l	@(40,r6),r1
    2010:	00 0c       	mov.b	@(r0,r0),r0
    2012:	64 00       	mov.b	@r0,r4
    2014:	00 94       	mov.b	r9,@(r0,r0)
    2016:	38 2a       	subc	r2,r8
    2018:	00 02       	stc	sr,r0
    201a:	35 44       	div1	r4,r5
    201c:	00 02       	stc	sr,r0
    201e:	04 44       	mov.b	r4,@(r0,r4)
    2020:	80 00       	mov.b	r0,@(0,r0)
    2022:	30 84       	div1	r8,r0
    2024:	10 31       	mov.l	r3,@(4,r0)
    2026:	30 06       	cmp/hi	r0,r0
    2028:	4e ba       	.word 0x4eba
    202a:	1a ee       	mov.l	r14,@(56,r10)
    202c:	35 40       	cmp/eq	r4,r5
    202e:	00 04       	mov.b	r0,@(r0,r0)
    2030:	10 31       	mov.l	r3,@(4,r0)
    2032:	30 07       	cmp/gt	r0,r0
    2034:	e1 48       	mov	#72,r1
    2036:	06 40       	.word 0x0640
    2038:	80 00       	mov.b	r0,@(0,r0)
    203a:	35 40       	cmp/eq	r4,r5
    203c:	00 0e       	mov.l	@(r0,r0),r0
    203e:	52 2a       	mov.l	@(40,r2),r2
    2040:	00 06       	mov.l	r0,@(r0,r0)
    2042:	60 00       	mov.b	@r0,r0
    2044:	00 64       	mov.b	r6,@(r0,r0)
    2046:	4e 71       	.word 0x4e71
    2048:	38 2a       	subc	r2,r8
    204a:	00 0e       	mov.l	@(r0,r0),r0
    204c:	32 2a       	subc	r2,r2
    204e:	00 02       	stc	sr,r0
    2050:	30 2a       	subc	r2,r0
    2052:	00 04       	mov.b	r0,@(r0,r0)
    2054:	6b 0a       	negc	r0,r11
    2056:	d2 40       	mov.l	2158 <_sddrv_129i+0x2158>,r2	! 33df36ba
    2058:	65 c0       	mov.b	@r12,r5
    205a:	b8 41       	bsr	10e0 <_sddrv_129i+0x10e0>
    205c:	63 bc       	extu.b	r11,r3
    205e:	60 0a       	negc	r0,r0
    2060:	44 40       	.word 0x4440
    2062:	92 40       	mov.w	20e6 <_sddrv_129i+0x20e6>,r2	! 9593
    2064:	65 b4       	mov.b	@r11+,r5
    2066:	b8 41       	bsr	10ec <_sddrv_129i+0x10ec>
    2068:	64 b0       	mov.b	@r11,r4
    206a:	35 41       	.word 0x3541
    206c:	00 02       	stc	sr,r0
    206e:	04 41       	.word 0x0441
    2070:	80 00       	mov.b	r0,@(0,r0)
    2072:	30 81       	.word 0x3081
    2074:	60 32       	mov.l	@r3,r0
    2076:	60 30       	mov.b	@r3,r0
    2078:	70 00       	add	#0,r0
    207a:	30 2a       	subc	r2,r0
    207c:	00 02       	stc	sr,r0
    207e:	d0 6a       	mov.l	2228 <_sddrv_129i+0x2228>,r0	! 15e212c8
    2080:	00 04       	mov.b	r0,@(r0,r0)
    2082:	35 40       	cmp/eq	r4,r5
    2084:	00 02       	stc	sr,r0
    2086:	02 40       	.word 0x0240
    2088:	ff 00       	fadd	fr0,fr15
    208a:	ee 48       	mov	#72,r14
    208c:	30 3b       	subv	r3,r0
    208e:	00 28       	clrmac	
    2090:	12 2a       	mov.l	r2,@(40,r2)
    2092:	00 01       	.word 0x0001
    2094:	02 41       	.word 0x0241
    2096:	00 0f       	mac.l	@r0+,@r0+
    2098:	67 0c       	extu.b	r0,r7
    209a:	0c 41       	.word 0x0c41
    209c:	00 0f       	mac.l	@r0+,@r0+
    209e:	67 04       	mov.b	@r0+,r7
    20a0:	e2 68       	mov	#104,r2
    20a2:	60 02       	mov.l	@r0,r0
    20a4:	42 40       	.word 0x4240
    20a6:	30 80       	cmp/eq	r8,r0
    20a8:	45 ea       	.word 0x45ea
    20aa:	00 10       	.word 0x0010
    20ac:	41 e8       	.word 0x41e8
    20ae:	00 02       	stc	sr,r0
    20b0:	51 cf       	mov.l	@(60,r12),r1
    20b2:	fe e8       	fmov	@r14,fr14
    20b4:	4e 75       	.word 0x4e75
    20b6:	80 01       	mov.b	r0,@(1,r0)
    20b8:	80 0b       	mov.b	r0,@(11,r0)
    20ba:	80 28       	mov.b	r0,@(8,r2)
    20bc:	80 5a       	mov.b	r0,@(10,r5)
    20be:	80 9f       	mov.b	r0,@(15,r9)
    20c0:	80 f7       	mov.b	r0,@(7,r15)
    20c2:	81 64       	mov.w	r0,@(8,r6)
    20c4:	81 e3       	mov.w	r0,@(6,r14)
    20c6:	82 77       	.word 0x8277
    20c8:	83 1d       	.word 0x831d
    20ca:	83 d7       	.word 0x83d7
    20cc:	84 a4       	mov.b	@(4,r10),r0
    20ce:	85 84       	mov.w	@(8,r8),r0
    20d0:	86 77       	.word 0x8677
    20d2:	87 7c       	.word 0x877c
    20d4:	88 95       	cmp/eq	#-107,r0
    20d6:	89 bf       	bt	2058 <_sddrv_129i+0x2058>
    20d8:	8a fc       	.word 0x8afc
    20da:	8c 4b       	.word 0x8c4b
    20dc:	8d ac       	bt.s	2038 <_sddrv_129i+0x2038>
    20de:	8f 1e       	bf.s	211e <_sddrv_129i+0x211e>
    20e0:	90 a2       	mov.w	2228 <_sddrv_129i+0x2228>,r0	! 15e2
    20e2:	92 0a       	mov.w	20fa <_sddrv_129i+0x20fa>,r2	! aa0b
    20e4:	93 dd       	mov.w	22a2 <_sddrv_129i+0x22a2>,r3	! 83d7
    20e6:	95 93       	mov.w	2210 <_sddrv_129i+0x2210>,r5	! 398c
    20e8:	97 5a       	mov.w	21a0 <_sddrv_129i+0x21a0>,r7	! 7b5c
    20ea:	99 31       	mov.w	2150 <_sddrv_129i+0x2150>,r9	! 2826
    20ec:	9b 18       	mov.w	2120 <_sddrv_129i+0x2120>,r11	! dddd
    20ee:	9d 0f       	mov.w	2110 <_sddrv_129i+0x2110>,r13	! c674
    20f0:	9f 15       	mov.w	211e <_sddrv_129i+0x211e>,r15	! dad8
    20f2:	a1 29       	bra	2348 <_sddrv_129i+0x2348>
    20f4:	a3 4d       	bra	2792 <_sddrv_129i+0x2792>
    20f6:	a5 7e       	bra	2bf6 <_sddrv_129i+0x2bf6>
    20f8:	a7 be       	bra	3078 <_sddrv_129i+0x3078>
    20fa:	aa 0b       	bra	1514 <_sddrv_129i+0x1514>
    20fc:	ac 65       	bra	19ca <_sddrv_129i+0x19ca>
    20fe:	ae cd       	bra	1e9c <_sddrv_129i+0x1e9c>
    2100:	b1 41       	bsr	2386 <_sddrv_129i+0x2386>
    2102:	b3 c1       	bsr	2888 <_sddrv_129i+0x2888>
    2104:	b6 4c       	bsr	2da0 <_sddrv_129i+0x2da0>
    2106:	b8 e4       	bsr	12d2 <_sddrv_129i+0x12d2>
    2108:	bb 86       	bsr	1818 <_sddrv_129i+0x1818>
    210a:	be 32       	bsr	1d72 <_sddrv_129i+0x1d72>
    210c:	c0 e9       	mov.b	r0,@(233,gbr)
    210e:	c3 aa       	trapa	#-86
    2110:	c6 74       	mov.l	@(464,gbr),r0
    2112:	c9 46       	and	#70,r0
    2114:	cc 21       	tst.b	#33,@(r0,gbr)
    2116:	cf 05       	or.b	#5,@(r0,gbr)
    2118:	d1 ef       	mov.l	24d8 <_sddrv_129i+0x24d8>,r1	! 964efa
    211a:	d4 e1       	mov.l	24a0 <_sddrv_129i+0x24a0>,r4	! ce4efb
    211c:	d7 da       	mov.l	2488 <_sddrv_129i+0x2488>,r7	! e64efa
    211e:	da d8       	mov.l	2480 <_sddrv_129i+0x2480>,r10	! ee4efa
    2120:	dd dd       	mov.l	2498 <_sddrv_129i+0x2498>,r13	! d64efa
    2122:	e0 e6       	mov	#-26,r0
    2124:	e3 f5       	mov	#-11,r3
    2126:	e7 07       	mov	#7,r7
    2128:	ea 1e       	mov	#30,r10
    212a:	ed 38       	mov	#56,r13
    212c:	f0 55       	fcmp/gt	fr5,fr0
    212e:	f3 74       	fcmp/eq	fr7,fr3
    2130:	f6 96       	fmov	@(r0,r9),fr6
    2132:	f9 b8       	fmov	@r11,fr9
    2134:	fc dc       	fmov	fr13,fr12
    2136:	00 00       	.word 0x0000
    2138:	03 24       	mov.b	r2,@(r0,r3)
    213a:	06 48       	.word 0x0648
    213c:	09 6a       	sts	fpscr,r9
    213e:	0c 8c       	mov.b	@(r0,r8),r12
    2140:	0f ab       	.word 0x0fab
    2142:	12 c8       	mov.l	r12,@(32,r2)
    2144:	15 e2       	mov.l	r14,@(8,r5)
    2146:	18 f9       	mov.l	r15,@(36,r8)
    2148:	1c 0b       	mov.l	r0,@(44,r12)
    214a:	1f 1a       	mov.l	r1,@(40,r15)
    214c:	22 23       	.word 0x2223
    214e:	25 28       	tst	r2,r5
    2150:	28 26       	mov.l	r2,@-r8
    2152:	2b 1f       	muls.w	r1,r11
    2154:	2e 11       	mov.w	r1,@r14
    2156:	30 fb       	subv	r15,r0
    2158:	33 df       	addv	r13,r3
    215a:	36 ba       	subc	r11,r6
    215c:	39 8c       	add	r8,r9
    215e:	3c 56       	cmp/hi	r5,r12
    2160:	3f 17       	cmp/gt	r1,r15
    2162:	41 ce       	ldc	r1,r4_bank
    2164:	44 7a       	.word 0x447a
    2166:	47 1c       	shad	r1,r7
    2168:	49 b4       	.word 0x49b4
    216a:	4c 3f       	mac.w	@r3+,@r12+
    216c:	4e bf       	mac.w	@r11+,@r14+
    216e:	51 33       	mov.l	@(12,r3),r1
    2170:	53 9b       	mov.l	@(44,r9),r3
    2172:	55 f5       	mov.l	@(20,r15),r5
    2174:	58 42       	mov.l	@(8,r4),r8
    2176:	5a 82       	mov.l	@(8,r8),r10
    2178:	5c b3       	mov.l	@(12,r11),r12
    217a:	5e d7       	mov.l	@(28,r13),r14
    217c:	60 eb       	neg	r14,r0
    217e:	62 f1       	mov.w	@r15,r2
    2180:	64 e8       	swap.b	r14,r4
    2182:	66 cf       	exts.w	r12,r6
    2184:	68 a6       	mov.l	@r10+,r8
    2186:	6a 6d       	extu.w	r6,r10
    2188:	6c 23       	mov	r2,r12
    218a:	6d f6       	mov.l	@r15+,r13
    218c:	6f 5e       	exts.b	r5,r15
    218e:	70 e2       	add	#-30,r0
    2190:	72 54       	add	#84,r2
    2192:	73 b5       	add	#-75,r3
    2194:	75 04       	add	#4,r5
    2196:	76 41       	add	#65,r6
    2198:	77 6b       	add	#107,r7
    219a:	78 84       	add	#-124,r8
    219c:	79 89       	add	#-119,r9
    219e:	7a 7c       	add	#124,r10
    21a0:	7b 5c       	add	#92,r11
    21a2:	7c 29       	add	#41,r12
    21a4:	7c e3       	add	#-29,r12
    21a6:	7d 89       	add	#-119,r13
    21a8:	7e 1d       	add	#29,r14
    21aa:	7e 9c       	add	#-100,r14
    21ac:	7f 09       	add	#9,r15
    21ae:	7f 61       	add	#97,r15
    21b0:	7f a6       	add	#-90,r15
    21b2:	7f d8       	add	#-40,r15
    21b4:	7f f5       	add	#-11,r15
    21b6:	7f ff       	add	#-1,r15
    21b8:	7f f5       	add	#-11,r15
    21ba:	7f d8       	add	#-40,r15
    21bc:	7f a6       	add	#-90,r15
    21be:	7f 61       	add	#97,r15
    21c0:	7f 09       	add	#9,r15
    21c2:	7e 9c       	add	#-100,r14
    21c4:	7e 1d       	add	#29,r14
    21c6:	7d 89       	add	#-119,r13
    21c8:	7c e3       	add	#-29,r12
    21ca:	7c 29       	add	#41,r12
    21cc:	7b 5c       	add	#92,r11
    21ce:	7a 7c       	add	#124,r10
    21d0:	79 89       	add	#-119,r9
    21d2:	78 84       	add	#-124,r8
    21d4:	77 6b       	add	#107,r7
    21d6:	76 41       	add	#65,r6
    21d8:	75 04       	add	#4,r5
    21da:	73 b5       	add	#-75,r3
    21dc:	72 54       	add	#84,r2
    21de:	70 e2       	add	#-30,r0
    21e0:	6f 5e       	exts.b	r5,r15
    21e2:	6d f6       	mov.l	@r15+,r13
    21e4:	6c 23       	mov	r2,r12
    21e6:	6a 6d       	extu.w	r6,r10
    21e8:	68 a6       	mov.l	@r10+,r8
    21ea:	66 cf       	exts.w	r12,r6
    21ec:	64 e8       	swap.b	r14,r4
    21ee:	62 f1       	mov.w	@r15,r2
    21f0:	60 eb       	neg	r14,r0
    21f2:	5e d7       	mov.l	@(28,r13),r14
    21f4:	5c b3       	mov.l	@(12,r11),r12
    21f6:	5a 82       	mov.l	@(8,r8),r10
    21f8:	58 42       	mov.l	@(8,r4),r8
    21fa:	55 f5       	mov.l	@(20,r15),r5
    21fc:	53 9b       	mov.l	@(44,r9),r3
    21fe:	51 33       	mov.l	@(12,r3),r1
    2200:	4e bf       	mac.w	@r11+,@r14+
    2202:	4c 3f       	mac.w	@r3+,@r12+
    2204:	49 b4       	.word 0x49b4
    2206:	47 1c       	shad	r1,r7
    2208:	44 7a       	.word 0x447a
    220a:	41 ce       	ldc	r1,r4_bank
    220c:	3f 17       	cmp/gt	r1,r15
    220e:	3c 56       	cmp/hi	r5,r12
    2210:	39 8c       	add	r8,r9
    2212:	36 ba       	subc	r11,r6
    2214:	33 df       	addv	r13,r3
    2216:	30 fb       	subv	r15,r0
    2218:	2e 11       	mov.w	r1,@r14
    221a:	2b 1f       	muls.w	r1,r11
    221c:	28 26       	mov.l	r2,@-r8
    221e:	25 28       	tst	r2,r5
    2220:	22 23       	.word 0x2223
    2222:	1f 1a       	mov.l	r1,@(40,r15)
    2224:	1c 0b       	mov.l	r0,@(44,r12)
    2226:	18 f9       	mov.l	r15,@(36,r8)
    2228:	15 e2       	mov.l	r14,@(8,r5)
    222a:	12 c8       	mov.l	r12,@(32,r2)
    222c:	0f ab       	.word 0x0fab
    222e:	0c 8c       	mov.b	@(r0,r8),r12
    2230:	09 6a       	sts	fpscr,r9
    2232:	06 48       	.word 0x0648
    2234:	03 24       	mov.b	r2,@(r0,r3)
    2236:	00 00       	.word 0x0000
    2238:	fc dc       	fmov	fr13,fr12
    223a:	f9 b8       	fmov	@r11,fr9
    223c:	f6 96       	fmov	@(r0,r9),fr6
    223e:	f3 74       	fcmp/eq	fr7,fr3
    2240:	f0 55       	fcmp/gt	fr5,fr0
    2242:	ed 38       	mov	#56,r13
    2244:	ea 1e       	mov	#30,r10
    2246:	e7 07       	mov	#7,r7
    2248:	e3 f5       	mov	#-11,r3
    224a:	e0 e6       	mov	#-26,r0
    224c:	dd dd       	mov.l	25c4 <_sddrv_129i+0x25c4>,r13	! 34010642
    224e:	da d8       	mov.l	25b0 <_sddrv_129i+0x25b0>,r10	! 1b831017
    2250:	d7 da       	mov.l	25bc <_sddrv_129i+0x25bc>,r7	! 220203
    2252:	d4 e1       	mov.l	25d8 <_sddrv_129i+0x25d8>,r4	! eb491b83
    2254:	d1 ef       	mov.l	2614 <_sddrv_129i+0x2614>,r1	! 4051cf
    2256:	cf 05       	or.b	#5,@(r0,gbr)
    2258:	cc 21       	tst.b	#33,@(r0,gbr)
    225a:	c9 46       	and	#70,r0
    225c:	c6 74       	mov.l	@(464,gbr),r0
    225e:	c3 aa       	trapa	#-86
    2260:	c0 e9       	mov.b	r0,@(233,gbr)
    2262:	be 32       	bsr	1eca <_sddrv_129i+0x1eca>
    2264:	bb 86       	bsr	1974 <_sddrv_129i+0x1974>
    2266:	b8 e4       	bsr	1432 <_sddrv_129i+0x1432>
    2268:	b6 4c       	bsr	2f04 <_sddrv_129i+0x2f04>
    226a:	b3 c1       	bsr	29f0 <_sddrv_129i+0x29f0>
    226c:	b1 41       	bsr	24f2 <_sddrv_129i+0x24f2>
    226e:	ae cd       	bra	200c <_sddrv_129i+0x200c>
    2270:	ac 65       	bra	1b3e <_sddrv_129i+0x1b3e>
    2272:	aa 0b       	bra	168c <_sddrv_129i+0x168c>
    2274:	a7 be       	bra	31f4 <_sddrv_129i+0x31f4>
    2276:	a5 7e       	bra	2d76 <_sddrv_129i+0x2d76>
    2278:	a3 4d       	bra	2916 <_sddrv_129i+0x2916>
    227a:	a1 29       	bra	24d0 <_sddrv_129i+0x24d0>
    227c:	9f 15       	mov.w	22aa <_sddrv_129i+0x22aa>,r15	! 8164
    227e:	9d 0f       	mov.w	22a0 <_sddrv_129i+0x22a0>,r13	! 84a4
    2280:	9b 18       	mov.w	22b4 <_sddrv_129i+0x22b4>,r11	! 800b
    2282:	99 31       	mov.w	22e8 <_sddrv_129i+0x22e8>,r9	! 201
    2284:	97 5a       	mov.w	233c <_sddrv_129i+0x233c>,r7	! d42
    2286:	95 93       	mov.w	23b0 <_sddrv_129i+0x23b0>,r5	! 2a6
    2288:	93 dd       	mov.w	2446 <_sddrv_129i+0x2446>,r3	! 4efa
    228a:	92 0a       	mov.w	22a2 <_sddrv_129i+0x22a2>,r2	! 83d7
    228c:	90 a2       	mov.w	23d4 <_sddrv_129i+0x23d4>,r0	! 2002
    228e:	8f 1e       	bf.s	22ce <_sddrv_129i+0x22ce>
    2290:	8d ac       	bt.s	21ec <_sddrv_129i+0x21ec>
    2292:	8c 4b       	.word 0x8c4b
    2294:	8a fc       	.word 0x8afc
    2296:	89 bf       	bt	2218 <_sddrv_129i+0x2218>
    2298:	88 95       	cmp/eq	#-107,r0
    229a:	87 7c       	.word 0x877c
    229c:	86 77       	.word 0x8677
    229e:	85 84       	mov.w	@(8,r8),r0
    22a0:	84 a4       	mov.b	@(4,r10),r0
    22a2:	83 d7       	.word 0x83d7
    22a4:	83 1d       	.word 0x831d
    22a6:	82 77       	.word 0x8277
    22a8:	81 e3       	mov.w	r0,@(6,r14)
    22aa:	81 64       	mov.w	r0,@(8,r6)
    22ac:	80 f7       	mov.b	r0,@(7,r15)
    22ae:	80 9f       	mov.b	r0,@(15,r9)
    22b0:	80 5a       	mov.b	r0,@(10,r5)
    22b2:	80 28       	mov.b	r0,@(8,r2)
    22b4:	80 0b       	mov.b	r0,@(11,r0)
    22b6:	70 00       	add	#0,r0
    22b8:	10 2e       	mov.l	r2,@(56,r0)
    22ba:	18 42       	mov.l	r4,@(8,r8)
    22bc:	52 2e       	mov.l	@(56,r2),r2
    22be:	18 42       	mov.l	r4,@(8,r8)
    22c0:	d0 40       	mov.l	23c4 <_sddrv_129i+0x23c4>,r0	! 1aa4efa
    22c2:	d0 40       	mov.l	23c4 <_sddrv_129i+0x23c4>,r0	! 1aa4efa
    22c4:	43 ee       	ldc	r3,r6_bank
    22c6:	1a 00       	mov.l	r0,@(0,r10)
    22c8:	d2 c0       	mov.l	25cc <_sddrv_129i+0x25cc>,r2	! 20000200
    22ca:	45 ee       	ldc	r5,r6_bank
    22cc:	1f 00       	mov.l	r0,@(0,r15)
    22ce:	78 00       	add	#0,r8
    22d0:	18 2e       	mov.l	r2,@(56,r8)
    22d2:	18 41       	mov.l	r4,@(4,r8)
    22d4:	10 38       	mov.l	r3,@(32,r0)
    22d6:	04 e1       	.word 0x04e1
    22d8:	d0 00       	mov.l	22dc <_sddrv_129i+0x22dc>,r0	! 1011e908
    22da:	6a 2c       	extu.b	r2,r10
    22dc:	10 11       	mov.l	r1,@(4,r0)
    22de:	e9 08       	mov	#8,r9
    22e0:	00 00       	.word 0x0000
    22e2:	00 80       	.word 0x0080
    22e4:	12 29       	mov.l	r2,@(36,r2)
    22e6:	00 01       	.word 0x0001
    22e8:	02 01       	.word 0x0201
    22ea:	00 0f       	mac.l	@r0+,@r0+
    22ec:	80 01       	mov.b	r0,@(1,r0)
    22ee:	15 80       	mov.l	r8,@(0,r5)
    22f0:	40 00       	shll	r0
    22f2:	52 04       	mov.l	@(16,r0),r2
    22f4:	15 a9       	mov.l	r10,@(36,r5)
    22f6:	00 02       	stc	sr,r0
    22f8:	40 00       	shll	r0
    22fa:	52 04       	mov.l	@(16,r0),r2
    22fc:	15 a9       	mov.l	r10,@(36,r5)
    22fe:	00 03       	bsrf	r0
    2300:	40 00       	shll	r0
    2302:	52 04       	mov.l	@(16,r0),r2
    2304:	1d 44       	mov.l	r4,@(16,r13)
    2306:	18 41       	mov.l	r4,@(4,r8)
    2308:	10 19       	mov.l	r1,@(36,r0)
    230a:	12 19       	mov.l	r1,@(36,r2)
    230c:	14 01       	mov.l	r0,@(4,r4)
    230e:	02 42       	stc	spc,r2
    2310:	00 e0       	.word 0x00e0
    2312:	e9 4a       	mov	#74,r9
    2314:	3d 42       	cmp/hs	r4,r13
    2316:	18 00       	mov.l	r0,@(0,r8)
    2318:	02 41       	.word 0x0241
    231a:	00 1f       	mac.l	@r1+,@r0+
    231c:	34 01       	.word 0x3401
    231e:	e9 4a       	mov	#74,r9
    2320:	d4 6e       	mov.l	24dc <_sddrv_129i+0x24dc>,r4	! 924efa
    2322:	18 00       	mov.l	r0,@(0,r8)
    2324:	3d 42       	cmp/hs	r4,r13
    2326:	18 0a       	mov.l	r0,@(40,r8)
    2328:	3d 41       	.word 0x3d41
    232a:	18 02       	mov.l	r0,@(8,r8)
    232c:	14 19       	mov.l	r1,@(36,r4)
    232e:	16 11       	mov.l	r1,@(4,r6)
    2330:	02 40       	.word 0x0240
    2332:	00 07       	mul.l	r0,r0
    2334:	e5 48       	mov	#72,r5
    2336:	4e fb       	.word 0x4efb
    2338:	00 02       	stc	sr,r0
    233a:	4e fa       	ldc	r14,dbr
    233c:	0d 42       	stc	spc,r13
    233e:	4e fa       	ldc	r14,dbr
    2340:	07 1c       	mov.b	@(r0,r1),r7
    2342:	4e fa       	ldc	r14,dbr
    2344:	f3 92       	fmul	fr9,fr3
    2346:	4e fa       	ldc	r14,dbr
    2348:	00 12       	stc	gbr,r0
    234a:	4e fa       	ldc	r14,dbr
    234c:	f2 d4       	fcmp/eq	fr13,fr2
    234e:	4e fa       	ldc	r14,dbr
    2350:	f3 8c       	fmov	fr8,fr3
    2352:	4e fa       	ldc	r14,dbr
    2354:	05 f6       	mov.l	r15,@(r0,r5)
    2356:	4e fa       	ldc	r14,dbr
    2358:	f3 8a       	fmov	fr8,@r3
    235a:	38 02       	cmp/hs	r0,r8
    235c:	02 42       	stc	spc,r2
    235e:	00 0f       	mac.l	@r0+,@r0+
    2360:	d4 42       	mov.l	246c <_sddrv_129i+0x246c>,r4	! 1024efa
    2362:	d4 42       	mov.l	246c <_sddrv_129i+0x246c>,r4	! 1024efa
    2364:	02 44       	mov.b	r4,@(r0,r2)
    2366:	00 70       	.word 0x0070
    2368:	e4 4c       	mov	#76,r4
    236a:	4e fb       	.word 0x4efb
    236c:	40 02       	sts.l	mach,@-r0
    236e:	4e fa       	ldc	r14,dbr
    2370:	00 1e       	mov.l	@(r0,r1),r0
    2372:	4e fa       	ldc	r14,dbr
    2374:	00 5e       	mov.l	@(r0,r5),r0
    2376:	4e fa       	ldc	r14,dbr
    2378:	00 9e       	mov.l	@(r0,r9),r0
    237a:	4e fa       	ldc	r14,dbr
    237c:	00 e2       	stc	r6_bank,r0
    237e:	4e fa       	ldc	r14,dbr
    2380:	01 22       	stc	vbr,r1
    2382:	4e fa       	ldc	r14,dbr
    2384:	01 62       	stc	r6_bank,r1
    2386:	4e fa       	ldc	r14,dbr
    2388:	00 d2       	stc	r5_bank,r0
    238a:	4e fa       	ldc	r14,dbr
    238c:	01 9e       	mov.l	@(r0,r9),r1
    238e:	4e fb       	.word 0x4efb
    2390:	20 02       	mov.l	r0,@r0
    2392:	4e fa       	ldc	r14,dbr
    2394:	01 da       	.word 0x01da
    2396:	4e fa       	ldc	r14,dbr
    2398:	02 48       	.word 0x0248
    239a:	4e fa       	ldc	r14,dbr
    239c:	01 d2       	stc	r5_bank,r1
    239e:	4e fa       	ldc	r14,dbr
    23a0:	01 ce       	mov.l	@(r0,r12),r1
    23a2:	4e fa       	ldc	r14,dbr
    23a4:	01 ca       	.word 0x01ca
    23a6:	4e fa       	ldc	r14,dbr
    23a8:	01 c6       	mov.l	r12,@(r0,r1)
    23aa:	4e fa       	ldc	r14,dbr
    23ac:	01 c2       	stc	r4_bank,r1
    23ae:	4e fa       	ldc	r14,dbr
    23b0:	02 a6       	mov.l	r10,@(r0,r2)
    23b2:	4e fa       	ldc	r14,dbr
    23b4:	01 ba       	.word 0x01ba
    23b6:	4e fa       	ldc	r14,dbr
    23b8:	01 b6       	mov.l	r11,@(r0,r1)
    23ba:	4e fa       	ldc	r14,dbr
    23bc:	02 f2       	stc	r7_bank,r2
    23be:	4e fa       	ldc	r14,dbr
    23c0:	02 96       	mov.l	r9,@(r0,r2)
    23c2:	4e fa       	ldc	r14,dbr
    23c4:	01 aa       	.word 0x01aa
    23c6:	4e fa       	ldc	r14,dbr
    23c8:	01 a6       	mov.l	r10,@(r0,r1)
    23ca:	4e fa       	ldc	r14,dbr
    23cc:	01 a2       	stc	r2_bank,r1
    23ce:	4e fa       	ldc	r14,dbr
    23d0:	01 9e       	mov.l	@(r0,r9),r1
    23d2:	4e fb       	.word 0x4efb
    23d4:	20 02       	mov.l	r0,@r0
    23d6:	4e fa       	ldc	r14,dbr
    23d8:	f0 d6       	fmov	@(r0,r13),fr0
    23da:	4e fa       	ldc	r14,dbr
    23dc:	01 9a       	.word 0x019a
    23de:	4e fa       	ldc	r14,dbr
    23e0:	01 8e       	mov.l	@(r0,r8),r1
    23e2:	4e fa       	ldc	r14,dbr
    23e4:	01 8a       	.word 0x018a
    23e6:	4e fa       	ldc	r14,dbr
    23e8:	01 86       	mov.l	r8,@(r0,r1)
    23ea:	4e fa       	ldc	r14,dbr
    23ec:	01 82       	stc	r0_bank,r1
    23ee:	4e fa       	ldc	r14,dbr
    23f0:	01 7e       	mov.l	@(r0,r7),r1
    23f2:	4e fa       	ldc	r14,dbr
    23f4:	01 7a       	.word 0x017a
    23f6:	4e fa       	ldc	r14,dbr
    23f8:	01 76       	mov.l	r7,@(r0,r1)
    23fa:	4e fa       	ldc	r14,dbr
    23fc:	01 72       	stc	r7_bank,r1
    23fe:	4e fa       	ldc	r14,dbr
    2400:	01 6e       	mov.l	@(r0,r6),r1
    2402:	4e fa       	ldc	r14,dbr
    2404:	01 6a       	sts	fpscr,r1
    2406:	4e fa       	ldc	r14,dbr
    2408:	01 66       	mov.l	r6,@(r0,r1)
    240a:	4e fa       	ldc	r14,dbr
    240c:	01 62       	stc	r6_bank,r1
    240e:	4e fa       	ldc	r14,dbr
    2410:	01 5e       	mov.l	@(r0,r5),r1
    2412:	4e fa       	ldc	r14,dbr
    2414:	01 5a       	sts	fpul,r1
    2416:	4e fb       	.word 0x4efb
    2418:	20 02       	mov.l	r0,@r0
    241a:	4e fa       	ldc	r14,dbr
    241c:	f1 e4       	fcmp/eq	fr14,fr1
    241e:	4e fa       	ldc	r14,dbr
    2420:	01 4e       	mov.l	@(r0,r4),r1
    2422:	4e fa       	ldc	r14,dbr
    2424:	01 4a       	.word 0x014a
    2426:	4e fa       	ldc	r14,dbr
    2428:	01 46       	mov.l	r4,@(r0,r1)
    242a:	4e fa       	ldc	r14,dbr
    242c:	01 42       	stc	spc,r1
    242e:	4e fa       	ldc	r14,dbr
    2430:	01 3e       	mov.l	@(r0,r3),r1
    2432:	4e fa       	ldc	r14,dbr
    2434:	01 3a       	stc	sgr,r1
    2436:	4e fa       	ldc	r14,dbr
    2438:	01 36       	mov.l	r3,@(r0,r1)
    243a:	4e fa       	ldc	r14,dbr
    243c:	01 32       	stc	ssr,r1
    243e:	4e fa       	ldc	r14,dbr
    2440:	01 2e       	mov.l	@(r0,r2),r1
    2442:	4e fa       	ldc	r14,dbr
    2444:	01 2a       	sts	pr,r1
    2446:	4e fa       	ldc	r14,dbr
    2448:	01 26       	mov.l	r2,@(r0,r1)
    244a:	4e fa       	ldc	r14,dbr
    244c:	01 22       	stc	vbr,r1
    244e:	4e fa       	ldc	r14,dbr
    2450:	01 1e       	mov.l	@(r0,r1),r1
    2452:	4e fa       	ldc	r14,dbr
    2454:	01 1a       	sts	macl,r1
    2456:	4e fa       	ldc	r14,dbr
    2458:	01 16       	mov.l	r1,@(r0,r1)
    245a:	4e fb       	.word 0x4efb
    245c:	20 06       	mov.l	r0,@-r0
    245e:	4e fb       	.word 0x4efb
    2460:	20 02       	mov.l	r0,@r0
    2462:	4e fa       	ldc	r14,dbr
    2464:	01 0a       	sts	mach,r1
    2466:	4e fa       	ldc	r14,dbr
    2468:	01 06       	mov.l	r0,@(r0,r1)
    246a:	4e fa       	ldc	r14,dbr
    246c:	01 02       	stc	sr,r1
    246e:	4e fa       	ldc	r14,dbr
    2470:	00 fe       	mov.l	@(r0,r15),r0
    2472:	4e fa       	ldc	r14,dbr
    2474:	00 fa       	stc	dbr,r0
    2476:	4e fa       	ldc	r14,dbr
    2478:	00 f6       	mov.l	r15,@(r0,r0)
    247a:	4e fa       	ldc	r14,dbr
    247c:	00 f2       	stc	r7_bank,r0
    247e:	4e fa       	ldc	r14,dbr
    2480:	00 ee       	mov.l	@(r0,r14),r0
    2482:	4e fa       	ldc	r14,dbr
    2484:	00 ea       	.word 0x00ea
    2486:	4e fa       	ldc	r14,dbr
    2488:	00 e6       	mov.l	r14,@(r0,r0)
    248a:	4e fa       	ldc	r14,dbr
    248c:	00 e2       	stc	r6_bank,r0
    248e:	4e fa       	ldc	r14,dbr
    2490:	00 de       	mov.l	@(r0,r13),r0
    2492:	4e fa       	ldc	r14,dbr
    2494:	00 da       	.word 0x00da
    2496:	4e fa       	ldc	r14,dbr
    2498:	00 d6       	mov.l	r13,@(r0,r0)
    249a:	4e fa       	ldc	r14,dbr
    249c:	00 d2       	stc	r5_bank,r0
    249e:	4e fa       	ldc	r14,dbr
    24a0:	00 ce       	mov.l	@(r0,r12),r0
    24a2:	4e fb       	.word 0x4efb
    24a4:	20 02       	mov.l	r0,@r0
    24a6:	4e fa       	ldc	r14,dbr
    24a8:	02 82       	stc	r0_bank,r2
    24aa:	4e fa       	ldc	r14,dbr
    24ac:	00 c2       	stc	r4_bank,r0
    24ae:	4e fa       	ldc	r14,dbr
    24b0:	00 be       	mov.l	@(r0,r11),r0
    24b2:	4e fa       	ldc	r14,dbr
    24b4:	00 ba       	.word 0x00ba
    24b6:	4e fa       	ldc	r14,dbr
    24b8:	00 b6       	mov.l	r11,@(r0,r0)
    24ba:	4e fa       	ldc	r14,dbr
    24bc:	00 b2       	stc	r3_bank,r0
    24be:	4e fa       	ldc	r14,dbr
    24c0:	00 ae       	mov.l	@(r0,r10),r0
    24c2:	4e fa       	ldc	r14,dbr
    24c4:	00 f2       	stc	r7_bank,r0
    24c6:	4e fa       	ldc	r14,dbr
    24c8:	00 a6       	mov.l	r10,@(r0,r0)
    24ca:	4e fa       	ldc	r14,dbr
    24cc:	00 a2       	stc	r2_bank,r0
    24ce:	4e fa       	ldc	r14,dbr
    24d0:	00 9e       	mov.l	@(r0,r9),r0
    24d2:	4e fa       	ldc	r14,dbr
    24d4:	00 9a       	.word 0x009a
    24d6:	4e fa       	ldc	r14,dbr
    24d8:	00 96       	mov.l	r9,@(r0,r0)
    24da:	4e fa       	ldc	r14,dbr
    24dc:	00 92       	stc	r1_bank,r0
    24de:	4e fa       	ldc	r14,dbr
    24e0:	00 8e       	mov.l	@(r0,r8),r0
    24e2:	4e fa       	ldc	r14,dbr
    24e4:	00 8a       	.word 0x008a
    24e6:	4e fb       	.word 0x4efb
    24e8:	20 02       	mov.l	r0,@r0
    24ea:	4e fa       	ldc	r14,dbr
    24ec:	04 fc       	mov.b	@(r0,r15),r4
    24ee:	4e fa       	ldc	r14,dbr
    24f0:	05 02       	stc	sr,r5
    24f2:	4e fa       	ldc	r14,dbr
    24f4:	05 20       	.word 0x0520
    24f6:	4e fa       	ldc	r14,dbr
    24f8:	05 3e       	mov.l	@(r0,r3),r5
    24fa:	4e fa       	ldc	r14,dbr
    24fc:	00 72       	stc	r7_bank,r0
    24fe:	4e fa       	ldc	r14,dbr
    2500:	00 6e       	mov.l	@(r0,r6),r0
    2502:	4e fa       	ldc	r14,dbr
    2504:	00 6a       	sts	fpscr,r0
    2506:	4e fa       	ldc	r14,dbr
    2508:	00 66       	mov.l	r6,@(r0,r0)
    250a:	4e fa       	ldc	r14,dbr
    250c:	00 62       	stc	r6_bank,r0
    250e:	4e fa       	ldc	r14,dbr
    2510:	00 5e       	mov.l	@(r0,r5),r0
    2512:	4e fa       	ldc	r14,dbr
    2514:	00 5a       	sts	fpul,r0
    2516:	4e fa       	ldc	r14,dbr
    2518:	02 ba       	.word 0x02ba
    251a:	4e fa       	ldc	r14,dbr
    251c:	00 52       	stc	r5_bank,r0
    251e:	4e fa       	ldc	r14,dbr
    2520:	00 4e       	mov.l	@(r0,r4),r0
    2522:	4e fa       	ldc	r14,dbr
    2524:	00 4a       	.word 0x004a
    2526:	4e fa       	ldc	r14,dbr
    2528:	00 46       	mov.l	r4,@(r0,r0)
    252a:	4e fb       	.word 0x4efb
    252c:	20 02       	mov.l	r0,@r0
    252e:	4e fa       	ldc	r14,dbr
    2530:	00 3e       	mov.l	@(r0,r3),r0
    2532:	4e fa       	ldc	r14,dbr
    2534:	00 3a       	stc	sgr,r0
    2536:	4e fa       	ldc	r14,dbr
    2538:	00 36       	mov.l	r3,@(r0,r0)
    253a:	4e fa       	ldc	r14,dbr
    253c:	00 32       	stc	ssr,r0
    253e:	4e fa       	ldc	r14,dbr
    2540:	00 2e       	mov.l	@(r0,r2),r0
    2542:	4e fa       	ldc	r14,dbr
    2544:	00 2a       	sts	pr,r0
    2546:	4e fa       	ldc	r14,dbr
    2548:	00 26       	mov.l	r2,@(r0,r0)
    254a:	4e fa       	ldc	r14,dbr
    254c:	00 22       	stc	vbr,r0
    254e:	4e fa       	ldc	r14,dbr
    2550:	00 1e       	mov.l	@(r0,r1),r0
    2552:	4e fa       	ldc	r14,dbr
    2554:	00 1a       	sts	macl,r0
    2556:	4e fa       	ldc	r14,dbr
    2558:	00 16       	mov.l	r1,@(r0,r0)
    255a:	4e fa       	ldc	r14,dbr
    255c:	00 c0       	.word 0x00c0
    255e:	4e fa       	ldc	r14,dbr
    2560:	00 0e       	mov.l	@(r0,r0),r0
    2562:	4e fa       	ldc	r14,dbr
    2564:	00 0a       	sts	mach,r0
    2566:	4e fa       	ldc	r14,dbr
    2568:	00 06       	mov.l	r0,@(r0,r0)
    256a:	4e fa       	ldc	r14,dbr
    256c:	00 02       	stc	sr,r0
    256e:	08 f8       	.word 0x08f8
    2570:	00 06       	mov.l	r0,@(r0,r0)
    2572:	04 22       	stc	vbr,r4
    2574:	4e 75       	.word 0x4e75
    2576:	0c 01       	.word 0x0c01
    2578:	00 12       	stc	gbr,r0
    257a:	64 00       	mov.b	@r0,r4
    257c:	00 38       	ldtlb	
    257e:	02 03       	bsrf	r2
    2580:	00 7f       	mac.l	@r7+,@r0+
    2582:	e4 0b       	mov	#11,r4
    2584:	04 03       	bsrf	r4
    2586:	00 10       	.word 0x0010
    2588:	64 06       	mov.l	@r0+,r4
    258a:	46 03       	stc.l	sr,@-r6
    258c:	06 03       	bsrf	r6
    258e:	00 10       	.word 0x0010
    2590:	14 2e       	mov.l	r2,@(56,r4)
    2592:	18 31       	mov.l	r3,@(4,r8)
    2594:	6a 04       	mov.b	@r0+,r10
    2596:	02 03       	bsrf	r2
    2598:	00 e0       	.word 0x00e0
    259a:	34 01       	.word 0x3401
    259c:	06 42       	stc	spc,r6
    259e:	18 7e       	mov.l	r7,@(56,r8)
    25a0:	10 36       	mov.l	r3,@(24,r0)
    25a2:	20 00       	mov.b	r0,@r0
    25a4:	02 00       	.word 0x0200
    25a6:	00 e0       	.word 0x00e0
    25a8:	86 00       	.word 0x8600
    25aa:	1d 83       	mov.l	r8,@(12,r13)
    25ac:	20 00       	mov.b	r0,@r0
    25ae:	eb 49       	mov	#73,r11
    25b0:	1b 83       	mov.l	r8,@(12,r11)
    25b2:	10 17       	mov.l	r1,@(28,r0)
    25b4:	4e 75       	.word 0x4e75
    25b6:	0c 01       	.word 0x0c01
    25b8:	00 12       	stc	gbr,r0
    25ba:	64 00       	mov.b	@r0,r4
    25bc:	00 22       	stc	vbr,r0
    25be:	02 03       	bsrf	r2
    25c0:	00 70       	.word 0x0070
    25c2:	d6 03       	mov.l	25d0 <_sddrv_129i+0x25d0>,r6	! 1f8600
    25c4:	34 01       	.word 0x3401
    25c6:	06 42       	stc	spc,r6
    25c8:	18 7e       	mov.l	r7,@(56,r8)
    25ca:	10 36       	mov.l	r3,@(24,r0)
    25cc:	20 00       	mov.b	r0,@r0
    25ce:	02 00       	.word 0x0200
    25d0:	00 1f       	mac.l	@r1+,@r0+
    25d2:	86 00       	.word 0x8600
    25d4:	1d 83       	mov.l	r8,@(12,r13)
    25d6:	20 00       	mov.b	r0,@r0
    25d8:	eb 49       	mov	#73,r11
    25da:	1b 83       	mov.l	r8,@(12,r11)
    25dc:	10 17       	mov.l	r1,@(28,r0)
    25de:	4e 75       	.word 0x4e75
    25e0:	d6 03       	mov.l	25f0 <_sddrv_129i+0x25f0>,r6	! 4001661e
    25e2:	02 03       	bsrf	r2
    25e4:	00 e0       	.word 0x00e0
    25e6:	7e 1f       	add	#31,r14
    25e8:	42 44       	.word 0x4244
    25ea:	41 ee       	ldc	r1,r6_bank
    25ec:	10 00       	mov.l	r0,@(0,r0)
    25ee:	b2 30       	bsr	2a52 <_sddrv_129i+0x2a52>
    25f0:	40 01       	shlr	r0
    25f2:	66 1e       	exts.b	r1,r6
    25f4:	22 70       	mov.b	r7,@r2
    25f6:	40 08       	shll2	r0
    25f8:	10 29       	mov.l	r2,@(36,r0)
    25fa:	00 0e       	mov.l	@(r0,r0),r0
    25fc:	6a 14       	mov.b	@r1+,r10
    25fe:	1a 29       	mov.l	r2,@(36,r10)
    2600:	00 15       	mov.w	r1,@(r0,r0)
    2602:	16 03       	mov.l	r0,@(12,r6)
    2604:	6b 04       	mov.b	@r0+,r11
    2606:	02 05       	mov.w	r0,@(r0,r2)
    2608:	00 18       	sett	
    260a:	e2 4c       	mov	#76,r2
    260c:	1b 85       	mov.l	r8,@(20,r11)
    260e:	40 13       	stc.l	gbr,@-r0
    2610:	d8 44       	mov.l	2724 <_sddrv_129i+0x2724>,r8	! 51cfffd8
    2612:	06 44       	mov.b	r4,@(r0,r6)
    2614:	00 40       	.word 0x0040
    2616:	51 cf       	mov.l	@(60,r12),r1
    2618:	ff d6       	fmov	@(r0,r13),fr15
    261a:	4e 75       	.word 0x4e75
    261c:	16 03       	mov.l	r0,@(12,r6)
    261e:	66 34       	mov.b	@r3+,r6
    2620:	7e 1f       	add	#31,r14
    2622:	42 44       	.word 0x4244
    2624:	41 ee       	ldc	r1,r6_bank
    2626:	10 00       	mov.l	r0,@(0,r0)
    2628:	b2 30       	bsr	2a8c <_sddrv_129i+0x2a8c>
    262a:	40 01       	shlr	r0
    262c:	66 16       	mov.l	@r1+,r6
    262e:	e2 4c       	mov	#76,r2
    2630:	1b bc       	mov.l	r11,@(48,r11)
    2632:	00 ff       	mac.l	@r15+,@r0+
    2634:	40 0b       	jsr	@r0
    2636:	10 35       	mov.l	r3,@(20,r0)
    2638:	40 00       	shll	r0
    263a:	02 00       	.word 0x0200
    263c:	00 07       	mul.l	r0,r0
    263e:	1b 80       	mov.l	r8,@(0,r11)
    2640:	40 00       	shll	r0
    2642:	d8 44       	mov.l	2754 <_sddrv_129i+0x2754>,r8	! 49ee1000
    2644:	06 44       	mov.b	r4,@(r0,r6)
    2646:	00 40       	.word 0x0040
    2648:	51 cf       	mov.l	@(60,r12),r1
    264a:	ff de       	fmac	fr0,fr13,fr15
    264c:	10 15       	mov.l	r1,@(20,r0)
    264e:	00 00       	.word 0x0000
    2650:	00 10       	.word 0x0010
    2652:	1a 80       	mov.l	r8,@(0,r10)
    2654:	4e 75       	.word 0x4e75
    2656:	30 01       	.word 0x3001
    2658:	e9 48       	mov	#72,r9
    265a:	34 2e       	addc	r2,r4
    265c:	18 00       	mov.l	r0,@(0,r8)
    265e:	d0 42       	mov.l	2768 <_sddrv_129i+0x2768>,r0	! b2344001
    2660:	02 43       	.word 0x0243
    2662:	00 7f       	mac.l	@r7+,@r0+
    2664:	1d 83       	mov.l	r8,@(12,r13)
    2666:	00 02       	stc	sr,r0
    2668:	d6 03       	mov.l	2678 <_sddrv_129i+0x2678>,r6	! 662ab230
    266a:	7e 1f       	add	#31,r14
    266c:	78 00       	add	#0,r8
    266e:	41 ee       	ldc	r1,r6_bank
    2670:	10 00       	mov.l	r0,@(0,r0)
    2672:	08 30       	.word 0x0830
    2674:	00 07       	mul.l	r0,r0
    2676:	40 34       	.word 0x4034
    2678:	66 2a       	negc	r2,r6
    267a:	b2 30       	bsr	2ade <_sddrv_129i+0x2ade>
    267c:	40 01       	shlr	r0
    267e:	66 00       	mov.b	@r0,r6
    2680:	00 24       	mov.b	r2,@(r0,r0)
    2682:	b4 70       	bsr	2f66 <_sddrv_129i+0x2f66>
    2684:	40 06       	lds.l	@r0+,mach
    2686:	66 00       	mov.b	@r0,r6
    2688:	00 1c       	mov.b	@(r0,r1),r0
    268a:	08 30       	.word 0x0830
    268c:	00 00       	.word 0x0000
    268e:	40 05       	rotr	r0
    2690:	67 12       	mov.l	@r1,r7
    2692:	3a 30       	cmp/eq	r3,r10
    2694:	40 36       	ldc.l	@r0+,sgr
    2696:	ca c3       	xor	#-61,r0
    2698:	48 45       	.word 0x4845
    269a:	46 05       	rotr	r6
    269c:	e2 4c       	mov	#76,r2
    269e:	1b 85       	mov.l	r8,@(20,r11)
    26a0:	40 0d       	shld	r0,r0
    26a2:	d8 44       	mov.l	27b4 <_sddrv_129i+0x27b4>,r8	! 20422
    26a4:	06 44       	mov.b	r4,@(r0,r6)
    26a6:	00 40       	.word 0x0040
    26a8:	51 cf       	mov.l	@(60,r12),r1
    26aa:	ff c8       	fmov	@r12,fr15
    26ac:	4e 75       	.word 0x4e75
    26ae:	02 03       	bsrf	r2
    26b0:	00 7f       	mac.l	@r7+,@r0+
    26b2:	e4 0b       	mov	#11,r4
    26b4:	04 03       	bsrf	r4
    26b6:	00 10       	.word 0x0010
    26b8:	64 06       	mov.l	@r0+,r4
    26ba:	46 03       	stc.l	sr,@-r6
    26bc:	06 03       	bsrf	r6
    26be:	00 10       	.word 0x0010
    26c0:	30 2e       	addc	r2,r0
    26c2:	18 0a       	mov.l	r0,@(40,r8)
    26c4:	08 f6       	mov.l	r15,@(r0,r8)
    26c6:	00 07       	mul.l	r0,r0
    26c8:	00 01       	.word 0x0001
    26ca:	18 36       	mov.l	r3,@(24,r8)
    26cc:	00 01       	.word 0x0001
    26ce:	08 04       	mov.b	r0,@(r0,r8)
    26d0:	00 06       	mov.l	r0,@(r0,r0)
    26d2:	67 0a       	negc	r0,r7
    26d4:	08 2e       	mov.l	@(r0,r2),r8
    26d6:	00 07       	mul.l	r0,r0
    26d8:	18 31       	mov.l	r3,@(4,r8)
    26da:	66 18       	swap.b	r1,r6
    26dc:	4e 75       	.word 0x4e75
    26de:	08 2e       	mov.l	@(r0,r2),r8
    26e0:	00 07       	mul.l	r0,r0
    26e2:	18 31       	mov.l	r3,@(4,r8)
    26e4:	66 0e       	exts.b	r0,r6
    26e6:	00 03       	bsrf	r0
    26e8:	00 80       	.word 0x0080
    26ea:	1d 83       	mov.l	r8,@(12,r13)
    26ec:	00 01       	.word 0x0001
    26ee:	02 03       	bsrf	r2
    26f0:	00 1f       	mac.l	@r1+,@r0+
    26f2:	60 02       	mov.l	@r0,r0
    26f4:	42 43       	stc.l	spc,@-r2
    26f6:	7e 1f       	add	#31,r14
    26f8:	78 00       	add	#0,r8
    26fa:	41 ee       	ldc	r1,r6_bank
    26fc:	10 00       	mov.l	r0,@(0,r0)
    26fe:	b2 30       	bsr	2b62 <_sddrv_129i+0x2b62>
    2700:	40 01       	shlr	r0
    2702:	66 00       	mov.b	@r0,r6
    2704:	00 1c       	mov.b	@(r0,r1),r0
    2706:	b0 70       	bsr	27ea <_sddrv_129i+0x27ea>
    2708:	40 06       	lds.l	@r0+,mach
    270a:	66 00       	mov.b	@r0,r6
    270c:	00 14       	mov.b	r1,@(r0,r0)
    270e:	e2 4c       	mov	#76,r2
    2710:	1a 35       	mov.l	r3,@(20,r10)
    2712:	40 16       	lds.l	@r0+,macl
    2714:	02 05       	mov.w	r0,@(r0,r2)
    2716:	00 e0       	.word 0x00e0
    2718:	8a 03       	.word 0x8a03
    271a:	1b 85       	mov.l	r8,@(20,r11)
    271c:	40 16       	lds.l	@r0+,macl
    271e:	d8 44       	mov.l	2830 <_sddrv_129i+0x2830>,r8	! 10116b86
    2720:	06 44       	mov.b	r4,@(r0,r6)
    2722:	00 40       	.word 0x0040
    2724:	51 cf       	mov.l	@(60,r12),r1
    2726:	ff d8       	fmov	@r13,fr15
    2728:	4e 75       	.word 0x4e75
    272a:	3e 01       	.word 0x3e01
    272c:	e9 4f       	mov	#79,r9
    272e:	3c 2e       	addc	r2,r12
    2730:	18 00       	mov.l	r0,@(0,r8)
    2732:	de 46       	mov.l	284c <_sddrv_129i+0x284c>,r14	! ff6e2a19
    2734:	10 36       	mov.l	r3,@(24,r0)
    2736:	70 03       	add	#3,r0
    2738:	02 03       	bsrf	r2
    273a:	00 40       	.word 0x0040
    273c:	66 62       	mov.l	@r6,r6
    273e:	02 00       	.word 0x0200
    2740:	00 bf       	mac.l	@r11+,@r0+
    2742:	1d 80       	mov.l	r8,@(0,r13)
    2744:	70 03       	add	#3,r0
    2746:	7e 20       	add	#32,r14
    2748:	9e 6e       	mov.w	2828 <_sddrv_129i+0x2828>,r14	! 2040
    274a:	18 2a       	mov.l	r2,@(40,r8)
    274c:	67 50       	mov.b	@r5,r7
    274e:	53 47       	mov.l	@(28,r4),r3
    2750:	41 ee       	ldc	r1,r6_bank
    2752:	18 c0       	mov.l	r12,@(0,r8)
    2754:	49 ee       	ldc	r9,r6_bank
    2756:	10 00       	mov.l	r0,@(0,r0)
    2758:	30 2e       	addc	r2,r0
    275a:	18 22       	mov.l	r2,@(8,r8)
    275c:	02 40       	.word 0x0240
    275e:	00 3e       	mov.l	@(r0,r3),r0
    2760:	38 30       	cmp/eq	r3,r8
    2762:	00 00       	.word 0x0000
    2764:	02 44       	mov.b	r4,@(r0,r2)
    2766:	07 c0       	.word 0x07c0
    2768:	b2 34       	bsr	2bd4 <_sddrv_129i+0x2bd4>
    276a:	40 01       	shlr	r0
    276c:	66 2a       	negc	r2,r6
    276e:	bc 74       	bsr	205a <_sddrv_129i+0x205a>
    2770:	40 06       	lds.l	@r0+,mach
    2772:	66 24       	mov.b	@r2+,r6
    2774:	08 34       	mov.b	r3,@(r0,r8)
    2776:	00 01       	.word 0x0001
    2778:	40 05       	rotr	r0
    277a:	67 1c       	extu.b	r1,r7
    277c:	08 34       	mov.b	r3,@(r0,r8)
    277e:	00 03       	bsrf	r0
    2780:	40 05       	rotr	r0
    2782:	66 14       	mov.b	@r1+,r6
    2784:	14 34       	mov.l	r3,@(16,r4)
    2786:	40 02       	sts.l	mach,@-r0
    2788:	16 34       	mov.l	r3,@(16,r6)
    278a:	40 03       	stc.l	sr,@-r0
    278c:	48 e7       	ldc.l	@r8+,r6_bank
    278e:	ff f8       	fmov	@r15,fr15
    2790:	4e ba       	.word 0x4eba
    2792:	08 ec       	mov.b	@(r0,r14),r8
    2794:	4c df       	mac.w	@r13+,@r12+
    2796:	1f ff       	mov.l	r15,@(60,r15)
    2798:	54 40       	mov.l	@(0,r4),r4
    279a:	51 cf       	mov.l	@(60,r12),r1
    279c:	ff c0       	fadd	fr12,fr15
    279e:	4e 75       	.word 0x4e75
    27a0:	00 00       	.word 0x0000
    27a2:	00 40       	.word 0x0040
    27a4:	1d 80       	mov.l	r8,@(0,r13)
    27a6:	70 03       	add	#3,r0
    27a8:	4e 75       	.word 0x4e75
    27aa:	08 f8       	.word 0x08f8
    27ac:	00 01       	.word 0x0001
    27ae:	04 22       	stc	vbr,r4
    27b0:	4e 75       	.word 0x4e75
    27b2:	08 f8       	.word 0x08f8
    27b4:	00 02       	stc	sr,r0
    27b6:	04 22       	stc	vbr,r4
    27b8:	4e 75       	.word 0x4e75
    27ba:	08 f8       	.word 0x08f8
    27bc:	00 03       	bsrf	r0
    27be:	04 22       	stc	vbr,r4
    27c0:	4e 75       	.word 0x4e75
    27c2:	08 f8       	.word 0x08f8
    27c4:	00 04       	mov.b	r0,@(r0,r0)
    27c6:	04 22       	stc	vbr,r4
    27c8:	4e 75       	.word 0x4e75
    27ca:	08 f8       	.word 0x08f8
    27cc:	00 05       	mov.w	r0,@(r0,r0)
    27ce:	04 22       	stc	vbr,r4
    27d0:	4e 75       	.word 0x4e75
    27d2:	0c 03       	bsrf	r12
    27d4:	00 10       	.word 0x0010
    27d6:	64 00       	mov.b	@r0,r4
    27d8:	ee d4       	mov	#-44,r14
    27da:	12 03       	mov.l	r0,@(12,r2)
    27dc:	00 01       	.word 0x0001
    27de:	00 20       	.word 0x0020
    27e0:	76 30       	add	#48,r6
    27e2:	41 ed       	shld	r14,r1
    27e4:	08 00       	.word 0x0800
    27e6:	70 00       	add	#0,r0
    27e8:	3e 3c       	add	r3,r14
    27ea:	00 ff       	mac.l	@r15+,@r0+
    27ec:	20 c0       	mov.b	r12,@r0
    27ee:	51 cf       	mov.l	@(60,r12),r1
    27f0:	ff fc       	fmov	fr15,fr15
    27f2:	41 f8       	.word 0x41f8
    27f4:	05 00       	.word 0x0500
    27f6:	7e 1f       	add	#31,r14
    27f8:	10 10       	mov.l	r1,@(0,r0)
    27fa:	6b ae       	exts.b	r10,r11
    27fc:	b2 00       	bsr	2c00 <_sddrv_129i+0x2c00>
    27fe:	67 0a       	negc	r0,r7
    2800:	41 e8       	.word 0x41e8
    2802:	00 08       	clrt	
    2804:	51 cf       	mov.l	@(60,r12),r1
    2806:	ff f2       	fmul	fr15,fr15
    2808:	60 a0       	mov.b	@r10,r0
    280a:	08 b8       	.word 0x08b8
    280c:	00 01       	.word 0x0001
    280e:	04 22       	stc	vbr,r4
    2810:	20 18       	tst	r1,r0
    2812:	02 80       	.word 0x0280
    2814:	00 0f       	mac.l	@r0+,@r0+
    2816:	ff ff       	.word 0xffff
    2818:	24 10       	mov.b	r1,@r4
    281a:	6a 96       	mov.l	@r9+,r10
    281c:	08 b8       	.word 0x08b8
    281e:	00 02       	stc	sr,r0
    2820:	04 22       	stc	vbr,r4
    2822:	02 82       	stc	r0_bank,r2
    2824:	00 0f       	mac.l	@r0+,@r0+
    2826:	ff ff       	.word 0xffff
    2828:	20 40       	mov.b	r4,@r0
    282a:	43 f8       	.word 0x43f8
    282c:	05 00       	.word 0x0500
    282e:	7e 1f       	add	#31,r14
    2830:	10 11       	mov.l	r1,@(4,r0)
    2832:	6b 86       	mov.l	@r8+,r11
    2834:	08 b8       	.word 0x08b8
    2836:	00 03       	bsrf	r0
    2838:	04 22       	stc	vbr,r4
    283a:	02 00       	.word 0x0200
    283c:	00 70       	.word 0x0070
    283e:	b6 00       	bsr	3442 <_sddrv_129i+0x3442>
    2840:	67 0c       	extu.b	r0,r7
    2842:	43 e9       	.word 0x43e9
    2844:	00 08       	clrt	
    2846:	51 cf       	mov.l	@(60,r12),r1
    2848:	ff e8       	fmov	@r14,fr15
    284a:	60 00       	mov.b	@r0,r0
    284c:	ff 6e       	fmac	fr0,fr6,fr15
    284e:	2a 19       	and	r1,r10
    2850:	36 05       	dmulu.l	r0,r6
    2852:	02 43       	.word 0x0243
    2854:	1f ff       	mov.l	r15,@(60,r15)
    2856:	66 00       	mov.b	@r0,r6
    2858:	ff 6a       	fmov	fr6,@r15
    285a:	08 b8       	.word 0x08b8
    285c:	00 04       	mov.b	r0,@(r0,r0)
    285e:	04 22       	stc	vbr,r4
    2860:	02 85       	mov.w	r8,@(r0,r2)
    2862:	00 0f       	mac.l	@r0+,@r0+
    2864:	e0 00       	mov	#0,r0
    2866:	26 11       	mov.w	r1,@r6
    2868:	02 83       	pref	@r2
    286a:	00 0f       	mac.l	@r0+,@r0+
    286c:	ff ff       	.word 0xffff
    286e:	1d 68       	mov.l	r6,@(32,r13)
    2870:	00 22       	stc	vbr,r0
    2872:	18 30       	mov.l	r3,@(0,r8)
    2874:	22 3c       	cmp/str	r3,r2
    2876:	00 00       	.word 0x0000
    2878:	40 00       	shll	r0
    287a:	10 28       	mov.l	r2,@(32,r0)
    287c:	00 20       	.word 0x0020
    287e:	02 40       	.word 0x0240
    2880:	00 03       	bsrf	r0
    2882:	67 02       	mov.l	@r0,r7
    2884:	e1 a9       	mov	#-87,r1
    2886:	06 81       	.word 0x0681
    2888:	00 00       	.word 0x0000
    288a:	00 40       	.word 0x0040
    288c:	78 00       	add	#0,r8
    288e:	18 28       	mov.l	r2,@(32,r8)
    2890:	00 21       	.word 0x0021
    2892:	67 04       	mov.b	@r0+,r7
    2894:	c8 fc       	tst	#-4,r0
    2896:	0a 00       	.word 0x0a00
    2898:	d2 84       	mov.l	2aac <_sddrv_129i+0x2aac>,r2	! 4357c
    289a:	b6 81       	bsr	35a0 <_sddrv_129i+0x35a0>
    289c:	65 00       	mov.b	@r0,r5
    289e:	ff 2c       	fmov	fr2,fr15
    28a0:	08 b8       	.word 0x08b8
    28a2:	00 05       	mov.w	r0,@(r0,r0)
    28a4:	04 22       	stc	vbr,r4
    28a6:	20 3c       	cmp/str	r3,r0
    28a8:	60 00       	mov.b	@r0,r0
    28aa:	60 00       	mov.b	@r0,r0
    28ac:	26 03       	.word 0x2603
    28ae:	67 18       	swap.b	r1,r7
    28b0:	24 45       	mov.w	r4,@-r4
    28b2:	e8 8b       	mov	#-117,r8
    28b4:	67 12       	mov.l	@r1,r7
    28b6:	53 43       	mov.l	@(12,r4),r3
    28b8:	36 03       	cmp/ge	r0,r6
    28ba:	67 0c       	extu.b	r0,r7
    28bc:	24 c0       	mov.b	r12,@r4
    28be:	24 c0       	mov.b	r12,@r4
    28c0:	24 c0       	mov.b	r12,@r4
    28c2:	24 c0       	mov.b	r12,@r4
    28c4:	51 cb       	mov.l	@(44,r12),r1
    28c6:	ff f6       	fmov	@(r0,r15),fr15
    28c8:	10 28       	mov.l	r2,@(32,r0)
    28ca:	00 23       	braf	r0
    28cc:	11 c0       	mov.l	r12,@(0,r1)
    28ce:	04 84       	mov.b	r8,@(r0,r4)
    28d0:	0c 00       	.word 0x0c00
    28d2:	00 40       	.word 0x0040
    28d4:	65 0e       	exts.b	r0,r5
    28d6:	11 e8       	mov.l	r14,@(32,r1)
    28d8:	00 24       	mov.b	r2,@(r0,r0)
    28da:	04 86       	mov.l	r8,@(r0,r4)
    28dc:	11 e8       	mov.l	r14,@(32,r1)
    28de:	00 25       	mov.w	r2,@(r0,r0)
    28e0:	04 87       	mul.l	r8,r4
    28e2:	60 06       	mov.l	@r0+,r0
    28e4:	11 e8       	mov.l	r14,@(32,r1)
    28e6:	00 24       	mov.b	r2,@(r0,r0)
    28e8:	04 85       	mov.w	r8,@(r0,r4)
    28ea:	10 28       	mov.l	r2,@(32,r0)
    28ec:	00 20       	.word 0x0020
    28ee:	02 40       	.word 0x0240
    28f0:	00 03       	bsrf	r0
    28f2:	ef 48       	mov	#72,r15
    28f4:	e7 8d       	mov	#-115,r7
    28f6:	48 45       	.word 0x4845
    28f8:	80 45       	mov.b	r0,@(5,r4)
    28fa:	3b 40       	cmp/eq	r4,r11
    28fc:	04 02       	stc	sr,r4
    28fe:	45 e8       	.word 0x45e8
    2900:	00 40       	.word 0x0040
    2902:	47 ed       	shld	r14,r7
    2904:	07 00       	.word 0x0700
    2906:	3e 3c       	add	r3,r14
    2908:	01 3f       	mac.l	@r3+,@r1+
    290a:	26 da       	xor	r13,r6
    290c:	51 cf       	mov.l	@(60,r12),r1
    290e:	ff fc       	fmov	fr15,fr15
    2910:	14 28       	mov.l	r2,@(32,r4)
    2912:	00 20       	.word 0x0020
    2914:	26 3c       	cmp/str	r3,r6
    2916:	00 00       	.word 0x0000
    2918:	40 00       	shll	r0
    291a:	02 42       	stc	spc,r2
    291c:	00 03       	bsrf	r0
    291e:	67 02       	mov.l	@r0,r7
    2920:	e5 ab       	mov	#-85,r5
    2922:	48 45       	.word 0x4845
    2924:	e6 8d       	mov	#-115,r6
    2926:	da 83       	mov.l	2b34 <_sddrv_129i+0x2b34>,r10	! 26765004
    2928:	2d 45       	mov.w	r4,@-r13
    292a:	18 04       	mov.l	r0,@(16,r8)
    292c:	20 45       	mov.w	r4,@-r0
    292e:	70 00       	add	#0,r0
    2930:	7e 0f       	add	#15,r14
    2932:	20 c0       	mov.b	r12,@r0
    2934:	51 cf       	mov.l	@(60,r12),r1
    2936:	ff fc       	fmov	fr15,fr15
    2938:	e4 8c       	mov	#-116,r4
    293a:	67 08       	swap.b	r0,r7
    293c:	53 44       	mov.l	@(16,r4),r3
    293e:	20 da       	xor	r13,r0
    2940:	51 cc       	mov.l	@(48,r12),r1
    2942:	ff fc       	fmov	fr15,fr15
    2944:	2d 4a       	xor	r4,r13
    2946:	18 2c       	mov.l	r2,@(48,r8)
    2948:	4e 75       	.word 0x4e75
    294a:	02 42       	stc	spc,r2
    294c:	00 7f       	mac.l	@r7+,@r0+
    294e:	02 43       	.word 0x0243
    2950:	00 7f       	mac.l	@r7+,@r0+
    2952:	ef 4b       	mov	#75,r15
    2954:	84 43       	mov.b	@(3,r4),r0
    2956:	04 42       	stc	spc,r4
    2958:	20 00       	mov.b	r0,@r0
    295a:	38 01       	.word 0x3801
    295c:	e9 4c       	mov	#76,r9
    295e:	d8 6e       	mov.l	2b18 <_sddrv_129i+0x2b18>,r8	! 6700ebe6
    2960:	18 00       	mov.l	r0,@(0,r8)
    2962:	10 36       	mov.l	r3,@(24,r0)
    2964:	40 00       	shll	r0
    2966:	24 76       	mov.l	r7,@-r4
    2968:	40 04       	rotl	r0
    296a:	d0 40       	mov.l	2a6c <_sddrv_129i+0x2a6c>,r0	! 45ee1e00
    296c:	30 32       	cmp/hs	r3,r0
    296e:	00 08       	clrt	
    2970:	10 32       	mov.l	r3,@(8,r0)
    2972:	00 00       	.word 0x0000
    2974:	02 40       	.word 0x0240
    2976:	00 0f       	mac.l	@r0+,@r0+
    2978:	d0 40       	mov.l	2a7c <_sddrv_129i+0x2a7c>,r0	! 53460246
    297a:	d0 40       	mov.l	2a7c <_sddrv_129i+0x2a7c>,r0	! 53460246
    297c:	4e fb       	.word 0x4efb
    297e:	00 02       	stc	sr,r0
    2980:	42 42       	.word 0x4242
    2982:	60 56       	mov.l	@r5+,r0
    2984:	ea 42       	mov	#66,r10
    2986:	60 52       	mov.l	@r5,r0
    2988:	e8 42       	mov	#66,r8
    298a:	60 4e       	exts.b	r4,r0
    298c:	e8 42       	mov	#66,r8
    298e:	60 26       	mov.l	@r2+,r0
    2990:	e6 42       	mov	#66,r6
    2992:	60 46       	mov.l	@r4+,r0
    2994:	e6 42       	mov	#66,r6
    2996:	60 30       	mov.b	@r3,r0
    2998:	e6 42       	mov	#66,r6
    299a:	60 1a       	negc	r1,r0
    299c:	e6 42       	mov	#66,r6
    299e:	60 2e       	exts.b	r2,r0
    29a0:	e4 42       	mov	#66,r4
    29a2:	60 36       	mov.l	@r3+,r0
    29a4:	e4 42       	mov	#66,r4
    29a6:	60 1a       	negc	r1,r0
    29a8:	e4 42       	mov	#66,r4
    29aa:	60 1c       	extu.b	r1,r0
    29ac:	e4 42       	mov	#66,r4
    29ae:	60 0c       	extu.b	r0,r0
    29b0:	e4 42       	mov	#66,r4
    29b2:	60 02       	mov.l	@r0,r0
    29b4:	e2 42       	mov	#66,r2
    29b6:	36 02       	cmp/hs	r0,r6
    29b8:	78 01       	add	#1,r8
    29ba:	60 1a       	negc	r1,r0
    29bc:	36 02       	cmp/hs	r0,r6
    29be:	e4 43       	mov	#67,r4
    29c0:	60 10       	mov.b	@r1,r0
    29c2:	36 02       	cmp/hs	r0,r6
    29c4:	78 03       	add	#3,r8
    29c6:	60 0e       	exts.b	r0,r0
    29c8:	36 02       	cmp/hs	r0,r6
    29ca:	78 02       	add	#2,r8
    29cc:	60 08       	swap.b	r0,r0
    29ce:	36 02       	cmp/hs	r0,r6
    29d0:	e2 43       	mov	#67,r2
    29d2:	d4 43       	mov.l	2ae0 <_sddrv_129i+0x2ae0>,r4	! 6b00ec0c
    29d4:	78 01       	add	#1,r8
    29d6:	e8 63       	mov	#99,r8
    29d8:	d4 43       	mov.l	2ae8 <_sddrv_129i+0x2ae8>,r4	! 7004b432
    29da:	36 2e       	addc	r2,r6
    29dc:	18 00       	mov.l	r0,@(0,r8)
    29de:	e9 49       	mov	#73,r9
    29e0:	d6 41       	mov.l	2ae8 <_sddrv_129i+0x2ae8>,r6	! 7004b432
    29e2:	3d 82       	cmp/hs	r8,r13
    29e4:	30 08       	sub	r0,r0
    29e6:	4e 75       	.word 0x4e75
    29e8:	10 01       	mov.l	r0,@(4,r0)
    29ea:	12 03       	mov.l	r0,@(12,r2)
    29ec:	61 00       	mov.b	@r0,r1
    29ee:	15 c2       	mov.l	r12,@(8,r5)
    29f0:	4e 75       	.word 0x4e75
    29f2:	41 f9       	.word 0x41f9
    29f4:	00 00       	.word 0x0000
    29f6:	2a 56       	mov.l	r5,@-r10
    29f8:	10 01       	mov.l	r0,@(4,r0)
    29fa:	12 03       	mov.l	r0,@(12,r2)
    29fc:	02 80       	.word 0x0280
    29fe:	00 00       	.word 0x0000
    2a00:	00 01       	.word 0x0001
    2a02:	d1 c0       	mov.l	2d04 <_sddrv_129i+0x2d04>,r1	! 2430fc0
    2a04:	10 81       	mov.l	r8,@(4,r0)
    2a06:	14 28       	mov.l	r2,@(32,r4)
    2a08:	00 02       	stc	sr,r0
    2a0a:	16 28       	mov.l	r2,@(32,r6)
    2a0c:	00 04       	mov.b	r0,@(r0,r0)
    2a0e:	61 00       	mov.b	@r0,r1
    2a10:	15 ec       	mov.l	r14,@(48,r5)
    2a12:	4e 75       	.word 0x4e75
    2a14:	41 f9       	.word 0x41f9
    2a16:	00 00       	.word 0x0000
    2a18:	2a 56       	mov.l	r5,@-r10
    2a1a:	10 01       	mov.l	r0,@(4,r0)
    2a1c:	14 03       	mov.l	r0,@(12,r4)
    2a1e:	02 80       	.word 0x0280
    2a20:	00 00       	.word 0x0000
    2a22:	00 01       	.word 0x0001
    2a24:	d1 c0       	mov.l	2d28 <_sddrv_129i+0x2d28>,r1	! 400539ae
    2a26:	11 42       	mov.l	r4,@(8,r1)
    2a28:	00 02       	stc	sr,r0
    2a2a:	12 10       	mov.l	r1,@(0,r2)
    2a2c:	16 28       	mov.l	r2,@(32,r6)
    2a2e:	00 04       	mov.b	r0,@(r0,r0)
    2a30:	61 00       	mov.b	@r0,r1
    2a32:	15 ca       	mov.l	r12,@(40,r5)
    2a34:	4e 75       	.word 0x4e75
    2a36:	41 f9       	.word 0x41f9
    2a38:	00 00       	.word 0x0000
    2a3a:	2a 56       	mov.l	r5,@-r10
    2a3c:	10 01       	mov.l	r0,@(4,r0)
    2a3e:	02 80       	.word 0x0280
    2a40:	00 00       	.word 0x0000
    2a42:	00 01       	.word 0x0001
    2a44:	d1 c0       	mov.l	2d48 <_sddrv_129i+0x2d48>,r1	! 70003c2a
    2a46:	11 43       	mov.l	r4,@(12,r1)
    2a48:	00 04       	mov.b	r0,@(r0,r0)
    2a4a:	12 10       	mov.l	r1,@(0,r2)
    2a4c:	14 28       	mov.l	r2,@(32,r4)
    2a4e:	00 02       	stc	sr,r0
    2a50:	61 00       	mov.b	@r0,r1
    2a52:	15 aa       	mov.l	r10,@(40,r5)
    2a54:	4e 75       	.word 0x4e75
    2a56:	00 00       	.word 0x0000
    2a58:	00 00       	.word 0x0000
    2a5a:	00 00       	.word 0x0000
    2a5c:	16 03       	mov.l	r0,@(12,r6)
    2a5e:	67 00       	mov.b	@r0,r7
    2a60:	06 1e       	mov.l	@(r0,r1),r6
    2a62:	70 00       	add	#0,r0
    2a64:	3c 2e       	addc	r2,r12
    2a66:	18 0a       	mov.l	r0,@(40,r8)
    2a68:	10 36       	mov.l	r3,@(24,r0)
    2a6a:	60 00       	mov.b	@r0,r0
    2a6c:	45 ee       	ldc	r5,r6_bank
    2a6e:	1e 00       	mov.l	r0,@(0,r14)
    2a70:	42 46       	.word 0x4246
    2a72:	1c 2e       	mov.l	r2,@(56,r12)
    2a74:	18 30       	mov.l	r3,@(0,r8)
    2a76:	67 48       	swap.b	r4,r7
    2a78:	22 6e       	mulu.w	r6,r2
    2a7a:	18 2c       	mov.l	r2,@(48,r8)
    2a7c:	53 46       	mov.l	@(24,r4),r3
    2a7e:	02 46       	mov.l	r4,@(r0,r2)
    2a80:	00 1f       	mac.l	@r1+,@r0+
    2a82:	b2 11       	bsr	2ea8 <_sddrv_129i+0x2ea8>
    2a84:	66 2e       	exts.b	r2,r6
    2a86:	15 69       	mov.l	r6,@(36,r5)
    2a88:	00 01       	.word 0x0001
    2a8a:	00 00       	.word 0x0000
    2a8c:	25 49       	and	r4,r5
    2a8e:	00 08       	clrt	
    2a90:	15 7c       	mov.l	r7,@(48,r5)
    2a92:	00 00       	.word 0x0000
    2a94:	00 06       	mov.l	r0,@(r0,r0)
    2a96:	15 69       	mov.l	r6,@(36,r5)
    2a98:	00 11       	.word 0x0011
    2a9a:	00 01       	.word 0x0001
    2a9c:	42 45       	.word 0x4245
    2a9e:	1a 29       	mov.l	r2,@(36,r10)
    2aa0:	00 10       	.word 0x0010
    2aa2:	e9 4d       	mov	#77,r9
    2aa4:	35 45       	dmulu.l	r4,r5
    2aa6:	00 04       	mov.b	r0,@(r0,r0)
    2aa8:	da 45       	mov.l	2bc0 <_sddrv_129i+0x2bc0>,r10	! 24407c0
    2aaa:	db 6a       	mov.l	2c54 <_sddrv_129i+0x2c54>,r11	! 24407c0
    2aac:	00 04       	mov.b	r0,@(r0,r0)
    2aae:	35 7c       	add	r7,r5
    2ab0:	00 00       	.word 0x0000
    2ab2:	00 02       	stc	sr,r0
    2ab4:	43 e9       	.word 0x43e9
    2ab6:	00 18       	sett	
    2ab8:	45 ea       	.word 0x45ea
    2aba:	00 10       	.word 0x0010
    2abc:	51 ce       	mov.l	@(56,r12),r1
    2abe:	ff c4       	fcmp/eq	fr12,fr15
    2ac0:	3a 2e       	addc	r2,r10
    2ac2:	18 0a       	mov.l	r0,@(40,r8)
    2ac4:	2c 36       	mov.l	r3,@-r12
    2ac6:	50 04       	mov.l	@(16,r0),r0
    2ac8:	66 02       	mov.l	@r0,r6
    2aca:	4e 75       	.word 0x4e75
    2acc:	24 46       	mov.l	r4,@-r4
    2ace:	d0 40       	mov.l	2bd0 <_sddrv_129i+0x2bd0>,r0	! 13a536e
    2ad0:	d4 f2       	mov.l	2e9c <_sddrv_129i+0x2e9c>,r4	! e64e6008
    2ad2:	00 08       	clrt	
    2ad4:	43 ee       	ldc	r3,r6_bank
    2ad6:	19 00       	mov.l	r0,@(0,r9)
    2ad8:	7a 00       	add	#0,r10
    2ada:	7c 00       	add	#0,r12
    2adc:	1e 2a       	mov.l	r2,@(40,r14)
    2ade:	00 02       	stc	sr,r0
    2ae0:	6b 00       	mov.b	@r0,r11
    2ae2:	ec 0c       	mov	#12,r12
    2ae4:	02 47       	mul.l	r4,r2
    2ae6:	00 7f       	mac.l	@r7+,@r0+
    2ae8:	70 04       	add	#4,r0
    2aea:	b4 32       	bsr	3352 <_sddrv_129i+0x3352>
    2aec:	00 00       	.word 0x0000
    2aee:	65 16       	mov.l	@r1+,r5
    2af0:	b4 32       	bsr	3358 <_sddrv_129i+0x3358>
    2af2:	00 01       	.word 0x0001
    2af4:	62 10       	mov.b	@r1,r2
    2af6:	22 8a       	xor	r8,r2
    2af8:	d1 99       	mov.l	2d60 <_sddrv_129i+0x2d60>,r1	! 400e2a2a
    2afa:	22 c5       	mov.w	r12,@-r2
    2afc:	52 46       	mov.l	@(24,r4),r2
    2afe:	0c 46       	mov.l	r4,@(r0,r12)
    2b00:	00 21       	.word 0x0021
    2b02:	64 00       	mov.b	@r0,r4
    2b04:	eb f6       	mov	#-10,r11
    2b06:	52 45       	mov.l	@(20,r4),r2
    2b08:	06 40       	.word 0x0640
    2b0a:	00 20       	.word 0x0020
    2b0c:	51 cf       	mov.l	@(60,r12),r1
    2b0e:	ff dc       	fmov	fr13,fr15
    2b10:	3d 46       	cmp/hi	r4,r13
    2b12:	18 24       	mov.l	r2,@(16,r8)
    2b14:	3d 46       	cmp/hi	r4,r13
    2b16:	18 28       	mov.l	r2,@(32,r8)
    2b18:	67 00       	mov.b	@r0,r7
    2b1a:	eb e6       	mov	#-26,r11
    2b1c:	3a 2e       	addc	r2,r10
    2b1e:	18 0a       	mov.l	r0,@(40,r8)
    2b20:	1d 83       	mov.l	r8,@(12,r13)
    2b22:	50 0d       	mov.l	@(52,r0),r0
    2b24:	1d b6       	mov.l	r11,@(24,r13)
    2b26:	50 0b       	mov.l	@(44,r0),r0
    2b28:	50 0c       	mov.l	@(48,r0),r0
    2b2a:	1d b6       	mov.l	r11,@(24,r13)
    2b2c:	50 0a       	mov.l	@(40,r0),r0
    2b2e:	50 0b       	mov.l	@(44,r0),r0
    2b30:	1d 82       	mov.l	r8,@(8,r13)
    2b32:	50 0a       	mov.l	@(40,r0),r0
    2b34:	26 76       	mov.l	r7,@-r6
    2b36:	50 04       	mov.l	@(16,r0),r0
    2b38:	1d aa       	mov.l	r10,@(40,r13)
    2b3a:	00 03       	bsrf	r0
    2b3c:	50 0e       	mov.l	@(56,r0),r0
    2b3e:	10 12       	mov.l	r1,@(8,r0)
    2b40:	41 ee       	ldc	r1,r6_bank
    2b42:	18 c0       	mov.l	r12,@(0,r8)
    2b44:	02 00       	.word 0x0200
    2b46:	00 70       	.word 0x0070
    2b48:	1d 40       	mov.l	r4,@(0,r13)
    2b4a:	18 15       	mov.l	r1,@(20,r8)
    2b4c:	67 00       	mov.b	@r0,r7
    2b4e:	00 94       	mov.b	r9,@(r0,r0)
    2b50:	3a 2e       	addc	r2,r10
    2b52:	18 0a       	mov.l	r0,@(40,r8)
    2b54:	08 f6       	mov.l	r15,@(r0,r8)
    2b56:	00 07       	mul.l	r0,r0
    2b58:	50 03       	mov.l	@(12,r0),r0
    2b5a:	7e 20       	add	#32,r14
    2b5c:	9e 6e       	mov.w	2c3c <_sddrv_129i+0x2c3c>,r14	! 182a
    2b5e:	18 2a       	mov.l	r2,@(40,r8)
    2b60:	67 3c       	extu.b	r3,r7
    2b62:	53 47       	mov.l	@(28,r4),r3
    2b64:	49 ee       	ldc	r9,r6_bank
    2b66:	10 00       	mov.l	r0,@(0,r0)
    2b68:	30 2e       	addc	r2,r0
    2b6a:	18 22       	mov.l	r2,@(8,r8)
    2b6c:	02 40       	.word 0x0240
    2b6e:	00 3e       	mov.l	@(r0,r3),r0
    2b70:	38 30       	cmp/eq	r3,r8
    2b72:	00 00       	.word 0x0000
    2b74:	02 44       	mov.b	r4,@(r0,r2)
    2b76:	07 c0       	.word 0x07c0
    2b78:	1a 34       	mov.l	r3,@(16,r10)
    2b7a:	40 34       	.word 0x4034
    2b7c:	6b 1a       	negc	r1,r11
    2b7e:	b2 34       	bsr	2fea <_sddrv_129i+0x2fea>
    2b80:	40 01       	shlr	r0
    2b82:	66 14       	mov.b	@r1+,r6
    2b84:	3a 34       	div1	r3,r10
    2b86:	40 06       	lds.l	@r0+,mach
    2b88:	ba 6e       	bsr	2068 <_sddrv_129i+0x2068>
    2b8a:	18 00       	mov.l	r0,@(0,r8)
    2b8c:	66 0a       	negc	r0,r6
    2b8e:	4e ba       	.word 0x4eba
    2b90:	01 7a       	.word 0x017a
    2b92:	53 6e       	mov.l	@(56,r6),r3
    2b94:	18 24       	mov.l	r2,@(16,r8)
    2b96:	67 46       	mov.l	@r4+,r7
    2b98:	54 40       	mov.l	@(0,r4),r4
    2b9a:	51 cf       	mov.l	@(60,r12),r1
    2b9c:	ff d0       	fadd	fr13,fr15
    2b9e:	3e 3c       	add	r3,r14
    2ba0:	00 1f       	mac.l	@r1+,@r0+
    2ba2:	30 2e       	addc	r2,r0
    2ba4:	18 20       	mov.l	r2,@(0,r8)
    2ba6:	3a 2e       	addc	r2,r10
    2ba8:	18 2a       	mov.l	r2,@(40,r8)
    2baa:	53 45       	mov.l	@(20,r4),r3
    2bac:	64 06       	mov.l	@r0+,r4
    2bae:	54 6e       	mov.l	@(56,r6),r4
    2bb0:	18 22       	mov.l	r2,@(8,r8)
    2bb2:	52 45       	mov.l	@(20,r4),r2
    2bb4:	3d 45       	dmulu.l	r4,r13
    2bb6:	18 2a       	mov.l	r2,@(40,r8)
    2bb8:	02 40       	.word 0x0240
    2bba:	00 3e       	mov.l	@(r0,r3),r0
    2bbc:	38 30       	cmp/eq	r3,r8
    2bbe:	00 00       	.word 0x0000
    2bc0:	02 44       	mov.b	r4,@(r0,r2)
    2bc2:	07 c0       	.word 0x07c0
    2bc4:	54 6e       	mov.l	@(56,r6),r4
    2bc6:	18 20       	mov.l	r2,@(0,r8)
    2bc8:	1c 34       	mov.l	r3,@(16,r12)
    2bca:	40 34       	.word 0x4034
    2bcc:	6b 0a       	negc	r0,r11
    2bce:	4e ba       	.word 0x4eba
    2bd0:	01 3a       	stc	sgr,r1
    2bd2:	53 6e       	mov.l	@(56,r6),r3
    2bd4:	18 24       	mov.l	r2,@(16,r8)
    2bd6:	67 06       	mov.l	@r0+,r7
    2bd8:	54 40       	mov.l	@(0,r4),r4
    2bda:	51 cf       	mov.l	@(60,r12),r1
    2bdc:	ff ca       	fmov	fr12,@r15
    2bde:	4e fa       	ldc	r14,dbr
    2be0:	00 92       	stc	r1_bank,r0
    2be2:	1d bc       	mov.l	r11,@(48,r13)
    2be4:	00 00       	.word 0x0000
    2be6:	50 0a       	mov.l	@(40,r0),r0
    2be8:	49 ee       	ldc	r9,r6_bank
    2bea:	10 00       	mov.l	r0,@(0,r0)
    2bec:	7e 20       	add	#32,r14
    2bee:	9e 6e       	mov.w	2cce <_sddrv_129i+0x2cce>,r14	! 10
    2bf0:	18 2a       	mov.l	r2,@(40,r8)
    2bf2:	67 3e       	exts.b	r3,r7
    2bf4:	53 47       	mov.l	@(28,r4),r3
    2bf6:	30 2e       	addc	r2,r0
    2bf8:	18 22       	mov.l	r2,@(8,r8)
    2bfa:	02 40       	.word 0x0240
    2bfc:	00 3e       	mov.l	@(r0,r3),r0
    2bfe:	38 30       	cmp/eq	r3,r8
    2c00:	00 00       	.word 0x0000
    2c02:	02 44       	mov.b	r4,@(r0,r2)
    2c04:	07 c0       	.word 0x07c0
    2c06:	1a 34       	mov.l	r3,@(16,r10)
    2c08:	40 34       	.word 0x4034
    2c0a:	6b 20       	mov.b	@r2,r11
    2c0c:	b2 34       	bsr	3078 <_sddrv_129i+0x3078>
    2c0e:	40 01       	shlr	r0
    2c10:	66 1a       	negc	r1,r6
    2c12:	b4 34       	bsr	347e <_sddrv_129i+0x347e>
    2c14:	40 02       	sts.l	mach,@-r0
    2c16:	66 14       	mov.b	@r1+,r6
    2c18:	3a 34       	div1	r3,r10
    2c1a:	40 06       	lds.l	@r0+,mach
    2c1c:	ba 6e       	bsr	20fc <_sddrv_129i+0x20fc>
    2c1e:	18 00       	mov.l	r0,@(0,r8)
    2c20:	66 0a       	negc	r0,r6
    2c22:	4e ba       	.word 0x4eba
    2c24:	00 e6       	mov.l	r14,@(r0,r0)
    2c26:	53 6e       	mov.l	@(56,r6),r3
    2c28:	18 24       	mov.l	r2,@(16,r8)
    2c2a:	67 46       	mov.l	@r4+,r7
    2c2c:	54 40       	mov.l	@(0,r4),r4
    2c2e:	51 cf       	mov.l	@(60,r12),r1
    2c30:	ff ca       	fmov	fr12,@r15
    2c32:	3e 3c       	add	r3,r14
    2c34:	00 1f       	mac.l	@r1+,@r0+
    2c36:	30 2e       	addc	r2,r0
    2c38:	18 20       	mov.l	r2,@(0,r8)
    2c3a:	3a 2e       	addc	r2,r10
    2c3c:	18 2a       	mov.l	r2,@(40,r8)
    2c3e:	53 45       	mov.l	@(20,r4),r3
    2c40:	64 06       	mov.l	@r0+,r4
    2c42:	54 6e       	mov.l	@(56,r6),r4
    2c44:	18 22       	mov.l	r2,@(8,r8)
    2c46:	52 45       	mov.l	@(20,r4),r2
    2c48:	3d 45       	dmulu.l	r4,r13
    2c4a:	18 2a       	mov.l	r2,@(40,r8)
    2c4c:	02 40       	.word 0x0240
    2c4e:	00 3e       	mov.l	@(r0,r3),r0
    2c50:	38 30       	cmp/eq	r3,r8
    2c52:	00 00       	.word 0x0000
    2c54:	02 44       	mov.b	r4,@(r0,r2)
    2c56:	07 c0       	.word 0x07c0
    2c58:	54 6e       	mov.l	@(56,r6),r4
    2c5a:	18 20       	mov.l	r2,@(0,r8)
    2c5c:	1c 34       	mov.l	r3,@(16,r12)
    2c5e:	40 34       	.word 0x4034
    2c60:	6b 0a       	negc	r0,r11
    2c62:	4e ba       	.word 0x4eba
    2c64:	00 a6       	mov.l	r10,@(r0,r0)
    2c66:	53 6e       	mov.l	@(56,r6),r3
    2c68:	18 24       	mov.l	r2,@(16,r8)
    2c6a:	67 06       	mov.l	@r0+,r7
    2c6c:	54 40       	mov.l	@(0,r4),r4
    2c6e:	51 cf       	mov.l	@(60,r12),r1
    2c70:	ff ca       	fmov	fr12,@r15
    2c72:	43 ee       	ldc	r3,r6_bank
    2c74:	19 00       	mov.l	r0,@(0,r9)
    2c76:	3e 2e       	addc	r2,r14
    2c78:	18 28       	mov.l	r2,@(32,r8)
    2c7a:	53 47       	mov.l	@(28,r4),r3
    2c7c:	24 51       	mov.w	r5,@r4
    2c7e:	38 29       	.word 0x3829
    2c80:	00 04       	mov.b	r0,@(r0,r0)
    2c82:	e2 4c       	mov	#76,r2
    2c84:	1a 35       	mov.l	r3,@(20,r10)
    2c86:	40 00       	shll	r0
    2c88:	02 05       	mov.w	r0,@(r0,r2)
    2c8a:	00 07       	mul.l	r0,r0
    2c8c:	08 2e       	mov.l	@(r0,r2),r8
    2c8e:	00 05       	mov.w	r0,@(r0,r0)
    2c90:	18 15       	mov.l	r1,@(20,r8)
    2c92:	67 04       	mov.b	@r0+,r7
    2c94:	00 05       	mov.w	r0,@(r0,r0)
    2c96:	00 18       	sett	
    2c98:	00 05       	mov.w	r0,@(r0,r0)
    2c9a:	00 08       	clrt	
    2c9c:	1b 85       	mov.l	r8,@(20,r11)
    2c9e:	40 00       	shll	r0
    2ca0:	d8 44       	mov.l	2db4 <_sddrv_129i+0x2db4>,r8	! e08c05
    2ca2:	30 2a       	subc	r2,r0
    2ca4:	00 10       	.word 0x0010
    2ca6:	67 1c       	extu.b	r1,r7
    2ca8:	12 2a       	mov.l	r2,@(40,r2)
    2caa:	00 1b       	sleep	
    2cac:	4e ba       	.word 0x4eba
    2cae:	00 26       	mov.l	r2,@(r0,r0)
    2cb0:	80 43       	mov.b	r0,@(3,r4)
    2cb2:	12 2a       	mov.l	r2,@(40,r2)
    2cb4:	00 1c       	mov.b	@(r0,r1),r0
    2cb6:	4e ba       	.word 0x4eba
    2cb8:	00 1c       	mov.b	@(r0,r1),r0
    2cba:	ec 4b       	mov	#75,r12
    2cbc:	80 43       	mov.b	r0,@(3,r4)
    2cbe:	e2 4c       	mov	#76,r2
    2cc0:	3b 80       	cmp/eq	r8,r11
    2cc2:	40 0e       	ldc	r0,sr
    2cc4:	50 49       	mov.l	@(36,r4),r0
    2cc6:	51 cf       	mov.l	@(60,r12),r1
    2cc8:	ff b4       	fcmp/eq	fr11,fr15
    2cca:	10 15       	mov.l	r1,@(20,r0)
    2ccc:	00 00       	.word 0x0000
    2cce:	00 10       	.word 0x0010
    2cd0:	1a 80       	mov.l	r8,@(0,r10)
    2cd2:	4e 75       	.word 0x4e75
    2cd4:	14 01       	mov.l	r0,@(4,r4)
    2cd6:	02 01       	.word 0x0201
    2cd8:	00 7f       	mac.l	@r7+,@r0+
    2cda:	41 ee       	ldc	r1,r6_bank
    2cdc:	19 00       	mov.l	r0,@(0,r9)
    2cde:	b2 28       	bsr	3132 <_sddrv_129i+0x3132>
    2ce0:	00 07       	mul.l	r0,r0
    2ce2:	67 04       	mov.b	@r0+,r7
    2ce4:	50 48       	mov.l	@(32,r4),r0
    2ce6:	60 f6       	mov.l	@r15+,r0
    2ce8:	36 28       	sub	r2,r6
    2cea:	00 04       	mov.b	r0,@(r0,r0)
    2cec:	96 44       	mov.w	2d78 <_sddrv_129i+0x2d78>,r6	! 1b86
    2cee:	02 43       	.word 0x0243
    2cf0:	07 c0       	.word 0x07c0
    2cf2:	0c 43       	.word 0x0c43
    2cf4:	07 00       	.word 0x0700
    2cf6:	65 04       	mov.b	@r0+,r5
    2cf8:	06 43       	.word 0x0643
    2cfa:	08 00       	.word 0x0800
    2cfc:	14 02       	mov.l	r0,@(8,r4)
    2cfe:	6a 04       	mov.b	@r0+,r10
    2d00:	06 43       	.word 0x0643
    2d02:	08 00       	.word 0x0800
    2d04:	02 43       	.word 0x0243
    2d06:	0f c0       	.word 0x0fc0
    2d08:	4e 75       	.word 0x4e75
    2d0a:	e2 4c       	mov	#76,r2
    2d0c:	1a 35       	mov.l	r3,@(20,r10)
    2d0e:	40 00       	shll	r0
    2d10:	02 05       	mov.w	r0,@(r0,r2)
    2d12:	00 07       	mul.l	r0,r0
    2d14:	00 05       	mov.w	r0,@(r0,r0)
    2d16:	00 10       	.word 0x0010
    2d18:	1b 85       	mov.l	r8,@(20,r11)
    2d1a:	40 00       	shll	r0
    2d1c:	d8 44       	mov.l	2e30 <_sddrv_129i+0x2e30>,r8	! 12191419
    2d1e:	08 f4       	mov.b	r15,@(r0,r8)
    2d20:	00 01       	.word 0x0001
    2d22:	40 05       	rotr	r0
    2d24:	08 f4       	mov.b	r15,@(r0,r8)
    2d26:	00 03       	bsrf	r0
    2d28:	40 05       	rotr	r0
    2d2a:	39 ae       	addc	r10,r9
    2d2c:	18 00       	mov.l	r0,@(0,r8)
    2d2e:	40 06       	lds.l	@r0+,mach
    2d30:	19 81       	mov.l	r8,@(4,r9)
    2d32:	40 01       	shlr	r0
    2d34:	19 82       	mov.l	r8,@(8,r9)
    2d36:	40 02       	sts.l	mach,@-r0
    2d38:	19 83       	mov.l	r8,@(12,r9)
    2d3a:	40 03       	stc.l	sr,@-r0
    2d3c:	48 47       	ldc.l	@r8+,spc
    2d3e:	45 ee       	ldc	r5,r6_bank
    2d40:	19 00       	mov.l	r0,@(0,r9)
    2d42:	35 84       	div1	r8,r5
    2d44:	70 04       	add	#4,r0
    2d46:	24 72       	mov.l	r7,@r4
    2d48:	70 00       	add	#0,r0
    2d4a:	3c 2a       	subc	r2,r12
    2d4c:	00 10       	.word 0x0010
    2d4e:	29 8a       	xor	r8,r9
    2d50:	40 08       	shll2	r0
    2d52:	2a 2a       	xor	r2,r10
    2d54:	00 02       	stc	sr,r0
    2d56:	da 8b       	mov.l	2f84 <_sddrv_129i+0x2f84>,r10	! e24a45fa
    2d58:	e2 4c       	mov	#76,r2
    2d5a:	2b 85       	mov.w	r8,@-r11
    2d5c:	40 00       	shll	r0
    2d5e:	3b 86       	cmp/hi	r8,r11
    2d60:	40 0e       	ldc	r0,sr
    2d62:	2a 2a       	xor	r2,r10
    2d64:	00 06       	mov.l	r0,@(r0,r0)
    2d66:	2b 85       	mov.w	r8,@-r11
    2d68:	40 04       	rotl	r0
    2d6a:	2b aa       	xor	r10,r11
    2d6c:	00 0a       	sts	mach,r0
    2d6e:	40 08       	shll2	r0
    2d70:	1c 2a       	mov.l	r2,@(40,r12)
    2d72:	00 0e       	mov.l	@(r0,r0),r0
    2d74:	3a 2a       	subc	r2,r10
    2d76:	00 14       	mov.b	r1,@(r0,r0)
    2d78:	1b 86       	mov.l	r8,@(24,r11)
    2d7a:	40 0c       	shad	r0,r0
    2d7c:	6a 04       	mov.b	@r0+,r10
    2d7e:	02 45       	mov.w	r4,@(r0,r2)
    2d80:	ff 18       	fmov	@r1,fr15
    2d82:	3b 85       	dmulu.l	r8,r11
    2d84:	40 12       	sts.l	macl,@-r0
    2d86:	3b aa       	subc	r10,r11
    2d88:	00 16       	mov.l	r1,@(r0,r0)
    2d8a:	40 14       	.word 0x4014
    2d8c:	1c 2a       	mov.l	r2,@(40,r12)
    2d8e:	00 18       	sett	
    2d90:	1a 2e       	mov.l	r2,@(56,r10)
    2d92:	18 31       	mov.l	r3,@(4,r8)
    2d94:	6a 06       	mov.l	@r0+,r10
    2d96:	02 06       	mov.l	r0,@(r0,r2)
    2d98:	00 e0       	.word 0x00e0
    2d9a:	60 1c       	extu.b	r1,r0
    2d9c:	3a 2e       	addc	r2,r10
    2d9e:	18 0a       	mov.l	r0,@(40,r8)
    2da0:	1a 36       	mov.l	r3,@(24,r10)
    2da2:	50 01       	mov.l	@(4,r0),r0
    2da4:	08 05       	mov.w	r0,@(r0,r8)
    2da6:	00 06       	mov.l	r0,@(r0,r0)
    2da8:	66 04       	mov.b	@r0+,r6
    2daa:	1a 05       	mov.l	r0,@(20,r10)
    2dac:	6a 0a       	negc	r0,r10
    2dae:	02 05       	mov.w	r0,@(r0,r2)
    2db0:	00 1f       	mac.l	@r1+,@r0+
    2db2:	02 06       	mov.l	r0,@(r0,r2)
    2db4:	00 e0       	.word 0x00e0
    2db6:	8c 05       	.word 0x8c05
    2db8:	1b 86       	mov.l	r8,@(24,r11)
    2dba:	40 16       	lds.l	@r0+,macl
    2dbc:	d8 44       	mov.l	2ed0 <_sddrv_129i+0x2ed0>,r8	! e24c3a2e
    2dbe:	19 46       	mov.l	r4,@(24,r9)
    2dc0:	00 04       	mov.b	r0,@(r0,r0)
    2dc2:	e2 4c       	mov	#76,r2
    2dc4:	42 46       	.word 0x4246
    2dc6:	08 2a       	sts	pr,r8
    2dc8:	00 05       	mov.w	r0,@(r0,r0)
    2dca:	00 02       	stc	sr,r0
    2dcc:	66 26       	mov.l	@r2+,r6
    2dce:	1c 2a       	mov.l	r2,@(40,r12)
    2dd0:	00 17       	mul.l	r1,r0
    2dd2:	02 06       	mov.l	r0,@(r0,r2)
    2dd4:	00 07       	mul.l	r0,r0
    2dd6:	66 1c       	extu.b	r1,r6
    2dd8:	1c 2a       	mov.l	r2,@(40,r12)
    2dda:	00 18       	sett	
    2ddc:	02 06       	mov.l	r0,@(r0,r2)
    2dde:	00 e0       	.word 0x00e0
    2de0:	66 12       	mov.l	@r1,r6
    2de2:	1c 2a       	mov.l	r2,@(40,r12)
    2de4:	00 0f       	mac.l	@r0+,@r0+
    2de6:	d8 44       	mov.l	2ef8 <_sddrv_129i+0x2ef8>,r8	! 44059c05
    2de8:	08 b4       	mov.b	r11,@(r0,r8)
    2dea:	00 00       	.word 0x0000
    2dec:	40 05       	rotr	r0
    2dee:	e2 4c       	mov	#76,r2
    2df0:	60 00       	mov.b	@r0,r0
    2df2:	01 10       	.word 0x0110
    2df4:	d8 44       	mov.l	2f08 <_sddrv_129i+0x2f08>,r8	! d84408b4
    2df6:	08 f4       	mov.b	r15,@(r0,r8)
    2df8:	00 00       	.word 0x0000
    2dfa:	40 05       	rotr	r0
    2dfc:	e2 4c       	mov	#76,r2
    2dfe:	1c 03       	mov.l	r0,@(12,r12)
    2e00:	48 41       	.word 0x4841
    2e02:	48 42       	.word 0x4842
    2e04:	48 43       	stc.l	spc,@-r8
    2e06:	22 4b       	or	r4,r2
    2e08:	d2 e9       	mov.l	31b0 <_sddrv_129i+0x31b0>,r2	! 182c5346
    2e0a:	00 02       	stc	sr,r0
    2e0c:	7a 00       	add	#0,r10
    2e0e:	1a 2a       	mov.l	r2,@(40,r10)
    2e10:	00 1d       	mov.w	@(r0,r1),r0
    2e12:	da 45       	mov.l	2f28 <_sddrv_129i+0x2f28>,r10	! 26704
    2e14:	d3 c5       	mov.l	312c <_sddrv_129i+0x312c>,r3	! 6600006e
    2e16:	da 45       	mov.l	2f2c <_sddrv_129i+0x2f2c>,r10	! 4eba00fc
    2e18:	da 45       	mov.l	2f30 <_sddrv_129i+0x2f30>,r10	! e24c4eba
    2e1a:	d3 c5       	mov.l	3130 <_sddrv_129i+0x3130>,r3	! 8b40003
    2e1c:	42 41       	.word 0x4241
    2e1e:	42 42       	.word 0x4242
    2e20:	16 19       	mov.l	r1,@(36,r6)
    2e22:	bc 11       	bsr	2648 <_sddrv_129i+0x2648>
    2e24:	63 1a       	negc	r1,r3
    2e26:	12 19       	mov.l	r1,@(36,r2)
    2e28:	14 19       	mov.l	r1,@(36,r4)
    2e2a:	16 19       	mov.l	r1,@(36,r6)
    2e2c:	bc 11       	bsr	2652 <_sddrv_129i+0x2652>
    2e2e:	63 10       	mov.b	@r1,r3
    2e30:	12 19       	mov.l	r1,@(36,r2)
    2e32:	14 19       	mov.l	r1,@(36,r4)
    2e34:	16 19       	mov.l	r1,@(36,r6)
    2e36:	bc 11       	bsr	265c <_sddrv_129i+0x265c>
    2e38:	63 06       	mov.l	@r0+,r3
    2e3a:	12 19       	mov.l	r1,@(36,r2)
    2e3c:	14 19       	mov.l	r1,@(36,r4)
    2e3e:	16 19       	mov.l	r1,@(36,r6)
    2e40:	9c 01       	mov.w	2e46 <_sddrv_129i+0x2e46>,r12	! 7
    2e42:	12 03       	mov.l	r0,@(12,r2)
    2e44:	02 41       	.word 0x0241
    2e46:	00 07       	mul.l	r0,r0
    2e48:	d2 41       	mov.l	2f50 <_sddrv_129i+0x2f50>,r2	! 4886da46
    2e4a:	e8 0b       	mov	#11,r8
    2e4c:	4e fb       	.word 0x4efb
    2e4e:	10 02       	mov.l	r0,@(8,r0)
    2e50:	60 0e       	exts.b	r0,r0
    2e52:	60 18       	swap.b	r1,r0
    2e54:	60 0c       	extu.b	r0,r0
    2e56:	60 48       	swap.b	r4,r0
    2e58:	60 06       	mov.l	@r0+,r0
    2e5a:	60 4a       	negc	r4,r0
    2e5c:	60 08       	swap.b	r0,r0
    2e5e:	60 28       	swap.b	r2,r0
    2e60:	7c 00       	add	#0,r12
    2e62:	dc 02       	mov.l	2e6c <_sddrv_129i+0x2e6c>,r12	! 6506e72e
    2e64:	60 46       	mov.l	@r4+,r0
    2e66:	9c 02       	mov.w	2e6e <_sddrv_129i+0x2e6e>,r12	! e72e
    2e68:	44 06       	lds.l	@r4+,mach
    2e6a:	60 40       	mov.b	@r4,r0
    2e6c:	65 06       	mov.l	@r0+,r5
    2e6e:	e7 2e       	mov	#46,r7
    2e70:	dc 02       	mov.l	2e7c <_sddrv_129i+0x2e7c>,r12	! dc41dc41
    2e72:	60 38       	swap.b	r3,r0
    2e74:	02 46       	mov.l	r4,@(r0,r2)
    2e76:	00 7f       	mac.l	@r7+,@r0+
    2e78:	e5 4e       	mov	#78,r5
    2e7a:	32 06       	cmp/hi	r0,r2
    2e7c:	dc 41       	mov.l	2f84 <_sddrv_129i+0x2f84>,r12	! e24a45fa
    2e7e:	dc 41       	mov.l	2f84 <_sddrv_129i+0x2f84>,r12	! e24a45fa
    2e80:	e7 6e       	mov	#110,r7
    2e82:	e6 4e       	mov	#78,r6
    2e84:	dc 02       	mov.l	2e90 <_sddrv_129i+0x2e90>,r12	! 7fe54e
    2e86:	60 24       	mov.b	@r2+,r0
    2e88:	65 04       	mov.b	@r0+,r5
    2e8a:	e7 2e       	mov	#46,r7
    2e8c:	60 1a       	negc	r1,r0
    2e8e:	02 46       	mov.l	r4,@(r0,r2)
    2e90:	00 7f       	mac.l	@r7+,@r0+
    2e92:	e5 4e       	mov	#78,r5
    2e94:	32 06       	cmp/hi	r0,r2
    2e96:	dc 41       	mov.l	2f9c <_sddrv_129i+0x2f9c>,r12	! c4204d9
    2e98:	dc 41       	mov.l	2fa0 <_sddrv_129i+0x2fa0>,r12	! 65040645
    2e9a:	e7 6e       	mov	#110,r7
    2e9c:	e6 4e       	mov	#78,r6
    2e9e:	60 08       	swap.b	r0,r0
    2ea0:	e6 2e       	mov	#46,r6
    2ea2:	dc 02       	mov.l	2eac <_sddrv_129i+0x2eac>,r12	! 6a0c4242
    2ea4:	60 06       	mov.l	@r0+,r0
    2ea6:	e6 2e       	mov	#46,r6
    2ea8:	9c 02       	mov.w	2eb0 <_sddrv_129i+0x2eb0>,r12	! dc06
    2eaa:	44 06       	lds.l	@r4+,mach
    2eac:	6a 0c       	extu.b	r0,r10
    2eae:	42 42       	.word 0x4242
    2eb0:	dc 06       	mov.l	2ecc <_sddrv_129i+0x2ecc>,r12	! 39864036
    2eb2:	6b 04       	mov.b	@r0+,r11
    2eb4:	34 3c       	add	r3,r4
    2eb6:	00 7f       	mac.l	@r7+,@r0+
    2eb8:	3c 02       	cmp/hs	r0,r12
    2eba:	48 41       	.word 0x4841
    2ebc:	48 42       	.word 0x4842
    2ebe:	48 43       	stc.l	spc,@-r8
    2ec0:	dc 46       	mov.l	2fdc <_sddrv_129i+0x2fdc>,r12	! 39804018
    2ec2:	1a 2a       	mov.l	r2,@(40,r10)
    2ec4:	00 0f       	mac.l	@r0+,@r0+
    2ec6:	46 05       	rotr	r6
    2ec8:	cc c5       	tst.b	#-59,@(r0,gbr)
    2eca:	d8 44       	mov.l	2fdc <_sddrv_129i+0x2fdc>,r8	! 39804018
    2ecc:	39 86       	cmp/hi	r8,r9
    2ece:	40 36       	ldc.l	@r0+,sgr
    2ed0:	e2 4c       	mov	#76,r2
    2ed2:	3a 2e       	addc	r2,r10
    2ed4:	18 0a       	mov.l	r0,@(40,r8)
    2ed6:	1a 36       	mov.l	r3,@(24,r10)
    2ed8:	50 02       	mov.l	@(8,r0),r0
    2eda:	da 05       	mov.l	2ef0 <_sddrv_129i+0x2ef0>,r10	! 640e1c3c
    2edc:	02 45       	mov.w	r4,@(r0,r2)
    2ede:	00 ff       	mac.l	@r15+,@r0+
    2ee0:	cc c5       	tst.b	#-59,@(r0,gbr)
    2ee2:	48 46       	.word 0x4846
    2ee4:	3a 2e       	addc	r2,r10
    2ee6:	18 0a       	mov.l	r0,@(40,r8)
    2ee8:	1a 36       	mov.l	r3,@(24,r10)
    2eea:	50 0e       	mov.l	@(56,r0),r0
    2eec:	6b 0a       	negc	r0,r11
    2eee:	dc 05       	mov.l	2f04 <_sddrv_129i+0x2f04>,r12	! 400d4842
    2ef0:	64 0e       	exts.b	r0,r4
    2ef2:	1c 3c       	mov.l	r3,@(48,r12)
    2ef4:	00 ff       	mac.l	@r15+,@r0+
    2ef6:	60 08       	swap.b	r0,r0
    2ef8:	44 05       	rotr	r4
    2efa:	9c 05       	mov.w	2f08 <_sddrv_129i+0x2f08>,r12	! d844
    2efc:	64 02       	mov.l	@r0,r4
    2efe:	42 46       	.word 0x4246
    2f00:	46 06       	lds.l	@r6+,mach
    2f02:	1b 86       	mov.l	r8,@(24,r11)
    2f04:	40 0d       	shld	r0,r0
    2f06:	48 42       	.word 0x4842
    2f08:	d8 44       	mov.l	301c <_sddrv_129i+0x301c>,r8	! 40104014
    2f0a:	08 b4       	mov.b	r11,@(r0,r8)
    2f0c:	00 05       	mov.w	r0,@(r0,r0)
    2f0e:	40 00       	shll	r0
    2f10:	08 2a       	sts	pr,r8
    2f12:	00 06       	mov.l	r0,@(r0,r0)
    2f14:	00 02       	stc	sr,r0
    2f16:	67 04       	mov.b	@r0+,r7
    2f18:	4e ba       	.word 0x4eba
    2f1a:	00 9e       	mov.l	@(r0,r9),r0
    2f1c:	42 45       	.word 0x4245
    2f1e:	08 b4       	mov.b	r11,@(r0,r8)
    2f20:	00 06       	mov.l	r0,@(r0,r0)
    2f22:	40 00       	shll	r0
    2f24:	08 2a       	sts	pr,r8
    2f26:	00 07       	mul.l	r0,r0
    2f28:	00 02       	stc	sr,r0
    2f2a:	67 04       	mov.b	@r0+,r7
    2f2c:	4e ba       	.word 0x4eba
    2f2e:	00 fc       	mov.b	@(r0,r15),r0
    2f30:	e2 4c       	mov	#76,r2
    2f32:	4e ba       	.word 0x4eba
    2f34:	00 12       	stc	gbr,r0
    2f36:	08 b5       	mov.w	r11,@(r0,r8)
    2f38:	00 07       	mul.l	r0,r0
    2f3a:	40 12       	sts.l	macl,@-r0
    2f3c:	48 42       	.word 0x4842
    2f3e:	50 47       	mov.l	@(28,r4),r0
    2f40:	48 47       	ldc.l	@r8+,spc
    2f42:	d8 44       	mov.l	3054 <_sddrv_129i+0x3054>,r8	! 4eba0abc
    2f44:	4e 75       	.word 0x4e75
    2f46:	d8 44       	mov.l	3058 <_sddrv_129i+0x3058>,r8	! e4483980
    2f48:	42 46       	.word 0x4246
    2f4a:	42 42       	.word 0x4242
    2f4c:	1c 2a       	mov.l	r2,@(40,r12)
    2f4e:	00 1a       	sts	macl,r0
    2f50:	48 86       	.word 0x4886
    2f52:	da 46       	mov.l	306c <_sddrv_129i+0x306c>,r10	! 42403980
    2f54:	3c 05       	dmulu.l	r0,r12
    2f56:	e0 4e       	mov	#78,r0
    2f58:	14 34       	mov.l	r3,@(16,r4)
    2f5a:	40 02       	sts.l	mach,@-r0
    2f5c:	dc 42       	mov.l	3068 <_sddrv_129i+0x3068>,r12	! 40203a00
    2f5e:	06 46       	mov.l	r4,@(r0,r6)
    2f60:	00 60       	.word 0x0060
    2f62:	14 2a       	mov.l	r2,@(40,r4)
    2f64:	00 19       	div0u	
    2f66:	9c 42       	mov.w	2fee <_sddrv_129i+0x2fee>,r12	! 2986
    2f68:	02 46       	mov.l	r4,@(r0,r2)
    2f6a:	00 ff       	mac.l	@r15+,@r0+
    2f6c:	45 fa       	ldc	r5,dbr
    2f6e:	04 e4       	mov.b	r14,@(r0,r4)
    2f70:	1c 32       	mov.l	r3,@(8,r12)
    2f72:	60 00       	mov.b	@r0,r0
    2f74:	ef 4e       	mov	#78,r15
    2f76:	34 06       	cmp/hi	r0,r4
    2f78:	02 46       	mov.l	r4,@(r0,r2)
    2f7a:	78 00       	add	#0,r8
    2f7c:	d4 42       	mov.l	3088 <_sddrv_129i+0x3088>,r4	! 6700005c
    2f7e:	14 05       	mov.l	r0,@(20,r4)
    2f80:	02 42       	stc	spc,r2
    2f82:	0f fe       	mov.l	@(r0,r15),r15
    2f84:	e2 4a       	mov	#74,r2
    2f86:	45 fa       	ldc	r5,dbr
    2f88:	05 8a       	.word 0x058a
    2f8a:	42 45       	.word 0x4245
    2f8c:	1a 32       	mov.l	r3,@(8,r10)
    2f8e:	20 00       	mov.b	r0,@r0
    2f90:	0c 42       	stc	spc,r12
    2f92:	01 ef       	mac.l	@r14+,@r1+
    2f94:	65 18       	swap.b	r1,r5
    2f96:	0c 42       	stc	spc,r12
    2f98:	03 83       	pref	@r3
    2f9a:	65 0e       	exts.b	r0,r5
    2f9c:	0c 42       	stc	spc,r12
    2f9e:	04 d9       	.word 0x04d9
    2fa0:	65 04       	mov.b	@r0+,r5
    2fa2:	06 45       	mov.w	r4,@(r0,r6)
    2fa4:	01 00       	.word 0x0100
    2fa6:	06 45       	mov.w	r4,@(r0,r6)
    2fa8:	01 00       	.word 0x0100
    2faa:	06 45       	mov.w	r4,@(r0,r6)
    2fac:	01 00       	.word 0x0100
    2fae:	8c 45       	.word 0x8c45
    2fb0:	e2 4c       	mov	#76,r2
    2fb2:	3b 86       	cmp/hi	r8,r11
    2fb4:	40 10       	dt	r0
    2fb6:	4e 75       	.word 0x4e75
    2fb8:	48 40       	.word 0x4840
    2fba:	7c 00       	add	#0,r12
    2fbc:	29 86       	mov.l	r8,@-r9
    2fbe:	40 0c       	shad	r0,r0
    2fc0:	22 4b       	or	r4,r2
    2fc2:	3c 29       	.word 0x3c29
    2fc4:	00 06       	mov.l	r0,@(r0,r0)
    2fc6:	d3 c6       	mov.l	32e0 <_sddrv_129i+0x32e0>,r3	! 4eba00ea
    2fc8:	42 42       	.word 0x4242
    2fca:	14 2a       	mov.l	r2,@(40,r4)
    2fcc:	00 1f       	mac.l	@r1+,@r0+
    2fce:	d4 42       	mov.l	30d8 <_sddrv_129i+0x30d8>,r4	! 1dbc0000
    2fd0:	d4 42       	mov.l	30dc <_sddrv_129i+0x30dc>,r4	! 500c4efa
    2fd2:	d2 c2       	mov.l	32dc <_sddrv_129i+0x32dc>,r2	! 4eba00e6
    2fd4:	10 19       	mov.l	r1,@(36,r0)
    2fd6:	4e ba       	.word 0x4eba
    2fd8:	0b 3a       	stc	sgr,r11
    2fda:	e4 48       	mov	#72,r4
    2fdc:	39 80       	cmp/eq	r8,r9
    2fde:	40 18       	shll8	r0
    2fe0:	10 19       	mov.l	r1,@(36,r0)
    2fe2:	4e ba       	.word 0x4eba
    2fe4:	0b 2e       	mov.l	@(r0,r2),r11
    2fe6:	3c 00       	cmp/eq	r0,r12
    2fe8:	48 46       	.word 0x4846
    2fea:	42 46       	.word 0x4246
    2fec:	e0 8e       	mov	#-114,r0
    2fee:	29 86       	mov.l	r8,@-r9
    2ff0:	40 10       	dt	r0
    2ff2:	10 19       	mov.l	r1,@(36,r0)
    2ff4:	4e ba       	.word 0x4eba
    2ff6:	0b 1c       	mov.b	@(r0,r1),r11
    2ff8:	e8 48       	mov	#72,r8
    2ffa:	39 80       	cmp/eq	r8,r9
    2ffc:	40 1a       	lds	r0,macl
    2ffe:	34 00       	cmp/eq	r0,r4
    3000:	10 11       	mov.l	r1,@(4,r0)
    3002:	4e ba       	.word 0x4eba
    3004:	0b 0e       	mov.l	@(r0,r0),r11
    3006:	ec 48       	mov	#72,r12
    3008:	66 04       	mov.b	@r0+,r6
    300a:	e2 4a       	mov	#74,r2
    300c:	60 04       	mov.b	@r0+,r0
    300e:	d0 40       	mov.l	3110 <_sddrv_129i+0x3110>,r0	! 6b00008a
    3010:	53 40       	mov.l	@(0,r4),r3
    3012:	39 82       	cmp/hs	r8,r9
    3014:	40 1c       	shad	r1,r0
    3016:	39 80       	cmp/eq	r8,r9
    3018:	40 1e       	ldc	r0,gbr
    301a:	29 b4       	mov.b	r11,@-r9
    301c:	40 10       	dt	r0
    301e:	40 14       	.word 0x4014
    3020:	08 f4       	mov.b	r15,@(r0,r8)
    3022:	00 05       	mov.w	r0,@(r0,r0)
    3024:	40 00       	shll	r0
    3026:	48 40       	.word 0x4840
    3028:	4e 75       	.word 0x4e75
    302a:	3d 40       	cmp/eq	r4,r13
    302c:	18 4a       	mov.l	r4,@(40,r8)
    302e:	19 bc       	mov.l	r11,@(48,r9)
    3030:	00 01       	.word 0x0001
    3032:	40 2e       	ldc	r0,vbr
    3034:	7c 00       	add	#0,r12
    3036:	22 4b       	or	r4,r2
    3038:	3c 29       	.word 0x3c29
    303a:	00 04       	mov.b	r0,@(r0,r0)
    303c:	d3 c6       	mov.l	3358 <_sddrv_129i+0x3358>,r3	! 51cffffc
    303e:	42 42       	.word 0x4242
    3040:	14 2a       	mov.l	r2,@(40,r4)
    3042:	00 1e       	mov.l	@(r0,r1),r0
    3044:	d4 42       	mov.l	3150 <_sddrv_129i+0x3150>,r4	! 64000
    3046:	d2 c2       	mov.l	3350 <_sddrv_129i+0x3350>,r2	! 70003e3c
    3048:	d4 42       	mov.l	3154 <_sddrv_129i+0x3154>,r4	! 67044eba
    304a:	d4 42       	mov.l	3154 <_sddrv_129i+0x3154>,r4	! 67044eba
    304c:	d2 c2       	mov.l	3358 <_sddrv_129i+0x3358>,r2	! 51cffffc
    304e:	29 89       	and	r8,r9
    3050:	40 30       	.word 0x4030
    3052:	10 19       	mov.l	r1,@(36,r0)
    3054:	4e ba       	.word 0x4eba
    3056:	0a bc       	mov.b	@(r0,r11),r10
    3058:	e4 48       	mov	#72,r4
    305a:	39 80       	cmp/eq	r8,r9
    305c:	40 2c       	shad	r2,r0
    305e:	10 19       	mov.l	r1,@(36,r0)
    3060:	4e ba       	.word 0x4eba
    3062:	0c f4       	mov.b	r15,@(r0,r12)
    3064:	48 40       	.word 0x4840
    3066:	39 80       	cmp/eq	r8,r9
    3068:	40 20       	shal	r0
    306a:	3a 00       	cmp/eq	r0,r10
    306c:	42 40       	.word 0x4240
    306e:	39 80       	cmp/eq	r8,r9
    3070:	40 22       	sts.l	pr,@-r0
    3072:	08 f4       	mov.b	r15,@(r0,r8)
    3074:	00 06       	mov.l	r0,@(r0,r0)
    3076:	40 00       	shll	r0
    3078:	30 2e       	addc	r2,r0
    307a:	18 4a       	mov.l	r4,@(40,r8)
    307c:	4e 75       	.word 0x4e75
    307e:	3a 2e       	addc	r2,r10
    3080:	18 0a       	mov.l	r0,@(40,r8)
    3082:	08 36       	mov.l	r3,@(r0,r8)
    3084:	00 07       	mul.l	r0,r0
    3086:	50 03       	mov.l	@(12,r0),r0
    3088:	67 00       	mov.b	@r0,r7
    308a:	00 5c       	mov.b	@(r0,r5),r0
    308c:	1c 36       	mov.l	r3,@(24,r12)
    308e:	50 0a       	mov.l	@(40,r0),r0
    3090:	67 1e       	exts.b	r1,r7
    3092:	bc 02       	bsr	289a <_sddrv_129i+0x289a>
    3094:	67 22       	mov.l	@r2,r7
    3096:	b4 36       	bsr	3906 <_sddrv_129i+0x3906>
    3098:	50 0b       	mov.l	@(44,r0),r0
    309a:	67 08       	swap.b	r0,r7
    309c:	b4 32       	bsr	3904 <_sddrv_129i+0x3904>
    309e:	50 0c       	mov.l	@(48,r0),r0
    30a0:	67 08       	swap.b	r0,r7
    30a2:	60 0c       	extu.b	r0,r0
    30a4:	1d b6       	mov.l	r11,@(24,r13)
    30a6:	50 0c       	mov.l	@(48,r0),r0
    30a8:	50 0b       	mov.l	@(44,r0),r0
    30aa:	1d bc       	mov.l	r11,@(48,r13)
    30ac:	00 00       	.word 0x0000
    30ae:	50 0c       	mov.l	@(48,r0),r0
    30b0:	08 f8       	.word 0x08f8
    30b2:	00 07       	mul.l	r0,r0
    30b4:	04 22       	stc	vbr,r4
    30b6:	4e 75       	.word 0x4e75
    30b8:	1c 36       	mov.l	r3,@(24,r12)
    30ba:	50 0b       	mov.l	@(44,r0),r0
    30bc:	67 24       	mov.b	@r2+,r7
    30be:	1d 86       	mov.l	r8,@(24,r13)
    30c0:	50 0a       	mov.l	@(40,r0),r0
    30c2:	14 06       	mov.l	r0,@(24,r4)
    30c4:	16 36       	mov.l	r3,@(24,r6)
    30c6:	50 0d       	mov.l	@(52,r0),r0
    30c8:	02 03       	bsrf	r2
    30ca:	00 7f       	mac.l	@r7+,@r0+
    30cc:	1d b6       	mov.l	r11,@(24,r13)
    30ce:	50 0c       	mov.l	@(48,r0),r0
    30d0:	50 0a       	mov.l	@(40,r0),r0
    30d2:	1d bc       	mov.l	r11,@(48,r13)
    30d4:	00 00       	.word 0x0000
    30d6:	50 0b       	mov.l	@(44,r0),r0
    30d8:	1d bc       	mov.l	r11,@(48,r13)
    30da:	00 00       	.word 0x0000
    30dc:	50 0c       	mov.l	@(48,r0),r0
    30de:	4e fa       	ldc	r14,dbr
    30e0:	f9 7c       	fmov	fr7,fr9
    30e2:	1d 86       	mov.l	r8,@(24,r13)
    30e4:	50 0a       	mov.l	@(40,r0),r0
    30e6:	41 ee       	ldc	r1,r6_bank
    30e8:	18 c0       	mov.l	r12,@(0,r8)
    30ea:	49 ee       	ldc	r9,r6_bank
    30ec:	10 00       	mov.l	r0,@(0,r0)
    30ee:	7e 20       	add	#32,r14
    30f0:	9e 6e       	mov.w	31d0 <_sddrv_129i+0x31d0>,r14	! 2
    30f2:	18 2a       	mov.l	r2,@(40,r8)
    30f4:	66 04       	mov.b	@r0+,r6
    30f6:	4e fa       	ldc	r14,dbr
    30f8:	e5 f0       	mov	#-16,r5
    30fa:	53 47       	mov.l	@(28,r4),r3
    30fc:	30 2e       	addc	r2,r0
    30fe:	18 22       	mov.l	r2,@(8,r8)
    3100:	02 40       	.word 0x0240
    3102:	00 3e       	mov.l	@(r0,r3),r0
    3104:	38 30       	cmp/eq	r3,r8
    3106:	00 00       	.word 0x0000
    3108:	02 44       	mov.b	r4,@(r0,r2)
    310a:	07 c0       	.word 0x07c0
    310c:	1c 34       	mov.l	r3,@(16,r12)
    310e:	40 34       	.word 0x4034
    3110:	6b 00       	mov.b	@r0,r11
    3112:	00 8a       	.word 0x008a
    3114:	b2 34       	bsr	3580 <_sddrv_129i+0x3580>
    3116:	40 01       	shlr	r0
    3118:	66 00       	mov.b	@r0,r6
    311a:	00 82       	stc	r0_bank,r0
    311c:	b4 34       	bsr	3988 <_sddrv_129i+0x3988>
    311e:	40 02       	sts.l	mach,@-r0
    3120:	66 00       	mov.b	@r0,r6
    3122:	00 7a       	.word 0x007a
    3124:	3c 34       	div1	r3,r12
    3126:	40 06       	lds.l	@r0+,mach
    3128:	bc 6e       	bsr	2a08 <_sddrv_129i+0x2a08>
    312a:	18 00       	mov.l	r0,@(0,r8)
    312c:	66 00       	mov.b	@r0,r6
    312e:	00 6e       	mov.l	@(r0,r6),r0
    3130:	08 b4       	mov.b	r11,@(r0,r8)
    3132:	00 03       	bsrf	r0
    3134:	40 05       	rotr	r0
    3136:	3c 2e       	addc	r2,r12
    3138:	18 0a       	mov.l	r0,@(40,r8)
    313a:	08 36       	mov.l	r3,@(r0,r8)
    313c:	00 06       	mov.l	r0,@(r0,r0)
    313e:	60 03       	mov	r0,r0
    3140:	66 00       	mov.b	@r0,r6
    3142:	00 5a       	sts	fpul,r0
    3144:	08 b4       	mov.b	r11,@(r0,r8)
    3146:	00 01       	.word 0x0001
    3148:	40 05       	rotr	r0
    314a:	52 6e       	mov.l	@(56,r6),r2
    314c:	18 2a       	mov.l	r2,@(40,r8)
    314e:	08 34       	mov.b	r3,@(r0,r8)
    3150:	00 06       	mov.l	r0,@(r0,r0)
    3152:	40 00       	shll	r0
    3154:	67 04       	mov.b	@r0+,r7
    3156:	4e ba       	.word 0x4eba
    3158:	00 ba       	.word 0x00ba
    315a:	e2 4c       	mov	#76,r2
    315c:	1a 35       	mov.l	r3,@(20,r10)
    315e:	40 00       	shll	r0
    3160:	02 05       	mov.w	r0,@(r0,r2)
    3162:	00 07       	mul.l	r0,r0
    3164:	00 05       	mov.w	r0,@(r0,r0)
    3166:	00 10       	.word 0x0010
    3168:	1b 85       	mov.l	r8,@(20,r11)
    316a:	40 00       	shll	r0
    316c:	d8 44       	mov.l	3280 <_sddrv_129i+0x3280>,r8	! 7c1f3d7c
    316e:	48 47       	ldc.l	@r8+,spc
    3170:	3a 2e       	addc	r2,r10
    3172:	18 22       	mov.l	r2,@(8,r8)
    3174:	02 45       	mov.w	r4,@(r0,r2)
    3176:	00 3e       	mov.l	@(r0,r3),r0
    3178:	3c 00       	cmp/eq	r0,r12
    317a:	3e 06       	cmp/hi	r0,r14
    317c:	ba 46       	bsr	260c <_sddrv_129i+0x260c>
    317e:	67 16       	mov.l	@r1+,r7
    3180:	38 30       	cmp/eq	r3,r8
    3182:	70 00       	add	#0,r0
    3184:	55 46       	mov.l	@(24,r4),r5
    3186:	02 46       	mov.l	r4,@(r0,r2)
    3188:	00 3e       	mov.l	@(r0,r3),r0
    318a:	31 b0       	cmp/eq	r11,r1
    318c:	60 00       	mov.b	@r0,r0
    318e:	70 00       	add	#0,r0
    3190:	31 84       	div1	r8,r1
    3192:	60 00       	mov.b	@r0,r0
    3194:	60 e4       	mov.b	@r14+,r0
    3196:	54 6e       	mov.l	@(56,r6),r4
    3198:	18 22       	mov.l	r2,@(8,r8)
    319a:	48 47       	ldc.l	@r8+,spc
    319c:	54 40       	mov.l	@(0,r4),r4
    319e:	51 cf       	mov.l	@(60,r12),r1
    31a0:	ff 60       	fadd	fr6,fr15
    31a2:	45 ee       	ldc	r5,r6_bank
    31a4:	1e 00       	mov.l	r0,@(0,r14)
    31a6:	42 46       	.word 0x4246
    31a8:	1c 2e       	mov.l	r2,@(56,r12)
    31aa:	18 30       	mov.l	r3,@(0,r8)
    31ac:	67 62       	mov.l	@r6,r7
    31ae:	22 6e       	mulu.w	r6,r2
    31b0:	18 2c       	mov.l	r2,@(48,r8)
    31b2:	53 46       	mov.l	@(24,r4),r3
    31b4:	02 46       	mov.l	r4,@(r0,r2)
    31b6:	00 1f       	mac.l	@r1+,@r0+
    31b8:	b2 11       	bsr	35de <_sddrv_129i+0x35de>
    31ba:	66 48       	swap.b	r4,r6
    31bc:	10 29       	mov.l	r2,@(36,r0)
    31be:	00 01       	.word 0x0001
    31c0:	0c 00       	.word 0x0c00
    31c2:	00 08       	clrt	
    31c4:	67 38       	swap.b	r3,r7
    31c6:	65 3c       	extu.b	r3,r5
    31c8:	15 7c       	mov.l	r7,@(48,r5)
    31ca:	00 06       	mov.l	r0,@(r0,r0)
    31cc:	00 06       	mov.l	r0,@(r0,r0)
    31ce:	38 2a       	subc	r2,r8
    31d0:	00 02       	stc	sr,r0
    31d2:	10 29       	mov.l	r2,@(36,r0)
    31d4:	00 0f       	mac.l	@r0+,@r0+
    31d6:	e1 48       	mov	#72,r1
    31d8:	06 40       	.word 0x0640
    31da:	80 00       	mov.b	r0,@(0,r0)
    31dc:	35 40       	cmp/eq	r4,r5
    31de:	00 0e       	mov.l	@(r0,r0),r0
    31e0:	b8 40       	bsr	2264 <_sddrv_129i+0x2264>
    31e2:	64 08       	swap.b	r0,r4
    31e4:	10 29       	mov.l	r2,@(36,r0)
    31e6:	00 0e       	mov.l	@(r0,r0),r0
    31e8:	6a 0a       	negc	r0,r10
    31ea:	60 06       	mov.l	@r0+,r0
    31ec:	10 29       	mov.l	r2,@(36,r0)
    31ee:	00 0e       	mov.l	@(r0,r0),r0
    31f0:	6b 02       	mov.l	@r0,r11
    31f2:	44 00       	shll	r4
    31f4:	4e ba       	.word 0x4eba
    31f6:	09 22       	stc	vbr,r9
    31f8:	35 40       	cmp/eq	r4,r5
    31fa:	00 04       	mov.b	r0,@(r0,r0)
    31fc:	60 06       	mov.l	@r0+,r0
    31fe:	35 7c       	add	r7,r5
    3200:	00 00       	.word 0x0000
    3202:	00 04       	mov.b	r0,@(r0,r0)
    3204:	43 e9       	.word 0x43e9
    3206:	00 18       	sett	
    3208:	45 ea       	.word 0x45ea
    320a:	00 10       	.word 0x0010
    320c:	51 ce       	mov.l	@(56,r12),r1
    320e:	ff aa       	fmov	fr10,@r15
    3210:	4e 75       	.word 0x4e75
    3212:	48 40       	.word 0x4840
    3214:	19 bc       	mov.l	r11,@(48,r9)
    3216:	00 06       	mov.l	r0,@(r0,r0)
    3218:	40 2e       	ldc	r0,vbr
    321a:	22 74       	mov.b	r7,@-r2
    321c:	40 30       	.word 0x4030
    321e:	50 49       	mov.l	@(36,r4),r0
    3220:	10 19       	mov.l	r1,@(36,r0)
    3222:	67 46       	mov.l	@r4+,r7
    3224:	4e ba       	.word 0x4eba
    3226:	09 12       	stc	gbr,r9
    3228:	3c 00       	cmp/eq	r0,r12
    322a:	48 46       	.word 0x4846
    322c:	42 46       	.word 0x4246
    322e:	e8 86       	mov	#-122,r8
    3230:	10 11       	mov.l	r1,@(4,r0)
    3232:	4e ba       	.word 0x4eba
    3234:	0b 22       	stc	vbr,r11
    3236:	3a 00       	cmp/eq	r0,r10
    3238:	48 45       	.word 0x4845
    323a:	42 45       	.word 0x4245
    323c:	29 85       	mov.w	r8,@-r9
    323e:	40 28       	shll16	r0
    3240:	06 85       	mov.w	r8,@(r0,r6)
    3242:	80 00       	mov.b	r0,@(0,r0)
    3244:	00 00       	.word 0x0000
    3246:	26 34       	mov.b	r3,@-r6
    3248:	40 20       	shal	r0
    324a:	06 83       	pref	@r6
    324c:	80 00       	mov.b	r0,@(0,r0)
    324e:	00 00       	.word 0x0000
    3250:	ba 83       	bsr	275a <_sddrv_129i+0x275a>
    3252:	67 16       	mov.l	@r1+,r7
    3254:	64 06       	mov.l	@r0+,r4
    3256:	2c 06       	mov.l	r0,@-r12
    3258:	6b 08       	swap.b	r0,r11
    325a:	60 04       	mov.b	@r0+,r0
    325c:	2c 06       	mov.l	r0,@-r12
    325e:	6a 02       	mov.l	@r0,r10
    3260:	44 86       	.word 0x4486
    3262:	29 86       	mov.l	r8,@-r9
    3264:	40 24       	rotcl	r0
    3266:	48 40       	.word 0x4840
    3268:	4e 75       	.word 0x4e75
    326a:	52 34       	mov.l	@(16,r3),r2
    326c:	40 2e       	ldc	r0,vbr
    326e:	48 40       	.word 0x4840
    3270:	4e 75       	.word 0x4e75
    3272:	78 07       	add	#7,r8
    3274:	3d 7c       	add	r7,r13
    3276:	00 00       	.word 0x0000
    3278:	18 00       	mov.l	r0,@(0,r8)
    327a:	3d 7c       	add	r7,r13
    327c:	00 00       	.word 0x0000
    327e:	18 0a       	mov.l	r0,@(40,r8)
    3280:	7c 1f       	add	#31,r12
    3282:	3d 7c       	add	r7,r13
    3284:	00 00       	.word 0x0000
    3286:	18 02       	mov.l	r0,@(8,r8)
    3288:	48 e7       	ldc.l	@r8+,r6_bank
    328a:	5a 00       	mov.l	@(0,r0),r10
    328c:	70 00       	add	#0,r0
    328e:	32 2e       	addc	r2,r2
    3290:	18 02       	mov.l	r0,@(8,r8)
    3292:	4e ba       	.word 0x4eba
    3294:	e1 ce       	mov	#-50,r1
    3296:	30 01       	.word 0x3001
    3298:	e9 48       	mov	#72,r9
    329a:	d0 6e       	mov.l	3454 <_sddrv_129i+0x3454>,r0	! 82838485
    329c:	18 00       	mov.l	r0,@(0,r8)
    329e:	2d 82       	mov.l	r8,@r13
    32a0:	00 04       	mov.b	r0,@(r0,r0)
    32a2:	1d bc       	mov.l	r11,@(48,r13)
    32a4:	00 64       	mov.b	r6,@(r0,r0)
    32a6:	00 02       	stc	sr,r0
    32a8:	74 00       	add	#0,r4
    32aa:	32 2e       	addc	r2,r2
    32ac:	18 02       	mov.l	r0,@(8,r8)
    32ae:	4c df       	mac.w	@r13+,@r12+
    32b0:	00 5a       	sts	fpul,r0
    32b2:	06 6e       	mov.l	@(r0,r6),r6
    32b4:	00 10       	.word 0x0010
    32b6:	18 0a       	mov.l	r0,@(40,r8)
    32b8:	52 6e       	mov.l	@(56,r6),r2
    32ba:	18 02       	mov.l	r0,@(8,r8)
    32bc:	51 ce       	mov.l	@(56,r12),r1
    32be:	ff ca       	fmov	fr12,@r15
    32c0:	06 6e       	mov.l	@(r0,r6),r6
    32c2:	02 00       	.word 0x0200
    32c4:	18 00       	mov.l	r0,@(0,r8)
    32c6:	51 cc       	mov.l	@(48,r12),r1
    32c8:	ff b8       	fmov	@r11,fr15
    32ca:	3d 7c       	add	r7,r13
    32cc:	00 00       	.word 0x0000
    32ce:	18 00       	mov.l	r0,@(0,r8)
    32d0:	4e 75       	.word 0x4e75
    32d2:	1b 7c       	mov.l	r7,@(48,r11)
    32d4:	00 02       	stc	sr,r0
    32d6:	04 00       	.word 0x0400
    32d8:	4e ba       	.word 0x4eba
    32da:	00 e0       	.word 0x00e0
    32dc:	4e ba       	.word 0x4eba
    32de:	00 e6       	mov.l	r14,@(r0,r0)
    32e0:	4e ba       	.word 0x4eba
    32e2:	00 ea       	.word 0x00ea
    32e4:	4e ba       	.word 0x4eba
    32e6:	00 ee       	mov.l	@(r0,r14),r0
    32e8:	4e ba       	.word 0x4eba
    32ea:	00 64       	mov.b	r6,@(r0,r0)
    32ec:	4e ba       	.word 0x4eba
    32ee:	00 44       	mov.b	r4,@(r0,r0)
    32f0:	4e ba       	.word 0x4eba
    32f2:	00 4a       	.word 0x004a
    32f4:	1b 7c       	mov.l	r7,@(48,r11)
    32f6:	00 0f       	mac.l	@r0+,@r0+
    32f8:	04 01       	.word 0x0401
    32fa:	41 fa       	ldc	r1,dbr
    32fc:	00 22       	stc	vbr,r0
    32fe:	30 18       	sub	r1,r0
    3300:	da c0       	mov.l	3604 <_sddrv_129i+0x3604>,r10	! 76767777
    3302:	3e 18       	sub	r1,r14
    3304:	1a d8       	mov.l	r13,@(32,r10)
    3306:	51 cf       	mov.l	@(60,r12),r1
    3308:	ff fc       	fmov	fr15,fr15
    330a:	4b f9       	.word 0x4bf9
    330c:	00 10       	.word 0x0010
    330e:	00 00       	.word 0x0000
    3310:	3b 7c       	add	r7,r11
    3312:	00 a7       	mul.l	r10,r0
    3314:	04 18       	.word 0x0418
    3316:	3b 7c       	add	r7,r11
    3318:	00 40       	.word 0x0040
    331a:	04 22       	stc	vbr,r4
    331c:	4e 75       	.word 0x4e75
    331e:	04 1a       	sts	macl,r4
    3320:	00 0f       	mac.l	@r0+,@r0+
    3322:	01 d4       	mov.b	r13,@(r0,r1)
    3324:	00 00       	.word 0x0000
    3326:	00 80       	.word 0x0080
    3328:	00 00       	.word 0x0000
    332a:	00 c0       	.word 0x00c0
    332c:	00 00       	.word 0x0000
    332e:	00 80       	.word 0x0080
    3330:	00 00       	.word 0x0000
    3332:	41 ed       	shld	r14,r1
    3334:	00 0d       	mov.w	@(r0,r0),r0
    3336:	10 3c       	mov.l	r3,@(48,r0)
    3338:	00 ff       	mac.l	@r15+,@r0+
    333a:	60 04       	mov.b	@r0+,r0
    333c:	20 4d       	xtrct	r4,r0
    333e:	70 10       	add	#16,r0
    3340:	7e 1f       	add	#31,r14
    3342:	10 80       	mov.l	r8,@(0,r0)
    3344:	41 e8       	.word 0x41e8
    3346:	00 20       	.word 0x0020
    3348:	51 cf       	mov.l	@(60,r12),r1
    334a:	ff f8       	fmov	@r15,fr15
    334c:	4e 75       	.word 0x4e75
    334e:	20 4d       	xtrct	r4,r0
    3350:	70 00       	add	#0,r0
    3352:	3e 3c       	add	r3,r14
    3354:	00 ff       	mac.l	@r15+,@r0+
    3356:	20 c0       	mov.b	r12,@r0
    3358:	51 cf       	mov.l	@(60,r12),r1
    335a:	ff fc       	fmov	fr15,fr15
    335c:	4e 75       	.word 0x4e75
    335e:	70 00       	add	#0,r0
    3360:	41 f8       	.word 0x41f8
    3362:	07 80       	.word 0x0780
    3364:	20 c0       	mov.b	r12,@r0
    3366:	20 c0       	mov.b	r12,@r0
    3368:	20 c0       	mov.b	r12,@r0
    336a:	20 c0       	mov.b	r12,@r0
    336c:	4e 75       	.word 0x4e75
    336e:	43 ed       	shld	r14,r3
    3370:	00 0b       	rts	
    3372:	7e 1f       	add	#31,r14
    3374:	00 11       	.word 0x0011
    3376:	00 1f       	mac.l	@r1+,@r0+
    3378:	43 e9       	.word 0x43e9
    337a:	00 20       	.word 0x0020
    337c:	51 cf       	mov.l	@(60,r12),r1
    337e:	ff f6       	fmov	@(r0,r15),fr15
    3380:	4e 75       	.word 0x4e75
    3382:	43 ed       	shld	r14,r3
    3384:	00 15       	mov.w	r1,@(r0,r0)
    3386:	7e 0f       	add	#15,r14
    3388:	70 00       	add	#0,r0
    338a:	12 80       	mov.l	r8,@(0,r2)
    338c:	43 e9       	.word 0x43e9
    338e:	00 20       	.word 0x0020
    3390:	51 cf       	mov.l	@(60,r12),r1
    3392:	ff f8       	fmov	@r15,fr15
    3394:	4e 75       	.word 0x4e75
    3396:	43 ed       	shld	r14,r3
    3398:	00 17       	mul.l	r1,r0
    339a:	7e 0f       	add	#15,r14
    339c:	70 00       	add	#0,r0
    339e:	12 80       	mov.l	r8,@(0,r2)
    33a0:	43 e9       	.word 0x43e9
    33a2:	00 20       	.word 0x0020
    33a4:	51 cf       	mov.l	@(60,r12),r1
    33a6:	ff f8       	fmov	@r15,fr15
    33a8:	2d 40       	mov.b	r4,@r13
    33aa:	18 7e       	mov.l	r7,@(56,r8)
    33ac:	2d 40       	mov.b	r4,@r13
    33ae:	18 82       	mov.l	r8,@(8,r8)
    33b0:	2d 40       	mov.b	r4,@r13
    33b2:	18 86       	mov.l	r8,@(24,r8)
    33b4:	2d 40       	mov.b	r4,@r13
    33b6:	18 8a       	mov.l	r8,@(40,r8)
    33b8:	4e 75       	.word 0x4e75
    33ba:	43 ed       	shld	r14,r3
    33bc:	08 00       	.word 0x0800
    33be:	3e 3c       	add	r3,r14
    33c0:	00 ff       	mac.l	@r15+,@r0+
    33c2:	60 16       	mov.l	@r1+,r0
    33c4:	43 ed       	shld	r14,r3
    33c6:	07 80       	.word 0x0780
    33c8:	7e 1f       	add	#31,r14
    33ca:	60 0e       	exts.b	r0,r0
    33cc:	43 ed       	shld	r14,r3
    33ce:	07 00       	.word 0x0700
    33d0:	7e 1f       	add	#31,r14
    33d2:	60 06       	mov.l	@r0+,r0
    33d4:	43 ed       	shld	r14,r3
    33d6:	0c 00       	.word 0x0c00
    33d8:	7e 7f       	add	#127,r14
    33da:	70 00       	add	#0,r0
    33dc:	22 c0       	mov.b	r12,@r2
    33de:	51 cf       	mov.l	@(60,r12),r1
    33e0:	ff fc       	fmov	fr15,fr15
    33e2:	4e 75       	.word 0x4e75
    33e4:	7a 00       	add	#0,r10
    33e6:	22 76       	mov.l	r7,@-r2
    33e8:	50 04       	mov.l	@(16,r0),r0
    33ea:	70 00       	add	#0,r0
    33ec:	30 29       	.word 0x3029
    33ee:	00 08       	clrt	
    33f0:	d3 c0       	mov.l	36f4 <_sddrv_129i+0x36f4>,r3	! f8f9f9fa
    33f2:	58 89       	mov.l	@(36,r8),r8
    33f4:	72 40       	add	#64,r2
    33f6:	49 ee       	ldc	r9,r6_bank
    33f8:	10 08       	mov.l	r0,@(32,r0)
    33fa:	7e 1f       	add	#31,r14
    33fc:	28 89       	and	r8,r8
    33fe:	d9 c1       	mov.l	3704 <_sddrv_129i+0x3704>,r9	! 2020303
    3400:	51 cf       	mov.l	@(60,r12),r1
    3402:	ff fa       	fmov	fr15,@r15
    3404:	4e 75       	.word 0x4e75
    3406:	2e 3c       	cmp/str	r3,r14
    3408:	00 00       	.word 0x0000
    340a:	0b f0       	.word 0x0bf0
    340c:	70 00       	add	#0,r0
    340e:	20 4e       	mulu.w	r4,r0
    3410:	20 c0       	mov.b	r12,@r0
    3412:	51 cf       	mov.l	@(60,r12),r1
    3414:	ff fc       	fmov	fr15,fr15
    3416:	74 00       	add	#0,r4
    3418:	43 ee       	ldc	r3,r6_bank
    341a:	18 c0       	mov.l	r12,@(0,r8)
    341c:	7e 03       	add	#3,r14
    341e:	7c 07       	add	#7,r12
    3420:	02 42       	stc	spc,r2
    3422:	00 3e       	mov.l	@(r0,r3),r0
    3424:	33 80       	cmp/eq	r8,r3
    3426:	20 00       	mov.b	r0,@r0
    3428:	06 40       	.word 0x0640
    342a:	00 40       	.word 0x0040
    342c:	50 42       	mov.l	@(8,r4),r0
    342e:	51 ce       	mov.l	@(56,r12),r1
    3430:	ff f0       	fadd	fr15,fr15
    3432:	04 42       	stc	spc,r4
    3434:	00 3e       	mov.l	@(r0,r3),r0
    3436:	51 cf       	mov.l	@(60,r12),r1
    3438:	ff e6       	fmov	@(r0,r14),fr15
    343a:	3d 7c       	add	r7,r13
    343c:	00 20       	.word 0x0020
    343e:	18 2a       	mov.l	r2,@(40,r8)
    3440:	47 ee       	ldc	r7,r6_bank
    3442:	18 90       	mov.l	r9,@(0,r8)
    3444:	70 00       	add	#0,r0
    3446:	7e 0f       	add	#15,r14
    3448:	16 c0       	mov.l	r12,@(0,r6)
    344a:	52 00       	mov.l	@(0,r0),r2
    344c:	51 cf       	mov.l	@(60,r12),r1
    344e:	ff fa       	fmov	fr15,@r15
    3450:	4e 75       	.word 0x4e75
    3452:	80 81       	mov.b	r0,@(1,r8)
    3454:	82 83       	.word 0x8283
    3456:	84 85       	mov.b	@(5,r8),r0
    3458:	86 87       	.word 0x8687
    345a:	88 89       	cmp/eq	#-119,r0
    345c:	8a 8b       	.word 0x8a8b
    345e:	90 91       	mov.w	3584 <_sddrv_129i+0x3584>,r0	! 3636
    3460:	92 93       	mov.w	358a <_sddrv_129i+0x358a>,r2	! 3839
    3462:	94 95       	mov.w	3590 <_sddrv_129i+0x3590>,r4	! 3b3c
    3464:	96 97       	mov.w	3596 <_sddrv_129i+0x3596>,r6	! 3e3f
    3466:	98 99       	mov.w	359c <_sddrv_129i+0x359c>,r8	! 4142
    3468:	9a 9b       	mov.w	35a2 <_sddrv_129i+0x35a2>,r10	! 4445
    346a:	a0 a1       	bra	35b0 <_sddrv_129i+0x35b0>
    346c:	a2 a3       	bra	39b6 <_sddrv_129i+0x39b6>
    346e:	a4 a5       	bra	3dbc <_sddrv_129i+0x3dbc>
    3470:	a6 a7       	bra	41c2 <_sddrv_129i+0x41c2>
    3472:	a8 a9       	bra	25c8 <_sddrv_129i+0x25c8>
    3474:	aa ab       	bra	29ce <_sddrv_129i+0x29ce>
    3476:	b0 b1       	bsr	35dc <_sddrv_129i+0x35dc>
    3478:	b2 b3       	bsr	39e2 <_sddrv_129i+0x39e2>
    347a:	b4 b5       	bsr	3de8 <_sddrv_129i+0x3de8>
    347c:	b6 b7       	bsr	41ee <_sddrv_129i+0x41ee>
    347e:	b8 b9       	bsr	25f4 <_sddrv_129i+0x25f4>
    3480:	ba bb       	bsr	29fa <_sddrv_129i+0x29fa>
    3482:	c0 c1       	mov.b	r0,@(193,gbr)
    3484:	c2 c3       	mov.l	r0,@(780,gbr)
    3486:	c4 c5       	mov.b	@(197,gbr),r0
    3488:	c6 c7       	mov.l	@(796,gbr),r0
    348a:	c8 c9       	tst	#-55,r0
    348c:	ca cb       	xor	#-53,r0
    348e:	d0 d1       	mov.l	37d4 <_sddrv_129i+0x37d4>,r0	! 80808182
    3490:	d2 d3       	mov.l	37e0 <_sddrv_129i+0x37e0>,r2	! 87888989
    3492:	d4 d5       	mov.l	37e8 <_sddrv_129i+0x37e8>,r4	! 8c8d8e8e
    3494:	d6 d7       	mov.l	37f4 <_sddrv_129i+0x37f4>,r6	! 94959596
    3496:	d8 d9       	mov.l	37fc <_sddrv_129i+0x37fc>,r8	! 999a9b9b
    3498:	da db       	mov.l	3808 <_sddrv_129i+0x3808>,r10	! a1a2a2a3
    349a:	e0 e1       	mov	#-31,r0
    349c:	e2 e3       	mov	#-29,r2
    349e:	e4 e5       	mov	#-27,r4
    34a0:	e6 e7       	mov	#-25,r6
    34a2:	e8 e9       	mov	#-23,r8
    34a4:	ea eb       	mov	#-21,r10
    34a6:	f0 f1       	fsub	fr15,fr0
    34a8:	f2 f3       	fdiv	fr15,fr2
    34aa:	f4 f5       	fcmp/gt	fr15,fr4
    34ac:	f6 f7       	fmov	fr15,@(r0,r6)
    34ae:	f8 f9       	fmov	@r15+,fr8
    34b0:	fa fb       	fmov	fr15,@-r10
    34b2:	00 01       	.word 0x0001
    34b4:	02 03       	bsrf	r2
    34b6:	04 05       	mov.w	r0,@(r0,r4)
    34b8:	06 07       	mul.l	r0,r6
    34ba:	08 09       	.word 0x0809
    34bc:	0a 0b       	.word 0x0a0b
    34be:	10 11       	mov.l	r1,@(4,r0)
    34c0:	12 13       	mov.l	r1,@(12,r2)
    34c2:	14 15       	mov.l	r1,@(20,r4)
    34c4:	16 17       	mov.l	r1,@(28,r6)
    34c6:	18 19       	mov.l	r1,@(36,r8)
    34c8:	1a 1b       	mov.l	r1,@(44,r10)
    34ca:	20 21       	mov.w	r2,@r0
    34cc:	22 23       	.word 0x2223
    34ce:	24 25       	mov.w	r2,@-r4
    34d0:	26 27       	div0s	r2,r6
    34d2:	28 29       	and	r2,r8
    34d4:	2a 2b       	or	r2,r10
    34d6:	30 31       	.word 0x3031
    34d8:	32 33       	cmp/ge	r3,r2
    34da:	34 35       	dmulu.l	r3,r4
    34dc:	36 37       	cmp/gt	r3,r6
    34de:	38 39       	.word 0x3839
    34e0:	3a 3b       	subv	r3,r10
    34e2:	40 41       	.word 0x4041
    34e4:	42 43       	stc.l	spc,@-r2
    34e6:	44 45       	.word 0x4445
    34e8:	46 47       	ldc.l	@r6+,spc
    34ea:	48 49       	.word 0x4849
    34ec:	4a 4b       	.word 0x4a4b
    34ee:	50 51       	mov.l	@(4,r5),r0
    34f0:	52 53       	mov.l	@(12,r5),r2
    34f2:	54 55       	mov.l	@(20,r5),r4
    34f4:	56 57       	mov.l	@(28,r5),r6
    34f6:	58 59       	mov.l	@(36,r5),r8
    34f8:	5a 5b       	mov.l	@(44,r5),r10
    34fa:	60 61       	mov.w	@r6,r0
    34fc:	62 63       	mov	r6,r2
    34fe:	64 65       	mov.w	@r6+,r4
    3500:	66 67       	not	r6,r6
    3502:	68 69       	swap.w	r6,r8
    3504:	6a 6b       	neg	r6,r10
    3506:	70 71       	add	#113,r0
    3508:	72 73       	add	#115,r2
    350a:	74 75       	add	#117,r4
    350c:	76 77       	add	#119,r6
    350e:	78 79       	add	#121,r8
    3510:	7a 7b       	add	#123,r10
    3512:	00 00       	.word 0x0000
    3514:	00 01       	.word 0x0001
    3516:	01 02       	stc	sr,r1
    3518:	02 03       	bsrf	r2
    351a:	03 04       	mov.b	r0,@(r0,r3)
    351c:	04 05       	mov.w	r0,@(r0,r4)
    351e:	05 06       	mov.l	r0,@(r0,r5)
    3520:	06 06       	mov.l	r0,@(r0,r6)
    3522:	07 07       	mul.l	r0,r7
    3524:	08 08       	.word 0x0808
    3526:	09 09       	.word 0x0909
    3528:	0a 0a       	sts	mach,r10
    352a:	0b 0b       	.word 0x0b0b
    352c:	0c 0c       	mov.b	@(r0,r0),r12
    352e:	0d 0d       	mov.w	@(r0,r0),r13
    3530:	0d 0e       	mov.l	@(r0,r0),r13
    3532:	0e 0f       	mac.l	@r0+,@r14+
    3534:	0f 10       	.word 0x0f10
    3536:	10 11       	mov.l	r1,@(4,r0)
    3538:	11 12       	mov.l	r1,@(8,r1)
    353a:	12 13       	mov.l	r1,@(12,r2)
    353c:	13 14       	mov.l	r1,@(16,r3)
    353e:	14 15       	mov.l	r1,@(20,r4)
    3540:	15 15       	mov.l	r1,@(20,r5)
    3542:	16 16       	mov.l	r1,@(24,r6)
    3544:	17 17       	mov.l	r1,@(28,r7)
    3546:	18 18       	mov.l	r1,@(32,r8)
    3548:	19 19       	mov.l	r1,@(36,r9)
    354a:	1a 1a       	mov.l	r1,@(40,r10)
    354c:	1b 1b       	mov.l	r1,@(44,r11)
    354e:	1c 1c       	mov.l	r1,@(48,r12)
    3550:	1d 1d       	mov.l	r1,@(52,r13)
    3552:	1e 1e       	mov.l	r1,@(56,r14)
    3554:	1e 1f       	mov.l	r1,@(60,r14)
    3556:	1f 20       	mov.l	r2,@(0,r15)
    3558:	20 21       	mov.w	r2,@r0
    355a:	21 22       	mov.l	r2,@r1
    355c:	22 23       	.word 0x2223
    355e:	23 24       	mov.b	r2,@-r3
    3560:	24 25       	mov.w	r2,@-r4
    3562:	25 26       	mov.l	r2,@-r5
    3564:	26 27       	div0s	r2,r6
    3566:	27 28       	tst	r2,r7
    3568:	28 29       	and	r2,r8
    356a:	29 29       	and	r2,r9
    356c:	2a 2a       	xor	r2,r10
    356e:	2b 2b       	or	r2,r11
    3570:	2c 2c       	cmp/str	r2,r12
    3572:	2d 2d       	xtrct	r2,r13
    3574:	2e 2e       	mulu.w	r2,r14
    3576:	2f 2f       	muls.w	r2,r15
    3578:	30 30       	cmp/eq	r3,r0
    357a:	31 31       	.word 0x3131
    357c:	32 32       	cmp/hs	r3,r2
    357e:	33 33       	cmp/ge	r3,r3
    3580:	34 34       	div1	r3,r4
    3582:	35 35       	dmulu.l	r3,r5
    3584:	36 36       	cmp/hi	r3,r6
    3586:	37 37       	cmp/gt	r3,r7
    3588:	38 38       	sub	r3,r8
    358a:	38 39       	.word 0x3839
    358c:	39 3a       	subc	r3,r9
    358e:	3a 3b       	subv	r3,r10
    3590:	3b 3c       	add	r3,r11
    3592:	3c 3d       	dmuls.l	r3,r12
    3594:	3d 3e       	addc	r3,r13
    3596:	3e 3f       	addv	r3,r14
    3598:	3f 40       	cmp/eq	r4,r15
    359a:	40 41       	.word 0x4041
    359c:	41 42       	.word 0x4142
    359e:	42 43       	stc.l	spc,@-r2
    35a0:	43 44       	.word 0x4344
    35a2:	44 45       	.word 0x4445
    35a4:	45 46       	.word 0x4546
    35a6:	46 47       	ldc.l	@r6+,spc
    35a8:	47 48       	.word 0x4748
    35aa:	48 49       	.word 0x4849
    35ac:	49 4a       	.word 0x494a
    35ae:	4a 4b       	.word 0x4a4b
    35b0:	4b 4c       	shad	r4,r11
    35b2:	4c 4d       	shld	r4,r12
    35b4:	4d 4e       	ldc	r13,spc
    35b6:	4e 4f       	mac.w	@r4+,@r14+
    35b8:	4f 50       	.word 0x4f50
    35ba:	50 51       	mov.l	@(4,r5),r0
    35bc:	51 52       	mov.l	@(8,r5),r1
    35be:	52 53       	mov.l	@(12,r5),r2
    35c0:	53 54       	mov.l	@(16,r5),r3
    35c2:	54 55       	mov.l	@(20,r5),r4
    35c4:	55 56       	mov.l	@(24,r5),r5
    35c6:	56 57       	mov.l	@(28,r5),r6
    35c8:	57 58       	mov.l	@(32,r5),r7
    35ca:	58 59       	mov.l	@(36,r5),r8
    35cc:	59 5a       	mov.l	@(40,r5),r9
    35ce:	5a 5b       	mov.l	@(44,r5),r10
    35d0:	5b 5c       	mov.l	@(48,r5),r11
    35d2:	5c 5d       	mov.l	@(52,r5),r12
    35d4:	5d 5e       	mov.l	@(56,r5),r13
    35d6:	5e 5f       	mov.l	@(60,r5),r14
    35d8:	5f 60       	mov.l	@(0,r6),r15
    35da:	60 61       	mov.w	@r6,r0
    35dc:	61 62       	mov.l	@r6,r1
    35de:	62 63       	mov	r6,r2
    35e0:	63 64       	mov.b	@r6+,r3
    35e2:	64 65       	mov.w	@r6+,r4
    35e4:	65 66       	mov.l	@r6+,r5
    35e6:	66 67       	not	r6,r6
    35e8:	67 68       	swap.b	r6,r7
    35ea:	68 69       	swap.w	r6,r8
    35ec:	69 6a       	negc	r6,r9
    35ee:	6a 6b       	neg	r6,r10
    35f0:	6b 6c       	extu.b	r6,r11
    35f2:	6c 6d       	extu.w	r6,r12
    35f4:	6d 6e       	exts.b	r6,r13
    35f6:	6e 6f       	exts.w	r6,r14
    35f8:	6f 70       	mov.b	@r7,r15
    35fa:	71 71       	add	#113,r1
    35fc:	72 72       	add	#114,r2
    35fe:	73 73       	add	#115,r3
    3600:	74 74       	add	#116,r4
    3602:	75 75       	add	#117,r5
    3604:	76 76       	add	#118,r6
    3606:	77 77       	add	#119,r7
    3608:	78 78       	add	#120,r8
    360a:	79 79       	add	#121,r9
    360c:	7a 7a       	add	#122,r10
    360e:	7b 7b       	add	#123,r11
    3610:	7c 7c       	add	#124,r12
    3612:	7d 7d       	add	#125,r13
    3614:	7e 7e       	add	#126,r14
    3616:	7f 7f       	add	#127,r15
    3618:	80 81       	mov.b	r0,@(1,r8)
    361a:	81 82       	mov.w	r0,@(4,r8)
    361c:	82 83       	.word 0x8283
    361e:	83 84       	.word 0x8384
    3620:	84 85       	mov.b	@(5,r8),r0
    3622:	85 86       	mov.w	@(12,r8),r0
    3624:	86 87       	.word 0x8687
    3626:	87 88       	.word 0x8788
    3628:	88 89       	cmp/eq	#-119,r0
    362a:	89 8a       	bt	3542 <_sddrv_129i+0x3542>
    362c:	8a 8b       	.word 0x8a8b
    362e:	8c 8c       	.word 0x8c8c
    3630:	8d 8d       	bt.s	354e <_sddrv_129i+0x354e>
    3632:	8e 8e       	.word 0x8e8e
    3634:	8f 8f       	bf.s	3556 <_sddrv_129i+0x3556>
    3636:	90 90       	mov.w	375a <_sddrv_129i+0x375a>,r0	! 3435
    3638:	91 91       	mov.w	375e <_sddrv_129i+0x375e>,r1	! 3737
    363a:	92 92       	mov.w	3762 <_sddrv_129i+0x3762>,r2	! 393a
    363c:	93 93       	mov.w	3766 <_sddrv_129i+0x3766>,r3	! 3c3c
    363e:	94 94       	mov.w	376a <_sddrv_129i+0x376a>,r4	! 3e3f
    3640:	95 96       	mov.w	3770 <_sddrv_129i+0x3770>,r5	! 4242
    3642:	96 97       	mov.w	3774 <_sddrv_129i+0x3774>,r6	! 4445
    3644:	97 98       	mov.w	3778 <_sddrv_129i+0x3778>,r7	! 4647
    3646:	98 99       	mov.w	377c <_sddrv_129i+0x377c>,r8	! 4949
    3648:	99 9a       	mov.w	3780 <_sddrv_129i+0x3780>,r9	! 4b4c
    364a:	9a 9b       	mov.w	3784 <_sddrv_129i+0x3784>,r10	! 4e4e
    364c:	9b 9c       	mov.w	3788 <_sddrv_129i+0x3788>,r11	! 5051
    364e:	9c 9d       	mov.w	378c <_sddrv_129i+0x378c>,r12	! 5353
    3650:	9e 9e       	mov.w	3790 <_sddrv_129i+0x3790>,r14	! 5556
    3652:	9f 9f       	mov.w	3794 <_sddrv_129i+0x3794>,r15	! 5858
    3654:	a0 a0       	bra	3798 <_sddrv_129i+0x3798>
    3656:	a1 a1       	bra	399c <_sddrv_129i+0x399c>
    3658:	a2 a2       	bra	3ba0 <_sddrv_129i+0x3ba0>
    365a:	a3 a3       	bra	3da4 <_sddrv_129i+0x3da4>
    365c:	a4 a4       	bra	3fa8 <_sddrv_129i+0x3fa8>
    365e:	a5 a6       	bra	41ae <_sddrv_129i+0x41ae>
    3660:	a6 a7       	bra	43b2 <_sddrv_129i+0x43b2>
    3662:	a7 a8       	bra	45b6 <_sddrv_129i+0x45b6>
    3664:	a8 a9       	bra	27ba <_sddrv_129i+0x27ba>
    3666:	a9 aa       	bra	29be <_sddrv_129i+0x29be>
    3668:	aa ab       	bra	2bc2 <_sddrv_129i+0x2bc2>
    366a:	ab ac       	bra	2dc6 <_sddrv_129i+0x2dc6>
    366c:	ad ad       	bra	31ca <_sddrv_129i+0x31ca>
    366e:	ae ae       	bra	33ce <_sddrv_129i+0x33ce>
    3670:	af af       	bra	35d2 <_sddrv_129i+0x35d2>
    3672:	b0 b0       	bsr	37d6 <_sddrv_129i+0x37d6>
    3674:	b1 b1       	bsr	39da <_sddrv_129i+0x39da>
    3676:	b2 b3       	bsr	3be0 <_sddrv_129i+0x3be0>
    3678:	b3 b4       	bsr	3de4 <_sddrv_129i+0x3de4>
    367a:	b4 b5       	bsr	3fe8 <_sddrv_129i+0x3fe8>
    367c:	b5 b6       	bsr	41ec <_sddrv_129i+0x41ec>
    367e:	b6 b7       	bsr	43f0 <_sddrv_129i+0x43f0>
    3680:	b7 b8       	bsr	45f4 <_sddrv_129i+0x45f4>
    3682:	b8 b9       	bsr	27f8 <_sddrv_129i+0x27f8>
    3684:	ba ba       	bsr	2bfc <_sddrv_129i+0x2bfc>
    3686:	bb bb       	bsr	2e00 <_sddrv_129i+0x2e00>
    3688:	bc bc       	bsr	3004 <_sddrv_129i+0x3004>
    368a:	bd bd       	bsr	3208 <_sddrv_129i+0x3208>
    368c:	be bf       	bsr	340e <_sddrv_129i+0x340e>
    368e:	bf c0       	bsr	3612 <_sddrv_129i+0x3612>
    3690:	c0 c1       	mov.b	r0,@(193,gbr)
    3692:	c1 c2       	mov.w	r0,@(388,gbr)
    3694:	c2 c3       	mov.l	r0,@(780,gbr)
    3696:	c3 c4       	trapa	#-60
    3698:	c5 c5       	mov.w	@(394,gbr),r0
    369a:	c6 c6       	mov.l	@(792,gbr),r0
    369c:	c7 c7       	mova	39bc <_sddrv_129i+0x39bc>,r0
    369e:	c8 c8       	tst	#-56,r0
    36a0:	c9 ca       	and	#-54,r0
    36a2:	ca cb       	xor	#-53,r0
    36a4:	cb cc       	or	#-52,r0
    36a6:	cc cd       	tst.b	#-51,@(r0,gbr)
    36a8:	cd ce       	and.b	#-50,@(r0,gbr)
    36aa:	cf cf       	or.b	#-49,@(r0,gbr)
    36ac:	d0 d0       	mov.l	39f0 <_sddrv_129i+0x39f0>,r0	! 4050607
    36ae:	d1 d1       	mov.l	39f4 <_sddrv_129i+0x39f4>,r1	! 808090a
    36b0:	d2 d2       	mov.l	39fc <_sddrv_129i+0x39fc>,r2	! e0f1010
    36b2:	d3 d4       	mov.l	3a04 <_sddrv_129i+0x3a04>,r3	! 15151617
    36b4:	d4 d5       	mov.l	3a0c <_sddrv_129i+0x3a0c>,r4	! 1b1c1d1e
    36b6:	d5 d6       	mov.l	3a10 <_sddrv_129i+0x3a10>,r5	! 1e1f2021
    36b8:	d6 d7       	mov.l	3a18 <_sddrv_129i+0x3a18>,r6	! 25262727
    36ba:	d7 d8       	mov.l	3a1c <_sddrv_129i+0x3a1c>,r7	! 28292a2b
    36bc:	d9 d9       	mov.l	3a24 <_sddrv_129i+0x3a24>,r9	! 2f303131
    36be:	da da       	mov.l	3a28 <_sddrv_129i+0x3a28>,r10	! 32333435
    36c0:	db db       	mov.l	3a30 <_sddrv_129i+0x3a30>,r11	! 393a3b3b
    36c2:	dc dc       	mov.l	3a34 <_sddrv_129i+0x3a34>,r12	! 3c3d3e3f
    36c4:	dd de       	mov.l	3a40 <_sddrv_129i+0x3a40>,r13	! 46474849
    36c6:	de df       	mov.l	3a44 <_sddrv_129i+0x3a44>,r14	! 4a4b4b4c
    36c8:	df e0       	mov.l	3a4c <_sddrv_129i+0x3a4c>,r15	! 50515253
    36ca:	e0 e1       	mov	#-31,r0
    36cc:	e2 e2       	mov	#-30,r2
    36ce:	e3 e3       	mov	#-29,r3
    36d0:	e4 e4       	mov	#-28,r4
    36d2:	e5 e5       	mov	#-27,r5
    36d4:	e6 e7       	mov	#-25,r6
    36d6:	e7 e8       	mov	#-24,r7
    36d8:	e8 e9       	mov	#-23,r8
    36da:	e9 ea       	mov	#-22,r9
    36dc:	eb eb       	mov	#-21,r11
    36de:	ec ec       	mov	#-20,r12
    36e0:	ed ed       	mov	#-19,r13
    36e2:	ee ef       	mov	#-17,r14
    36e4:	ef f0       	mov	#-16,r15
    36e6:	f0 f1       	fsub	fr15,fr0
    36e8:	f1 f2       	fmul	fr15,fr1
    36ea:	f3 f3       	fdiv	fr15,fr3
    36ec:	f4 f4       	fcmp/eq	fr15,fr4
    36ee:	f5 f5       	fcmp/gt	fr15,fr5
    36f0:	f6 f7       	fmov	fr15,@(r0,r6)
    36f2:	f7 f8       	fmov	@r15,fr7
    36f4:	f8 f9       	fmov	@r15+,fr8
    36f6:	f9 fa       	fmov	fr15,@r9
    36f8:	fb fb       	fmov	fr15,@-r11
    36fa:	fc fc       	fmov	fr15,fr12
    36fc:	fd fd       	ftrv	xmtrx,fv12
    36fe:	fe ff       	.word 0xfeff
    3700:	ff 00       	fadd	fr0,fr15
    3702:	00 01       	.word 0x0001
    3704:	02 02       	stc	sr,r2
    3706:	03 03       	bsrf	r3
    3708:	04 04       	mov.b	r0,@(r0,r4)
    370a:	05 06       	mov.l	r0,@(r0,r5)
    370c:	06 07       	mul.l	r0,r6
    370e:	07 08       	.word 0x0708
    3710:	08 09       	.word 0x0809
    3712:	0a 0a       	sts	mach,r10
    3714:	0b 0b       	.word 0x0b0b
    3716:	0c 0d       	mov.w	@(r0,r0),r12
    3718:	0d 0e       	mov.l	@(r0,r0),r13
    371a:	0e 0f       	mac.l	@r0+,@r14+
    371c:	0f 10       	.word 0x0f10
    371e:	11 11       	mov.l	r1,@(4,r1)
    3720:	12 12       	mov.l	r1,@(8,r2)
    3722:	13 14       	mov.l	r1,@(16,r3)
    3724:	14 15       	mov.l	r1,@(20,r4)
    3726:	15 16       	mov.l	r1,@(24,r5)
    3728:	17 17       	mov.l	r1,@(28,r7)
    372a:	18 18       	mov.l	r1,@(32,r8)
    372c:	19 19       	mov.l	r1,@(36,r9)
    372e:	1a 1b       	mov.l	r1,@(44,r10)
    3730:	1b 1c       	mov.l	r1,@(48,r11)
    3732:	1c 1d       	mov.l	r1,@(52,r12)
    3734:	1e 1e       	mov.l	r1,@(56,r14)
    3736:	1f 1f       	mov.l	r1,@(60,r15)
    3738:	20 21       	mov.w	r2,@r0
    373a:	21 22       	mov.l	r2,@r1
    373c:	22 23       	.word 0x2223
    373e:	24 24       	mov.b	r2,@-r4
    3740:	25 25       	mov.w	r2,@-r5
    3742:	26 27       	div0s	r2,r6
    3744:	27 28       	tst	r2,r7
    3746:	28 29       	and	r2,r8
    3748:	29 2a       	xor	r2,r9
    374a:	2b 2b       	or	r2,r11
    374c:	2c 2c       	cmp/str	r2,r12
    374e:	2d 2e       	mulu.w	r2,r13
    3750:	2e 2f       	muls.w	r2,r14
    3752:	2f 30       	mov.b	r3,@r15
    3754:	31 31       	.word 0x3131
    3756:	32 32       	cmp/hs	r3,r2
    3758:	33 34       	div1	r3,r3
    375a:	34 35       	dmulu.l	r3,r4
    375c:	35 36       	cmp/hi	r3,r5
    375e:	37 37       	cmp/gt	r3,r7
    3760:	38 38       	sub	r3,r8
    3762:	39 3a       	subc	r3,r9
    3764:	3a 3b       	subv	r3,r10
    3766:	3c 3c       	add	r3,r12
    3768:	3d 3d       	dmuls.l	r3,r13
    376a:	3e 3f       	addv	r3,r14
    376c:	3f 40       	cmp/eq	r4,r15
    376e:	40 41       	.word 0x4041
    3770:	42 42       	.word 0x4242
    3772:	43 43       	stc.l	spc,@-r3
    3774:	44 45       	.word 0x4445
    3776:	45 46       	.word 0x4546
    3778:	46 47       	ldc.l	@r6+,spc
    377a:	48 48       	.word 0x4848
    377c:	49 49       	.word 0x4949
    377e:	4a 4b       	.word 0x4a4b
    3780:	4b 4c       	shad	r4,r11
    3782:	4d 4d       	shld	r4,r13
    3784:	4e 4e       	ldc	r14,spc
    3786:	4f 50       	.word 0x4f50
    3788:	50 51       	mov.l	@(4,r5),r0
    378a:	51 52       	mov.l	@(8,r5),r1
    378c:	53 53       	mov.l	@(12,r5),r3
    378e:	54 55       	mov.l	@(20,r5),r4
    3790:	55 56       	mov.l	@(24,r5),r5
    3792:	56 57       	mov.l	@(28,r5),r6
    3794:	58 58       	mov.l	@(32,r5),r8
    3796:	59 59       	mov.l	@(36,r5),r9
    3798:	5a 5b       	mov.l	@(44,r5),r10
    379a:	5b 5c       	mov.l	@(48,r5),r11
    379c:	5d 5d       	mov.l	@(52,r5),r13
    379e:	5e 5e       	mov.l	@(56,r5),r14
    37a0:	5f 60       	mov.l	@(0,r6),r15
    37a2:	60 61       	mov.w	@r6,r0
    37a4:	62 62       	mov.l	@r6,r2
    37a6:	63 63       	mov	r6,r3
    37a8:	64 65       	mov.w	@r6+,r4
    37aa:	65 66       	mov.l	@r6+,r5
    37ac:	67 67       	not	r6,r7
    37ae:	68 68       	swap.b	r6,r8
    37b0:	69 6a       	negc	r6,r9
    37b2:	6a 6b       	neg	r6,r10
    37b4:	6c 6c       	extu.b	r6,r12
    37b6:	6d 6d       	extu.w	r6,r13
    37b8:	6e 6f       	exts.w	r6,r14
    37ba:	6f 70       	mov.b	@r7,r15
    37bc:	71 71       	add	#113,r1
    37be:	72 72       	add	#114,r2
    37c0:	73 74       	add	#116,r3
    37c2:	74 75       	add	#117,r4
    37c4:	76 76       	add	#118,r6
    37c6:	77 77       	add	#119,r7
    37c8:	78 79       	add	#121,r8
    37ca:	79 7a       	add	#122,r9
    37cc:	7b 7b       	add	#123,r11
    37ce:	7c 7d       	add	#125,r12
    37d0:	7d 7e       	add	#126,r13
    37d2:	7e 7f       	add	#127,r14
    37d4:	80 80       	mov.b	r0,@(0,r8)
    37d6:	81 82       	mov.w	r0,@(4,r8)
    37d8:	82 83       	.word 0x8283
    37da:	84 84       	mov.b	@(4,r8),r0
    37dc:	85 85       	mov.w	@(10,r8),r0
    37de:	86 87       	.word 0x8687
    37e0:	87 88       	.word 0x8788
    37e2:	89 89       	bt	36f8 <_sddrv_129i+0x36f8>
    37e4:	8a 8b       	.word 0x8a8b
    37e6:	8b 8c       	bf	3702 <_sddrv_129i+0x3702>
    37e8:	8c 8d       	.word 0x8c8d
    37ea:	8e 8e       	.word 0x8e8e
    37ec:	8f 90       	bf.s	3710 <_sddrv_129i+0x3710>
    37ee:	90 91       	mov.w	3914 <_sddrv_129i+0x3914>,r0	! 5a5b
    37f0:	92 92       	mov.w	3918 <_sddrv_129i+0x3918>,r2	! 5d5e
    37f2:	93 94       	mov.w	391e <_sddrv_129i+0x391e>,r3	! 6263
    37f4:	94 95       	mov.w	3922 <_sddrv_129i+0x3922>,r4	! 6566
    37f6:	95 96       	mov.w	3926 <_sddrv_129i+0x3926>,r5	! 6868
    37f8:	97 97       	mov.w	392a <_sddrv_129i+0x392a>,r7	! 6b6b
    37fa:	98 99       	mov.w	3930 <_sddrv_129i+0x3930>,r8	! 6f70
    37fc:	99 9a       	mov.w	3934 <_sddrv_129i+0x3934>,r9	! 7273
    37fe:	9b 9b       	mov.w	3938 <_sddrv_129i+0x3938>,r11	! 7576
    3800:	9c 9d       	mov.w	393e <_sddrv_129i+0x393e>,r12	! 7a7a
    3802:	9d 9e       	mov.w	3942 <_sddrv_129i+0x3942>,r13	! 7d7d
    3804:	9f 9f       	mov.w	3946 <_sddrv_129i+0x3946>,r15	! 8080
    3806:	a0 a0       	bra	394a <_sddrv_129i+0x394a>
    3808:	a1 a2       	bra	3b50 <_sddrv_129i+0x3b50>
    380a:	a2 a3       	bra	3d54 <_sddrv_129i+0x3d54>
    380c:	a4 a4       	bra	4158 <_sddrv_129i+0x4158>
    380e:	a5 a6       	bra	435e <_sddrv_129i+0x435e>
    3810:	a6 a7       	bra	4562 <_sddrv_129i+0x4562>
    3812:	a8 a8       	bra	2966 <_sddrv_129i+0x2966>
    3814:	a9 aa       	bra	2b6c <_sddrv_129i+0x2b6c>
    3816:	aa ab       	bra	2d70 <_sddrv_129i+0x2d70>
    3818:	ac ac       	bra	3174 <_sddrv_129i+0x3174>
    381a:	ad ae       	bra	337a <_sddrv_129i+0x337a>
    381c:	ae af       	bra	357e <_sddrv_129i+0x357e>
    381e:	b0 b0       	bsr	3982 <_sddrv_129i+0x3982>
    3820:	b1 b1       	bsr	3b86 <_sddrv_129i+0x3b86>
    3822:	b2 b3       	bsr	3d8c <_sddrv_129i+0x3d8c>
    3824:	b3 b4       	bsr	3f90 <_sddrv_129i+0x3f90>
    3826:	b5 b5       	bsr	4394 <_sddrv_129i+0x4394>
    3828:	b6 b7       	bsr	459a <_sddrv_129i+0x459a>
    382a:	b7 b8       	bsr	479e <_sddrv_129i+0x479e>
    382c:	b9 b9       	bsr	2ba2 <_sddrv_129i+0x2ba2>
    382e:	ba bb       	bsr	2da8 <_sddrv_129i+0x2da8>
    3830:	bb bc       	bsr	2fac <_sddrv_129i+0x2fac>
    3832:	bd bd       	bsr	33b0 <_sddrv_129i+0x33b0>
    3834:	be bf       	bsr	35b6 <_sddrv_129i+0x35b6>
    3836:	bf c0       	bsr	37ba <_sddrv_129i+0x37ba>
    3838:	c1 c1       	mov.w	r0,@(386,gbr)
    383a:	c2 c3       	mov.l	r0,@(780,gbr)
    383c:	c3 c4       	trapa	#-60
    383e:	c5 c5       	mov.w	@(394,gbr),r0
    3840:	c6 c7       	mov.l	@(796,gbr),r0
    3842:	c7 c8       	mova	3b64 <_sddrv_129i+0x3b64>,r0
    3844:	c9 c9       	and	#-55,r0
    3846:	ca cb       	xor	#-53,r0
    3848:	cb cc       	or	#-52,r0
    384a:	cd cd       	and.b	#-51,@(r0,gbr)
    384c:	ce cf       	xor.b	#-49,@(r0,gbr)
    384e:	cf d0       	or.b	#-48,@(r0,gbr)
    3850:	d1 d1       	mov.l	3b98 <_sddrv_129i+0x3b98>,r1	! 4410484
    3852:	d2 d3       	mov.l	3ba0 <_sddrv_129i+0x3ba0>,r2	! 55905a4
    3854:	d3 d4       	mov.l	3ba8 <_sddrv_129i+0x3ba8>,r3	! 69106e4
    3856:	d5 d5       	mov.l	3bac <_sddrv_129i+0x3bac>,r5	! 7390790
    3858:	d6 d7       	mov.l	3bb8 <_sddrv_129i+0x3bb8>,r6	! 96109c4
    385a:	d7 d8       	mov.l	3bbc <_sddrv_129i+0x3bbc>,r7	! a290a90
    385c:	d9 da       	mov.l	3bc8 <_sddrv_129i+0x3bc8>,r9	! cb10d24
    385e:	da db       	mov.l	3bcc <_sddrv_129i+0x3bcc>,r10	! d990e10
    3860:	dc dc       	mov.l	3bd4 <_sddrv_129i+0x3bd4>,r12	! f811000
    3862:	dd de       	mov.l	3bdc <_sddrv_129i+0x3bdc>,r13	! 11891210
    3864:	de df       	mov.l	3be4 <_sddrv_129i+0x3be4>,r14	! 13b11440
    3866:	e0 e0       	mov	#-32,r0
    3868:	e1 e2       	mov	#-30,r1
    386a:	e2 e3       	mov	#-29,r2
    386c:	e4 e4       	mov	#-28,r4
    386e:	e5 e6       	mov	#-26,r5
    3870:	e6 e7       	mov	#-25,r6
    3872:	e8 e8       	mov	#-24,r8
    3874:	e9 ea       	mov	#-22,r9
    3876:	eb eb       	mov	#-21,r11
    3878:	ec ed       	mov	#-19,r12
    387a:	ed ee       	mov	#-18,r13
    387c:	ef ef       	mov	#-17,r15
    387e:	f0 f1       	fsub	fr15,fr0
    3880:	f1 f2       	fmul	fr15,fr1
    3882:	f3 f3       	fdiv	fr15,fr3
    3884:	f4 f5       	fcmp/gt	fr15,fr4
    3886:	f5 f6       	fmov	@(r0,r15),fr5
    3888:	f7 f8       	fmov	@r15,fr7
    388a:	f8 f9       	fmov	@r15+,fr8
    388c:	fa fa       	fmov	fr15,@r10
    388e:	fb fc       	fmov	fr15,fr11
    3890:	fc fd       	fsca	fpul,dr12
    3892:	fe fe       	fmac	fr0,fr15,fr14
    3894:	ff 00       	fadd	fr0,fr15
    3896:	01 01       	.word 0x0101
    3898:	02 03       	bsrf	r2
    389a:	03 04       	mov.b	r0,@(r0,r3)
    389c:	05 05       	mov.w	r0,@(r0,r5)
    389e:	06 07       	mul.l	r0,r6
    38a0:	07 08       	.word 0x0708
    38a2:	09 0a       	sts	mach,r9
    38a4:	0a 0b       	.word 0x0a0b
    38a6:	0c 0c       	mov.b	@(r0,r0),r12
    38a8:	0d 0e       	mov.l	@(r0,r0),r13
    38aa:	0e 0f       	mac.l	@r0+,@r14+
    38ac:	10 11       	mov.l	r1,@(4,r0)
    38ae:	11 12       	mov.l	r1,@(8,r1)
    38b0:	13 13       	mov.l	r1,@(12,r3)
    38b2:	14 15       	mov.l	r1,@(20,r4)
    38b4:	15 16       	mov.l	r1,@(24,r5)
    38b6:	17 18       	mov.l	r1,@(32,r7)
    38b8:	18 19       	mov.l	r1,@(36,r8)
    38ba:	1a 1a       	mov.l	r1,@(40,r10)
    38bc:	1b 1c       	mov.l	r1,@(48,r11)
    38be:	1d 1d       	mov.l	r1,@(52,r13)
    38c0:	1e 1f       	mov.l	r1,@(60,r14)
    38c2:	1f 20       	mov.l	r2,@(0,r15)
    38c4:	21 21       	mov.w	r2,@r1
    38c6:	22 23       	.word 0x2223
    38c8:	24 24       	mov.b	r2,@-r4
    38ca:	25 26       	mov.l	r2,@-r5
    38cc:	26 27       	div0s	r2,r6
    38ce:	28 29       	and	r2,r8
    38d0:	29 2a       	xor	r2,r9
    38d2:	2b 2b       	or	r2,r11
    38d4:	2c 2d       	xtrct	r2,r12
    38d6:	2e 2e       	mulu.w	r2,r14
    38d8:	2f 30       	mov.b	r3,@r15
    38da:	30 31       	.word 0x3031
    38dc:	32 33       	cmp/ge	r3,r2
    38de:	33 34       	div1	r3,r3
    38e0:	35 35       	dmulu.l	r3,r5
    38e2:	36 37       	cmp/gt	r3,r6
    38e4:	38 38       	sub	r3,r8
    38e6:	39 3a       	subc	r3,r9
    38e8:	3a 3b       	subv	r3,r10
    38ea:	3c 3d       	dmuls.l	r3,r12
    38ec:	3d 3e       	addc	r3,r13
    38ee:	3f 40       	cmp/eq	r4,r15
    38f0:	40 41       	.word 0x4041
    38f2:	42 42       	.word 0x4242
    38f4:	43 44       	.word 0x4344
    38f6:	45 45       	.word 0x4545
    38f8:	46 47       	ldc.l	@r6+,spc
    38fa:	47 48       	.word 0x4748
    38fc:	49 4a       	.word 0x494a
    38fe:	4a 4b       	.word 0x4a4b
    3900:	4c 4d       	shld	r4,r12
    3902:	4d 4e       	ldc	r13,spc
    3904:	4f 4f       	mac.w	@r4+,@r15+
    3906:	50 51       	mov.l	@(4,r5),r0
    3908:	52 52       	mov.l	@(8,r5),r2
    390a:	53 54       	mov.l	@(16,r5),r3
    390c:	55 55       	mov.l	@(20,r5),r5
    390e:	56 57       	mov.l	@(28,r5),r6
    3910:	58 58       	mov.l	@(32,r5),r8
    3912:	59 5a       	mov.l	@(40,r5),r9
    3914:	5a 5b       	mov.l	@(44,r5),r10
    3916:	5c 5d       	mov.l	@(52,r5),r12
    3918:	5d 5e       	mov.l	@(56,r5),r13
    391a:	5f 60       	mov.l	@(0,r6),r15
    391c:	60 61       	mov.w	@r6,r0
    391e:	62 63       	mov	r6,r2
    3920:	63 64       	mov.b	@r6+,r3
    3922:	65 66       	mov.l	@r6+,r5
    3924:	66 67       	not	r6,r6
    3926:	68 68       	swap.b	r6,r8
    3928:	69 6a       	negc	r6,r9
    392a:	6b 6b       	neg	r6,r11
    392c:	6c 6d       	extu.w	r6,r12
    392e:	6e 6e       	exts.b	r6,r14
    3930:	6f 70       	mov.b	@r7,r15
    3932:	71 71       	add	#113,r1
    3934:	72 73       	add	#115,r2
    3936:	74 74       	add	#116,r4
    3938:	75 76       	add	#118,r5
    393a:	77 77       	add	#119,r7
    393c:	78 79       	add	#121,r8
    393e:	7a 7a       	add	#122,r10
    3940:	7b 7c       	add	#124,r11
    3942:	7d 7d       	add	#125,r13
    3944:	7e 7f       	add	#127,r14
    3946:	80 80       	mov.b	r0,@(0,r8)
    3948:	81 82       	mov.w	r0,@(4,r8)
    394a:	83 83       	.word 0x8383
    394c:	84 85       	mov.b	@(5,r8),r0
    394e:	86 86       	.word 0x8686
    3950:	87 88       	.word 0x8788
    3952:	89 89       	bt	3868 <_sddrv_129i+0x3868>
    3954:	8a 8b       	.word 0x8a8b
    3956:	8c 8c       	.word 0x8c8c
    3958:	8d 8e       	bt.s	3878 <_sddrv_129i+0x3878>
    395a:	8f 8f       	bf.s	387c <_sddrv_129i+0x387c>
    395c:	90 91       	mov.w	3a82 <_sddrv_129i+0x3a82>,r0	! 7f80
    395e:	92 92       	mov.w	3a86 <_sddrv_129i+0x3a86>,r2	! 8283
    3960:	93 94       	mov.w	3a8c <_sddrv_129i+0x3a8c>,r3	! 8788
    3962:	95 96       	mov.w	3a92 <_sddrv_129i+0x3a92>,r5	! 8d8d
    3964:	96 97       	mov.w	3a96 <_sddrv_129i+0x3a96>,r6	! 9091
    3966:	98 99       	mov.w	3a9c <_sddrv_129i+0x3a9c>,r8	! 9596
    3968:	99 9a       	mov.w	3aa0 <_sddrv_129i+0x3aa0>,r9	! 999a
    396a:	9b 9c       	mov.w	3aa6 <_sddrv_129i+0x3aa6>,r11	! 9e9f
    396c:	9c 9d       	mov.w	3aaa <_sddrv_129i+0x3aaa>,r12	! a2a2
    396e:	9e 9f       	mov.w	3ab0 <_sddrv_129i+0x3ab0>,r14	! a7a8
    3970:	9f a0       	mov.w	3ab4 <_sddrv_129i+0x3ab4>,r15	! aaab
    3972:	a1 a2       	bra	3cba <_sddrv_129i+0x3cba>
    3974:	a2 a3       	bra	3ebe <_sddrv_129i+0x3ebe>
    3976:	a4 a5       	bra	42c4 <_sddrv_129i+0x42c4>
    3978:	a6 a6       	bra	46c8 <_sddrv_129i+0x46c8>
    397a:	a7 a8       	bra	48ce <_sddrv_129i+0x48ce>
    397c:	a9 a9       	bra	2cd2 <_sddrv_129i+0x2cd2>
    397e:	aa ab       	bra	2ed8 <_sddrv_129i+0x2ed8>
    3980:	ac ac       	bra	32dc <_sddrv_129i+0x32dc>
    3982:	ad ae       	bra	34e2 <_sddrv_129i+0x34e2>
    3984:	af b0       	bra	38e8 <_sddrv_129i+0x38e8>
    3986:	b0 b1       	bsr	3aec <_sddrv_129i+0x3aec>
    3988:	b2 b3       	bsr	3ef2 <_sddrv_129i+0x3ef2>
    398a:	b3 b4       	bsr	40f6 <_sddrv_129i+0x40f6>
    398c:	b5 b6       	bsr	44fc <_sddrv_129i+0x44fc>
    398e:	b7 b7       	bsr	4900 <_sddrv_129i+0x4900>
    3990:	b8 b9       	bsr	2b06 <_sddrv_129i+0x2b06>
    3992:	ba ba       	bsr	2f0a <_sddrv_129i+0x2f0a>
    3994:	bb bc       	bsr	3110 <_sddrv_129i+0x3110>
    3996:	bd be       	bsr	3516 <_sddrv_129i+0x3516>
    3998:	be bf       	bsr	371a <_sddrv_129i+0x371a>
    399a:	c0 c1       	mov.b	r0,@(193,gbr)
    399c:	c1 c2       	mov.w	r0,@(388,gbr)
    399e:	c3 c4       	trapa	#-60
    39a0:	c5 c5       	mov.w	@(394,gbr),r0
    39a2:	c6 c7       	mov.l	@(796,gbr),r0
    39a4:	c8 c8       	tst	#-56,r0
    39a6:	c9 ca       	and	#-54,r0
    39a8:	cb cc       	or	#-52,r0
    39aa:	cc cd       	tst.b	#-51,@(r0,gbr)
    39ac:	ce cf       	xor.b	#-49,@(r0,gbr)
    39ae:	d0 d0       	mov.l	3cf0 <_sddrv_129i+0x3cf0>,r0	! a429a5c4
    39b0:	d1 d2       	mov.l	3cfc <_sddrv_129i+0x3cfc>,r1	! ade9af90
    39b2:	d3 d3       	mov.l	3d00 <_sddrv_129i+0x3d00>,r3	! b139b2e4
    39b4:	d4 d5       	mov.l	3d0c <_sddrv_129i+0x3d0c>,r4	! bb59bd10
    39b6:	d6 d7       	mov.l	3d14 <_sddrv_129i+0x3d14>,r6	! c241c400
    39b8:	d7 d8       	mov.l	3d1c <_sddrv_129i+0x3d1c>,r7	! c949cb10
    39ba:	d9 da       	mov.l	3d24 <_sddrv_129i+0x3d24>,r9	! d071d240
    39bc:	db db       	mov.l	3d2c <_sddrv_129i+0x3d2c>,r11	! d7b9d990
    39be:	dc dd       	mov.l	3d34 <_sddrv_129i+0x3d34>,r12	! df21e100
    39c0:	de df       	mov.l	3d40 <_sddrv_129i+0x3d40>,r14	! ea79ec64
    39c2:	df e0       	mov.l	3d44 <_sddrv_129i+0x3d44>,r15	! ee51f040
    39c4:	e1 e2       	mov	#-30,r1
    39c6:	e3 e3       	mov	#-29,r3
    39c8:	e4 e5       	mov	#-27,r4
    39ca:	e6 e7       	mov	#-25,r6
    39cc:	e7 e8       	mov	#-24,r7
    39ce:	e9 ea       	mov	#-22,r9
    39d0:	eb eb       	mov	#-21,r11
    39d2:	ec ed       	mov	#-19,r12
    39d4:	ee ef       	mov	#-17,r14
    39d6:	ef f0       	mov	#-16,r15
    39d8:	f1 f2       	fmul	fr15,fr1
    39da:	f3 f3       	fdiv	fr15,fr3
    39dc:	f4 f5       	fcmp/gt	fr15,fr4
    39de:	f6 f7       	fmov	fr15,@(r0,r6)
    39e0:	f7 f8       	fmov	@r15,fr7
    39e2:	f9 fa       	fmov	fr15,@r9
    39e4:	fb fb       	fmov	fr15,@-r11
    39e6:	fc fd       	fsca	fpul,dr12
    39e8:	fe ff       	.word 0xfeff
    39ea:	ff 00       	fadd	fr0,fr15
    39ec:	01 02       	stc	sr,r1
    39ee:	03 03       	bsrf	r3
    39f0:	04 05       	mov.w	r0,@(r0,r4)
    39f2:	06 07       	mul.l	r0,r6
    39f4:	08 08       	.word 0x0808
    39f6:	09 0a       	sts	mach,r9
    39f8:	0b 0c       	mov.b	@(r0,r0),r11
    39fa:	0c 0d       	mov.w	@(r0,r0),r12
    39fc:	0e 0f       	mac.l	@r0+,@r14+
    39fe:	10 10       	mov.l	r1,@(0,r0)
    3a00:	11 12       	mov.l	r1,@(8,r1)
    3a02:	13 14       	mov.l	r1,@(16,r3)
    3a04:	15 15       	mov.l	r1,@(20,r5)
    3a06:	16 17       	mov.l	r1,@(28,r6)
    3a08:	18 19       	mov.l	r1,@(36,r8)
    3a0a:	19 1a       	mov.l	r1,@(40,r9)
    3a0c:	1b 1c       	mov.l	r1,@(48,r11)
    3a0e:	1d 1e       	mov.l	r1,@(56,r13)
    3a10:	1e 1f       	mov.l	r1,@(60,r14)
    3a12:	20 21       	mov.w	r2,@r0
    3a14:	22 23       	.word 0x2223
    3a16:	23 24       	mov.b	r2,@-r3
    3a18:	25 26       	mov.l	r2,@-r5
    3a1a:	27 27       	div0s	r2,r7
    3a1c:	28 29       	and	r2,r8
    3a1e:	2a 2b       	or	r2,r10
    3a20:	2c 2c       	cmp/str	r2,r12
    3a22:	2d 2e       	mulu.w	r2,r13
    3a24:	2f 30       	mov.b	r3,@r15
    3a26:	31 31       	.word 0x3131
    3a28:	32 33       	cmp/ge	r3,r2
    3a2a:	34 35       	dmulu.l	r3,r4
    3a2c:	36 36       	cmp/hi	r3,r6
    3a2e:	37 38       	sub	r3,r7
    3a30:	39 3a       	subc	r3,r9
    3a32:	3b 3b       	subv	r3,r11
    3a34:	3c 3d       	dmuls.l	r3,r12
    3a36:	3e 3f       	addv	r3,r14
    3a38:	40 40       	.word 0x4040
    3a3a:	41 42       	.word 0x4142
    3a3c:	43 44       	.word 0x4344
    3a3e:	45 45       	.word 0x4545
    3a40:	46 47       	ldc.l	@r6+,spc
    3a42:	48 49       	.word 0x4849
    3a44:	4a 4b       	.word 0x4a4b
    3a46:	4b 4c       	shad	r4,r11
    3a48:	4d 4e       	ldc	r13,spc
    3a4a:	4f 50       	.word 0x4f50
    3a4c:	50 51       	mov.l	@(4,r5),r0
    3a4e:	52 53       	mov.l	@(12,r5),r2
    3a50:	54 55       	mov.l	@(20,r5),r4
    3a52:	56 56       	mov.l	@(24,r5),r6
    3a54:	57 58       	mov.l	@(32,r5),r7
    3a56:	59 5a       	mov.l	@(40,r5),r9
    3a58:	5b 5b       	mov.l	@(44,r5),r11
    3a5a:	5c 5d       	mov.l	@(52,r5),r12
    3a5c:	5e 5f       	mov.l	@(60,r5),r14
    3a5e:	60 61       	mov.w	@r6,r0
    3a60:	61 62       	mov.l	@r6,r1
    3a62:	63 64       	mov.b	@r6+,r3
    3a64:	65 66       	mov.l	@r6+,r5
    3a66:	67 67       	not	r6,r7
    3a68:	68 69       	swap.w	r6,r8
    3a6a:	6a 6b       	neg	r6,r10
    3a6c:	6c 6d       	extu.w	r6,r12
    3a6e:	6d 6e       	exts.b	r6,r13
    3a70:	6f 70       	mov.b	@r7,r15
    3a72:	71 72       	add	#114,r1
    3a74:	73 73       	add	#115,r3
    3a76:	74 75       	add	#117,r4
    3a78:	76 77       	add	#119,r6
    3a7a:	78 79       	add	#121,r8
    3a7c:	79 7a       	add	#122,r9
    3a7e:	7b 7c       	add	#124,r11
    3a80:	7d 7e       	add	#126,r13
    3a82:	7f 80       	add	#-128,r15
    3a84:	80 81       	mov.b	r0,@(1,r8)
    3a86:	82 83       	.word 0x8283
    3a88:	84 85       	mov.b	@(5,r8),r0
    3a8a:	86 86       	.word 0x8686
    3a8c:	87 88       	.word 0x8788
    3a8e:	89 8a       	bt	39a6 <_sddrv_129i+0x39a6>
    3a90:	8b 8c       	bf	39ac <_sddrv_129i+0x39ac>
    3a92:	8d 8d       	bt.s	39b0 <_sddrv_129i+0x39b0>
    3a94:	8e 8f       	.word 0x8e8f
    3a96:	90 91       	mov.w	3bbc <_sddrv_129i+0x3bbc>,r0	! a29
    3a98:	92 93       	mov.w	3bc2 <_sddrv_129i+0x3bc2>,r2	! b64
    3a9a:	94 94       	mov.w	3bc6 <_sddrv_129i+0x3bc6>,r4	! c40
    3a9c:	95 96       	mov.w	3bcc <_sddrv_129i+0x3bcc>,r5	! d99
    3a9e:	97 98       	mov.w	3bd2 <_sddrv_129i+0x3bd2>,r7	! f04
    3aa0:	99 9a       	mov.w	3bd8 <_sddrv_129i+0x3bd8>,r9	! 1081
    3aa2:	9b 9b       	mov.w	3bdc <_sddrv_129i+0x3bdc>,r11	! 1189
    3aa4:	9c 9d       	mov.w	3be2 <_sddrv_129i+0x3be2>,r12	! 1324
    3aa6:	9e 9f       	mov.w	3be8 <_sddrv_129i+0x3be8>,r14	! 14d1
    3aa8:	a0 a1       	bra	3bee <_sddrv_129i+0x3bee>
    3aaa:	a2 a2       	bra	3ff2 <_sddrv_129i+0x3ff2>
    3aac:	a3 a4       	bra	41f8 <_sddrv_129i+0x41f8>
    3aae:	a5 a6       	bra	45fe <_sddrv_129i+0x45fe>
    3ab0:	a7 a8       	bra	4a04 <_sddrv_129i+0x4a04>
    3ab2:	a9 aa       	bra	2e0a <_sddrv_129i+0x2e0a>
    3ab4:	aa ab       	bra	300e <_sddrv_129i+0x300e>
    3ab6:	ac ad       	bra	3414 <_sddrv_129i+0x3414>
    3ab8:	ae af       	bra	381a <_sddrv_129i+0x381a>
    3aba:	b0 b1       	bsr	3c20 <_sddrv_129i+0x3c20>
    3abc:	b2 b2       	bsr	4024 <_sddrv_129i+0x4024>
    3abe:	b3 b4       	bsr	422a <_sddrv_129i+0x422a>
    3ac0:	b5 b6       	bsr	4630 <_sddrv_129i+0x4630>
    3ac2:	b7 b8       	bsr	4a36 <_sddrv_129i+0x4a36>
    3ac4:	b9 ba       	bsr	2e3c <_sddrv_129i+0x2e3c>
    3ac6:	ba bb       	bsr	3040 <_sddrv_129i+0x3040>
    3ac8:	bc bd       	bsr	3446 <_sddrv_129i+0x3446>
    3aca:	be bf       	bsr	384c <_sddrv_129i+0x384c>
    3acc:	c0 c1       	mov.b	r0,@(193,gbr)
    3ace:	c2 c3       	mov.l	r0,@(780,gbr)
    3ad0:	c3 c4       	trapa	#-60
    3ad2:	c5 c6       	mov.w	@(396,gbr),r0
    3ad4:	c7 c8       	mova	3df8 <_sddrv_129i+0x3df8>,r0
    3ad6:	c9 ca       	and	#-54,r0
    3ad8:	cb cb       	or	#-53,r0
    3ada:	cc cd       	tst.b	#-51,@(r0,gbr)
    3adc:	ce cf       	xor.b	#-49,@(r0,gbr)
    3ade:	d0 d1       	mov.l	3e24 <_sddrv_129i+0x3e24>,r0	! 1f002000
    3ae0:	d2 d3       	mov.l	3e30 <_sddrv_129i+0x3e30>,r2	! 25002600
    3ae2:	d4 d5       	mov.l	3e38 <_sddrv_129i+0x3e38>,r4	! 29002a00
    3ae4:	d5 d6       	mov.l	3e40 <_sddrv_129i+0x3e40>,r5	! 2d002e00
    3ae6:	d7 d8       	mov.l	3e48 <_sddrv_129i+0x3e48>,r7	! 31003200
    3ae8:	d9 da       	mov.l	3e54 <_sddrv_129i+0x3e54>,r9	! 3a003c00
    3aea:	db dc       	mov.l	3e5c <_sddrv_129i+0x3e5c>,r11	! 42004400
    3aec:	dd de       	mov.l	3e68 <_sddrv_129i+0x3e68>,r13	! 58005c00
    3aee:	de df       	mov.l	3e6c <_sddrv_129i+0x3e6c>,r14	! 5fff0000
    3af0:	e0 e1       	mov	#-31,r0
    3af2:	e2 e3       	mov	#-29,r2
    3af4:	e4 e5       	mov	#-27,r4
    3af6:	e6 e7       	mov	#-25,r6
    3af8:	e8 e9       	mov	#-23,r8
    3afa:	e9 ea       	mov	#-22,r9
    3afc:	eb ec       	mov	#-20,r11
    3afe:	ed ee       	mov	#-18,r13
    3b00:	ef f0       	mov	#-16,r15
    3b02:	f1 f2       	fmul	fr15,fr1
    3b04:	f3 f4       	fcmp/eq	fr15,fr3
    3b06:	f4 f5       	fcmp/gt	fr15,fr4
    3b08:	f6 f7       	fmov	fr15,@(r0,r6)
    3b0a:	f8 f9       	fmov	@r15+,fr8
    3b0c:	fa fb       	fmov	fr15,@-r10
    3b0e:	fc fd       	fsca	fpul,dr12
    3b10:	fe ff       	.word 0xfeff
    3b12:	02 40       	.word 0x0240
    3b14:	00 ff       	mac.l	@r15+,@r0+
    3b16:	60 08       	swap.b	r0,r0
    3b18:	10 00       	mov.l	r0,@(0,r0)
    3b1a:	6b 0c       	extu.b	r0,r11
    3b1c:	02 40       	.word 0x0240
    3b1e:	00 7f       	mac.l	@r7+,@r0+
    3b20:	d0 40       	mov.l	3c24 <_sddrv_129i+0x3c24>,r0	! 29712a40
    3b22:	30 3b       	subv	r3,r0
    3b24:	00 32       	stc	ssr,r0
    3b26:	4e 75       	.word 0x4e75
    3b28:	44 00       	shll	r4
    3b2a:	02 40       	.word 0x0240
    3b2c:	00 7f       	mac.l	@r7+,@r0+
    3b2e:	d0 40       	mov.l	3c30 <_sddrv_129i+0x3c30>,r0	! 2e692f44
    3b30:	30 3b       	subv	r3,r0
    3b32:	00 24       	mov.b	r2,@(r0,r0)
    3b34:	44 40       	.word 0x4440
    3b36:	4e 75       	.word 0x4e75
    3b38:	10 00       	mov.l	r0,@(0,r0)
    3b3a:	6a 0e       	exts.b	r0,r10
    3b3c:	02 40       	.word 0x0240
    3b3e:	00 7f       	mac.l	@r7+,@r0+
    3b40:	d0 40       	mov.l	3c44 <_sddrv_129i+0x3c44>,r0	! 37513840
    3b42:	30 3b       	subv	r3,r0
    3b44:	00 12       	stc	gbr,r0
    3b46:	44 40       	.word 0x4440
    3b48:	4e 75       	.word 0x4e75
    3b4a:	02 40       	.word 0x0240
    3b4c:	00 7f       	mac.l	@r7+,@r0+
    3b4e:	d0 40       	mov.l	3c50 <_sddrv_129i+0x3c50>,r0	! 3d093e04
    3b50:	30 3b       	subv	r3,r0
    3b52:	00 04       	mov.b	r0,@(r0,r0)
    3b54:	4e 75       	.word 0x4e75
    3b56:	00 00       	.word 0x0000
    3b58:	00 01       	.word 0x0001
    3b5a:	00 04       	mov.b	r0,@(r0,r0)
    3b5c:	00 09       	nop	
    3b5e:	00 10       	.word 0x0010
    3b60:	00 19       	div0u	
    3b62:	00 24       	mov.b	r2,@(r0,r0)
    3b64:	00 31       	.word 0x0031
    3b66:	00 40       	.word 0x0040
    3b68:	00 51       	.word 0x0051
    3b6a:	00 64       	mov.b	r6,@(r0,r0)
    3b6c:	00 79       	.word 0x0079
    3b6e:	00 90       	.word 0x0090
    3b70:	00 a9       	.word 0x00a9
    3b72:	00 c4       	mov.b	r12,@(r0,r0)
    3b74:	00 e1       	.word 0x00e1
    3b76:	01 00       	.word 0x0100
